   1               		.file	"action_tapping.c"
   2               	__SP_H__ = 0x3e
   3               	__SP_L__ = 0x3d
   4               	__SREG__ = 0x3f
   5               	__tmp_reg__ = 0
   6               	__zero_reg__ = 1
   7               		.text
   8               	.Ltext0:
   9               		.cfi_sections	.debug_frame
  10               		.section	.text.debug_waiting_buffer,"ax",@progbits
  12               	debug_waiting_buffer:
  13               	.LFB13:
  14               		.file 1 "tmk_core/common/action_tapping.c"
   1:tmk_core/common/action_tapping.c **** #include <stdint.h>
   2:tmk_core/common/action_tapping.c **** #include <stdbool.h>
   3:tmk_core/common/action_tapping.c **** #include "action.h"
   4:tmk_core/common/action_tapping.c **** #include "action_layer.h"
   5:tmk_core/common/action_tapping.c **** #include "action_tapping.h"
   6:tmk_core/common/action_tapping.c **** #include "keycode.h"
   7:tmk_core/common/action_tapping.c **** #include "timer.h"
   8:tmk_core/common/action_tapping.c **** 
   9:tmk_core/common/action_tapping.c **** #ifdef DEBUG_ACTION
  10:tmk_core/common/action_tapping.c **** #include "debug.h"
  11:tmk_core/common/action_tapping.c **** #else
  12:tmk_core/common/action_tapping.c **** #include "nodebug.h"
  13:tmk_core/common/action_tapping.c **** #endif
  14:tmk_core/common/action_tapping.c **** 
  15:tmk_core/common/action_tapping.c **** #ifndef NO_ACTION_TAPPING
  16:tmk_core/common/action_tapping.c **** 
  17:tmk_core/common/action_tapping.c **** #define IS_TAPPING()            !IS_NOEVENT(tapping_key.event)
  18:tmk_core/common/action_tapping.c **** #define IS_TAPPING_PRESSED()    (IS_TAPPING() && tapping_key.event.pressed)
  19:tmk_core/common/action_tapping.c **** #define IS_TAPPING_RELEASED()   (IS_TAPPING() && !tapping_key.event.pressed)
  20:tmk_core/common/action_tapping.c **** #define IS_TAPPING_KEY(k)       (IS_TAPPING() && KEYEQ(tapping_key.event.key, (k)))
  21:tmk_core/common/action_tapping.c **** 
  22:tmk_core/common/action_tapping.c **** __attribute__ ((weak))
  23:tmk_core/common/action_tapping.c **** uint16_t get_tapping_term(uint16_t keycode) {
  24:tmk_core/common/action_tapping.c ****   return TAPPING_TERM;
  25:tmk_core/common/action_tapping.c **** }
  26:tmk_core/common/action_tapping.c **** 
  27:tmk_core/common/action_tapping.c **** #ifdef TAPPING_TERM_PER_KEY
  28:tmk_core/common/action_tapping.c **** #define WITHIN_TAPPING_TERM(e)  (TIMER_DIFF_16(e.time, tapping_key.event.time) < get_tapping_term(g
  29:tmk_core/common/action_tapping.c **** #else
  30:tmk_core/common/action_tapping.c **** #define WITHIN_TAPPING_TERM(e)  (TIMER_DIFF_16(e.time, tapping_key.event.time) < TAPPING_TERM)
  31:tmk_core/common/action_tapping.c **** #endif
  32:tmk_core/common/action_tapping.c **** 
  33:tmk_core/common/action_tapping.c **** static keyrecord_t tapping_key = {};
  34:tmk_core/common/action_tapping.c **** static keyrecord_t waiting_buffer[WAITING_BUFFER_SIZE] = {};
  35:tmk_core/common/action_tapping.c **** static uint8_t waiting_buffer_head = 0;
  36:tmk_core/common/action_tapping.c **** static uint8_t waiting_buffer_tail = 0;
  37:tmk_core/common/action_tapping.c **** 
  38:tmk_core/common/action_tapping.c **** static bool process_tapping(keyrecord_t *record);
  39:tmk_core/common/action_tapping.c **** static bool waiting_buffer_enq(keyrecord_t record);
  40:tmk_core/common/action_tapping.c **** static void waiting_buffer_clear(void);
  41:tmk_core/common/action_tapping.c **** static bool waiting_buffer_typed(keyevent_t event);
  42:tmk_core/common/action_tapping.c **** static bool waiting_buffer_has_anykey_pressed(void);
  43:tmk_core/common/action_tapping.c **** static void waiting_buffer_scan_tap(void);
  44:tmk_core/common/action_tapping.c **** static void debug_tapping_key(void);
  45:tmk_core/common/action_tapping.c **** static void debug_waiting_buffer(void);
  46:tmk_core/common/action_tapping.c **** 
  47:tmk_core/common/action_tapping.c **** 
  48:tmk_core/common/action_tapping.c **** /** \brief Action Tapping Process
  49:tmk_core/common/action_tapping.c ****  *
  50:tmk_core/common/action_tapping.c ****  * FIXME: Needs doc
  51:tmk_core/common/action_tapping.c ****  */
  52:tmk_core/common/action_tapping.c **** void action_tapping_process(keyrecord_t record)
  53:tmk_core/common/action_tapping.c **** {
  54:tmk_core/common/action_tapping.c ****     if (process_tapping(&record)) {
  55:tmk_core/common/action_tapping.c ****         if (!IS_NOEVENT(record.event)) {
  56:tmk_core/common/action_tapping.c ****             debug("processed: "); debug_record(record); debug("\n");
  57:tmk_core/common/action_tapping.c ****         }
  58:tmk_core/common/action_tapping.c ****     } else {
  59:tmk_core/common/action_tapping.c ****         if (!waiting_buffer_enq(record)) {
  60:tmk_core/common/action_tapping.c ****             // clear all in case of overflow.
  61:tmk_core/common/action_tapping.c ****             debug("OVERFLOW: CLEAR ALL STATES\n");
  62:tmk_core/common/action_tapping.c ****             clear_keyboard();
  63:tmk_core/common/action_tapping.c ****             waiting_buffer_clear();
  64:tmk_core/common/action_tapping.c ****             tapping_key = (keyrecord_t){};
  65:tmk_core/common/action_tapping.c ****         }
  66:tmk_core/common/action_tapping.c ****     }
  67:tmk_core/common/action_tapping.c **** 
  68:tmk_core/common/action_tapping.c ****     // process waiting_buffer
  69:tmk_core/common/action_tapping.c ****     if (!IS_NOEVENT(record.event) && waiting_buffer_head != waiting_buffer_tail) {
  70:tmk_core/common/action_tapping.c ****         debug("---- action_exec: process waiting_buffer -----\n");
  71:tmk_core/common/action_tapping.c ****     }
  72:tmk_core/common/action_tapping.c ****     for (; waiting_buffer_tail != waiting_buffer_head; waiting_buffer_tail = (waiting_buffer_tail +
  73:tmk_core/common/action_tapping.c ****         if (process_tapping(&waiting_buffer[waiting_buffer_tail])) {
  74:tmk_core/common/action_tapping.c ****             debug("processed: waiting_buffer["); debug_dec(waiting_buffer_tail); debug("] = ");
  75:tmk_core/common/action_tapping.c ****             debug_record(waiting_buffer[waiting_buffer_tail]); debug("\n\n");
  76:tmk_core/common/action_tapping.c ****         } else {
  77:tmk_core/common/action_tapping.c ****             break;
  78:tmk_core/common/action_tapping.c ****         }
  79:tmk_core/common/action_tapping.c ****     }
  80:tmk_core/common/action_tapping.c ****     if (!IS_NOEVENT(record.event)) {
  81:tmk_core/common/action_tapping.c ****         debug("\n");
  82:tmk_core/common/action_tapping.c ****     }
  83:tmk_core/common/action_tapping.c **** }
  84:tmk_core/common/action_tapping.c **** 
  85:tmk_core/common/action_tapping.c **** 
  86:tmk_core/common/action_tapping.c **** /** \brief Tapping
  87:tmk_core/common/action_tapping.c ****  *
  88:tmk_core/common/action_tapping.c ****  * Rule: Tap key is typed(pressed and released) within TAPPING_TERM.
  89:tmk_core/common/action_tapping.c ****  *       (without interfering by typing other key)
  90:tmk_core/common/action_tapping.c ****  */
  91:tmk_core/common/action_tapping.c **** /* return true when key event is processed or consumed. */
  92:tmk_core/common/action_tapping.c **** bool process_tapping(keyrecord_t *keyp)
  93:tmk_core/common/action_tapping.c **** {
  94:tmk_core/common/action_tapping.c ****     keyevent_t event = keyp->event;
  95:tmk_core/common/action_tapping.c **** 
  96:tmk_core/common/action_tapping.c ****     // if tapping
  97:tmk_core/common/action_tapping.c ****     if (IS_TAPPING_PRESSED()) {
  98:tmk_core/common/action_tapping.c ****         if (WITHIN_TAPPING_TERM(event)) {
  99:tmk_core/common/action_tapping.c ****             if (tapping_key.tap.count == 0) {
 100:tmk_core/common/action_tapping.c ****                 if (IS_TAPPING_KEY(event.key) && !event.pressed) {
 101:tmk_core/common/action_tapping.c ****                     // first tap!
 102:tmk_core/common/action_tapping.c ****                     debug("Tapping: First tap(0->1).\n");
 103:tmk_core/common/action_tapping.c ****                     tapping_key.tap.count = 1;
 104:tmk_core/common/action_tapping.c ****                     debug_tapping_key();
 105:tmk_core/common/action_tapping.c ****                     process_record(&tapping_key);
 106:tmk_core/common/action_tapping.c **** 
 107:tmk_core/common/action_tapping.c ****                     // copy tapping state
 108:tmk_core/common/action_tapping.c ****                     keyp->tap = tapping_key.tap;
 109:tmk_core/common/action_tapping.c ****                     // enqueue
 110:tmk_core/common/action_tapping.c ****                     return false;
 111:tmk_core/common/action_tapping.c ****                 }
 112:tmk_core/common/action_tapping.c ****                 /* Process a key typed within TAPPING_TERM
 113:tmk_core/common/action_tapping.c ****                  * This can register the key before settlement of tapping,
 114:tmk_core/common/action_tapping.c ****                  * useful for long TAPPING_TERM but may prevent fast typing.
 115:tmk_core/common/action_tapping.c ****                  */
 116:tmk_core/common/action_tapping.c **** #if defined(TAPPING_TERM_PER_KEY) || (!defined(PER_KEY_TAPPING_TERM) && TAPPING_TERM >= 500) || def
 117:tmk_core/common/action_tapping.c **** #ifdef TAPPING_TERM_PER_KEY
 118:tmk_core/common/action_tapping.c ****                 else if ( ( get_tapping_term(get_event_keycode(tapping_key.event)) >= 500) && IS_RE
 119:tmk_core/common/action_tapping.c **** #else
 120:tmk_core/common/action_tapping.c ****                 else if ( IS_RELEASED(event) && waiting_buffer_typed(event))
 121:tmk_core/common/action_tapping.c **** #endif
 122:tmk_core/common/action_tapping.c ****                 {
 123:tmk_core/common/action_tapping.c ****                     debug("Tapping: End. No tap. Interfered by typing key\n");
 124:tmk_core/common/action_tapping.c ****                     process_record(&tapping_key);
 125:tmk_core/common/action_tapping.c ****                     tapping_key = (keyrecord_t){};
 126:tmk_core/common/action_tapping.c ****                     debug_tapping_key();
 127:tmk_core/common/action_tapping.c ****                     // enqueue
 128:tmk_core/common/action_tapping.c ****                     return false;
 129:tmk_core/common/action_tapping.c ****                 }
 130:tmk_core/common/action_tapping.c **** #endif
 131:tmk_core/common/action_tapping.c ****                 /* Process release event of a key pressed before tapping starts
 132:tmk_core/common/action_tapping.c ****                  * Without this unexpected repeating will occur with having fast repeating setting
 133:tmk_core/common/action_tapping.c ****                  * https://github.com/tmk/tmk_keyboard/issues/60
 134:tmk_core/common/action_tapping.c ****                  */
 135:tmk_core/common/action_tapping.c ****                 else if (IS_RELEASED(event) && !waiting_buffer_typed(event)) {
 136:tmk_core/common/action_tapping.c ****                     // Modifier should be retained till end of this tapping.
 137:tmk_core/common/action_tapping.c ****                     action_t action = layer_switch_get_action(event.key);
 138:tmk_core/common/action_tapping.c ****                     switch (action.kind.id) {
 139:tmk_core/common/action_tapping.c ****                         case ACT_LMODS:
 140:tmk_core/common/action_tapping.c ****                         case ACT_RMODS:
 141:tmk_core/common/action_tapping.c ****                             if (action.key.mods && !action.key.code) return false;
 142:tmk_core/common/action_tapping.c ****                             if (IS_MOD(action.key.code)) return false;
 143:tmk_core/common/action_tapping.c ****                             break;
 144:tmk_core/common/action_tapping.c ****                         case ACT_LMODS_TAP:
 145:tmk_core/common/action_tapping.c ****                         case ACT_RMODS_TAP:
 146:tmk_core/common/action_tapping.c ****                             if (action.key.mods && keyp->tap.count == 0) return false;
 147:tmk_core/common/action_tapping.c ****                             if (IS_MOD(action.key.code)) return false;
 148:tmk_core/common/action_tapping.c ****                             break;
 149:tmk_core/common/action_tapping.c ****                     }
 150:tmk_core/common/action_tapping.c ****                     // Release of key should be process immediately.
 151:tmk_core/common/action_tapping.c ****                     debug("Tapping: release event of a key pressed before tapping\n");
 152:tmk_core/common/action_tapping.c ****                     process_record(keyp);
 153:tmk_core/common/action_tapping.c ****                     return true;
 154:tmk_core/common/action_tapping.c ****                 }
 155:tmk_core/common/action_tapping.c ****                 else {
 156:tmk_core/common/action_tapping.c ****                     // set interrupted flag when other key preesed during tapping
 157:tmk_core/common/action_tapping.c ****                     if (event.pressed) {
 158:tmk_core/common/action_tapping.c ****                         tapping_key.tap.interrupted = true;
 159:tmk_core/common/action_tapping.c ****                     }
 160:tmk_core/common/action_tapping.c ****                     // enqueue
 161:tmk_core/common/action_tapping.c ****                     return false;
 162:tmk_core/common/action_tapping.c ****                 }
 163:tmk_core/common/action_tapping.c ****             }
 164:tmk_core/common/action_tapping.c ****             // tap_count > 0
 165:tmk_core/common/action_tapping.c ****             else {
 166:tmk_core/common/action_tapping.c ****                 if (IS_TAPPING_KEY(event.key) && !event.pressed) {
 167:tmk_core/common/action_tapping.c ****                     debug("Tapping: Tap release("); debug_dec(tapping_key.tap.count); debug(")\n");
 168:tmk_core/common/action_tapping.c ****                     keyp->tap = tapping_key.tap;
 169:tmk_core/common/action_tapping.c ****                     process_record(keyp);
 170:tmk_core/common/action_tapping.c ****                     tapping_key = *keyp;
 171:tmk_core/common/action_tapping.c ****                     debug_tapping_key();
 172:tmk_core/common/action_tapping.c ****                     return true;
 173:tmk_core/common/action_tapping.c ****                 }
 174:tmk_core/common/action_tapping.c ****                 else if (is_tap_key(event.key) && event.pressed) {
 175:tmk_core/common/action_tapping.c ****                     if (tapping_key.tap.count > 1) {
 176:tmk_core/common/action_tapping.c ****                         debug("Tapping: Start new tap with releasing last tap(>1).\n");
 177:tmk_core/common/action_tapping.c ****                         // unregister key
 178:tmk_core/common/action_tapping.c ****                         process_record(&(keyrecord_t){
 179:tmk_core/common/action_tapping.c ****                                 .tap = tapping_key.tap,
 180:tmk_core/common/action_tapping.c ****                                 .event.key = tapping_key.event.key,
 181:tmk_core/common/action_tapping.c ****                                 .event.time = event.time,
 182:tmk_core/common/action_tapping.c ****                                 .event.pressed = false
 183:tmk_core/common/action_tapping.c ****                         });
 184:tmk_core/common/action_tapping.c ****                     } else {
 185:tmk_core/common/action_tapping.c ****                         debug("Tapping: Start while last tap(1).\n");
 186:tmk_core/common/action_tapping.c ****                     }
 187:tmk_core/common/action_tapping.c ****                     tapping_key = *keyp;
 188:tmk_core/common/action_tapping.c ****                     waiting_buffer_scan_tap();
 189:tmk_core/common/action_tapping.c ****                     debug_tapping_key();
 190:tmk_core/common/action_tapping.c ****                     return true;
 191:tmk_core/common/action_tapping.c ****                 }
 192:tmk_core/common/action_tapping.c ****                 else {
 193:tmk_core/common/action_tapping.c ****                     if (!IS_NOEVENT(event)) {
 194:tmk_core/common/action_tapping.c ****                         debug("Tapping: key event while last tap(>0).\n");
 195:tmk_core/common/action_tapping.c ****                     }
 196:tmk_core/common/action_tapping.c ****                     process_record(keyp);
 197:tmk_core/common/action_tapping.c ****                     return true;
 198:tmk_core/common/action_tapping.c ****                 }
 199:tmk_core/common/action_tapping.c ****             }
 200:tmk_core/common/action_tapping.c ****         }
 201:tmk_core/common/action_tapping.c ****         // after TAPPING_TERM
 202:tmk_core/common/action_tapping.c ****         else {
 203:tmk_core/common/action_tapping.c ****             if (tapping_key.tap.count == 0) {
 204:tmk_core/common/action_tapping.c ****                 debug("Tapping: End. Timeout. Not tap(0): ");
 205:tmk_core/common/action_tapping.c ****                 debug_event(event); debug("\n");
 206:tmk_core/common/action_tapping.c ****                 process_record(&tapping_key);
 207:tmk_core/common/action_tapping.c ****                 tapping_key = (keyrecord_t){};
 208:tmk_core/common/action_tapping.c ****                 debug_tapping_key();
 209:tmk_core/common/action_tapping.c ****                 return false;
 210:tmk_core/common/action_tapping.c ****             }  else {
 211:tmk_core/common/action_tapping.c ****                 if (IS_TAPPING_KEY(event.key) && !event.pressed) {
 212:tmk_core/common/action_tapping.c ****                     debug("Tapping: End. last timeout tap release(>0).");
 213:tmk_core/common/action_tapping.c ****                     keyp->tap = tapping_key.tap;
 214:tmk_core/common/action_tapping.c ****                     process_record(keyp);
 215:tmk_core/common/action_tapping.c ****                     tapping_key = (keyrecord_t){};
 216:tmk_core/common/action_tapping.c ****                     return true;
 217:tmk_core/common/action_tapping.c ****                 }
 218:tmk_core/common/action_tapping.c ****                 else if (is_tap_key(event.key) && event.pressed) {
 219:tmk_core/common/action_tapping.c ****                     if (tapping_key.tap.count > 1) {
 220:tmk_core/common/action_tapping.c ****                         debug("Tapping: Start new tap with releasing last timeout tap(>1).\n");
 221:tmk_core/common/action_tapping.c ****                         // unregister key
 222:tmk_core/common/action_tapping.c ****                         process_record(&(keyrecord_t){
 223:tmk_core/common/action_tapping.c ****                                 .tap = tapping_key.tap,
 224:tmk_core/common/action_tapping.c ****                                 .event.key = tapping_key.event.key,
 225:tmk_core/common/action_tapping.c ****                                 .event.time = event.time,
 226:tmk_core/common/action_tapping.c ****                                 .event.pressed = false
 227:tmk_core/common/action_tapping.c ****                         });
 228:tmk_core/common/action_tapping.c ****                     } else {
 229:tmk_core/common/action_tapping.c ****                         debug("Tapping: Start while last timeout tap(1).\n");
 230:tmk_core/common/action_tapping.c ****                     }
 231:tmk_core/common/action_tapping.c ****                     tapping_key = *keyp;
 232:tmk_core/common/action_tapping.c ****                     waiting_buffer_scan_tap();
 233:tmk_core/common/action_tapping.c ****                     debug_tapping_key();
 234:tmk_core/common/action_tapping.c ****                     return true;
 235:tmk_core/common/action_tapping.c ****                 }
 236:tmk_core/common/action_tapping.c ****                 else {
 237:tmk_core/common/action_tapping.c ****                     if (!IS_NOEVENT(event)) {
 238:tmk_core/common/action_tapping.c ****                         debug("Tapping: key event while last timeout tap(>0).\n");
 239:tmk_core/common/action_tapping.c ****                     }
 240:tmk_core/common/action_tapping.c ****                     process_record(keyp);
 241:tmk_core/common/action_tapping.c ****                     return true;
 242:tmk_core/common/action_tapping.c ****                 }
 243:tmk_core/common/action_tapping.c ****             }
 244:tmk_core/common/action_tapping.c ****         }
 245:tmk_core/common/action_tapping.c ****     } else if (IS_TAPPING_RELEASED()) {
 246:tmk_core/common/action_tapping.c ****         if (WITHIN_TAPPING_TERM(event)) {
 247:tmk_core/common/action_tapping.c ****             if (event.pressed) {
 248:tmk_core/common/action_tapping.c ****                 if (IS_TAPPING_KEY(event.key)) {
 249:tmk_core/common/action_tapping.c **** #ifndef TAPPING_FORCE_HOLD
 250:tmk_core/common/action_tapping.c ****                     if (!tapping_key.tap.interrupted && tapping_key.tap.count > 0) {
 251:tmk_core/common/action_tapping.c ****                         // sequential tap.
 252:tmk_core/common/action_tapping.c ****                         keyp->tap = tapping_key.tap;
 253:tmk_core/common/action_tapping.c ****                         if (keyp->tap.count < 15) keyp->tap.count += 1;
 254:tmk_core/common/action_tapping.c ****                         debug("Tapping: Tap press("); debug_dec(keyp->tap.count); debug(")\n");
 255:tmk_core/common/action_tapping.c ****                         process_record(keyp);
 256:tmk_core/common/action_tapping.c ****                         tapping_key = *keyp;
 257:tmk_core/common/action_tapping.c ****                         debug_tapping_key();
 258:tmk_core/common/action_tapping.c ****                         return true;
 259:tmk_core/common/action_tapping.c ****                     }
 260:tmk_core/common/action_tapping.c **** #endif
 261:tmk_core/common/action_tapping.c ****                     // FIX: start new tap again
 262:tmk_core/common/action_tapping.c ****                     tapping_key = *keyp;
 263:tmk_core/common/action_tapping.c ****                     return true;
 264:tmk_core/common/action_tapping.c ****                 } else if (is_tap_key(event.key)) {
 265:tmk_core/common/action_tapping.c ****                     // Sequential tap can be interfered with other tap key.
 266:tmk_core/common/action_tapping.c ****                     debug("Tapping: Start with interfering other tap.\n");
 267:tmk_core/common/action_tapping.c ****                     tapping_key = *keyp;
 268:tmk_core/common/action_tapping.c ****                     waiting_buffer_scan_tap();
 269:tmk_core/common/action_tapping.c ****                     debug_tapping_key();
 270:tmk_core/common/action_tapping.c ****                     return true;
 271:tmk_core/common/action_tapping.c ****                 } else {
 272:tmk_core/common/action_tapping.c ****                     // should none in buffer
 273:tmk_core/common/action_tapping.c ****                     // FIX: interrupted when other key is pressed
 274:tmk_core/common/action_tapping.c ****                     tapping_key.tap.interrupted = true;
 275:tmk_core/common/action_tapping.c ****                     process_record(keyp);
 276:tmk_core/common/action_tapping.c ****                     return true;
 277:tmk_core/common/action_tapping.c ****                 }
 278:tmk_core/common/action_tapping.c ****             } else {
 279:tmk_core/common/action_tapping.c ****                 if (!IS_NOEVENT(event)) debug("Tapping: other key just after tap.\n");
 280:tmk_core/common/action_tapping.c ****                 process_record(keyp);
 281:tmk_core/common/action_tapping.c ****                 return true;
 282:tmk_core/common/action_tapping.c ****             }
 283:tmk_core/common/action_tapping.c ****         } else {
 284:tmk_core/common/action_tapping.c ****             // FIX: process_action here?
 285:tmk_core/common/action_tapping.c ****             // timeout. no sequential tap.
 286:tmk_core/common/action_tapping.c ****             debug("Tapping: End(Timeout after releasing last tap): ");
 287:tmk_core/common/action_tapping.c ****             debug_event(event); debug("\n");
 288:tmk_core/common/action_tapping.c ****             tapping_key = (keyrecord_t){};
 289:tmk_core/common/action_tapping.c ****             debug_tapping_key();
 290:tmk_core/common/action_tapping.c ****             return false;
 291:tmk_core/common/action_tapping.c ****         }
 292:tmk_core/common/action_tapping.c ****     }
 293:tmk_core/common/action_tapping.c ****     // not tapping state
 294:tmk_core/common/action_tapping.c ****     else {
 295:tmk_core/common/action_tapping.c ****         if (event.pressed && is_tap_key(event.key)) {
 296:tmk_core/common/action_tapping.c ****             debug("Tapping: Start(Press tap key).\n");
 297:tmk_core/common/action_tapping.c ****             tapping_key = *keyp;
 298:tmk_core/common/action_tapping.c ****             process_record_tap_hint(&tapping_key);
 299:tmk_core/common/action_tapping.c ****             waiting_buffer_scan_tap();
 300:tmk_core/common/action_tapping.c ****             debug_tapping_key();
 301:tmk_core/common/action_tapping.c ****             return true;
 302:tmk_core/common/action_tapping.c ****         } else {
 303:tmk_core/common/action_tapping.c ****             process_record(keyp);
 304:tmk_core/common/action_tapping.c ****             return true;
 305:tmk_core/common/action_tapping.c ****         }
 306:tmk_core/common/action_tapping.c ****     }
 307:tmk_core/common/action_tapping.c **** }
 308:tmk_core/common/action_tapping.c **** 
 309:tmk_core/common/action_tapping.c **** 
 310:tmk_core/common/action_tapping.c **** /** \brief Waiting buffer enq
 311:tmk_core/common/action_tapping.c ****  *
 312:tmk_core/common/action_tapping.c ****  * FIXME: Needs docs
 313:tmk_core/common/action_tapping.c ****  */
 314:tmk_core/common/action_tapping.c **** bool waiting_buffer_enq(keyrecord_t record)
 315:tmk_core/common/action_tapping.c **** {
 316:tmk_core/common/action_tapping.c ****     if (IS_NOEVENT(record.event)) {
 317:tmk_core/common/action_tapping.c ****         return true;
 318:tmk_core/common/action_tapping.c ****     }
 319:tmk_core/common/action_tapping.c **** 
 320:tmk_core/common/action_tapping.c ****     if ((waiting_buffer_head + 1) % WAITING_BUFFER_SIZE == waiting_buffer_tail) {
 321:tmk_core/common/action_tapping.c ****         debug("waiting_buffer_enq: Over flow.\n");
 322:tmk_core/common/action_tapping.c ****         return false;
 323:tmk_core/common/action_tapping.c ****     }
 324:tmk_core/common/action_tapping.c **** 
 325:tmk_core/common/action_tapping.c ****     waiting_buffer[waiting_buffer_head] = record;
 326:tmk_core/common/action_tapping.c ****     waiting_buffer_head = (waiting_buffer_head + 1) % WAITING_BUFFER_SIZE;
 327:tmk_core/common/action_tapping.c **** 
 328:tmk_core/common/action_tapping.c ****     debug("waiting_buffer_enq: "); debug_waiting_buffer();
 329:tmk_core/common/action_tapping.c ****     return true;
 330:tmk_core/common/action_tapping.c **** }
 331:tmk_core/common/action_tapping.c **** 
 332:tmk_core/common/action_tapping.c **** /** \brief Waiting buffer clear
 333:tmk_core/common/action_tapping.c ****  *
 334:tmk_core/common/action_tapping.c ****  * FIXME: Needs docs
 335:tmk_core/common/action_tapping.c ****  */
 336:tmk_core/common/action_tapping.c **** void waiting_buffer_clear(void)
 337:tmk_core/common/action_tapping.c **** {
 338:tmk_core/common/action_tapping.c ****     waiting_buffer_head = 0;
 339:tmk_core/common/action_tapping.c ****     waiting_buffer_tail = 0;
 340:tmk_core/common/action_tapping.c **** }
 341:tmk_core/common/action_tapping.c **** 
 342:tmk_core/common/action_tapping.c **** /** \brief Waiting buffer typed
 343:tmk_core/common/action_tapping.c ****  *
 344:tmk_core/common/action_tapping.c ****  * FIXME: Needs docs
 345:tmk_core/common/action_tapping.c ****  */
 346:tmk_core/common/action_tapping.c **** bool waiting_buffer_typed(keyevent_t event)
 347:tmk_core/common/action_tapping.c **** {
 348:tmk_core/common/action_tapping.c ****     for (uint8_t i = waiting_buffer_tail; i != waiting_buffer_head; i = (i + 1) % WAITING_BUFFER_SI
 349:tmk_core/common/action_tapping.c ****         if (KEYEQ(event.key, waiting_buffer[i].event.key) && event.pressed !=  waiting_buffer[i].ev
 350:tmk_core/common/action_tapping.c ****             return true;
 351:tmk_core/common/action_tapping.c ****         }
 352:tmk_core/common/action_tapping.c ****     }
 353:tmk_core/common/action_tapping.c ****     return false;
 354:tmk_core/common/action_tapping.c **** }
 355:tmk_core/common/action_tapping.c **** 
 356:tmk_core/common/action_tapping.c **** /** \brief Waiting buffer has anykey pressed
 357:tmk_core/common/action_tapping.c ****  *
 358:tmk_core/common/action_tapping.c ****  * FIXME: Needs docs
 359:tmk_core/common/action_tapping.c ****  */
 360:tmk_core/common/action_tapping.c **** __attribute__((unused))
 361:tmk_core/common/action_tapping.c **** bool waiting_buffer_has_anykey_pressed(void)
 362:tmk_core/common/action_tapping.c **** {
 363:tmk_core/common/action_tapping.c ****     for (uint8_t i = waiting_buffer_tail; i != waiting_buffer_head; i = (i + 1) % WAITING_BUFFER_SI
 364:tmk_core/common/action_tapping.c ****         if (waiting_buffer[i].event.pressed) return true;
 365:tmk_core/common/action_tapping.c ****     }
 366:tmk_core/common/action_tapping.c ****     return false;
 367:tmk_core/common/action_tapping.c **** }
 368:tmk_core/common/action_tapping.c **** 
 369:tmk_core/common/action_tapping.c **** /** \brief Scan buffer for tapping
 370:tmk_core/common/action_tapping.c ****  *
 371:tmk_core/common/action_tapping.c ****  * FIXME: Needs docs
 372:tmk_core/common/action_tapping.c ****  */
 373:tmk_core/common/action_tapping.c **** void waiting_buffer_scan_tap(void)
 374:tmk_core/common/action_tapping.c **** {
 375:tmk_core/common/action_tapping.c ****     // tapping already is settled
 376:tmk_core/common/action_tapping.c ****     if (tapping_key.tap.count > 0) return;
 377:tmk_core/common/action_tapping.c ****     // invalid state: tapping_key released && tap.count == 0
 378:tmk_core/common/action_tapping.c ****     if (!tapping_key.event.pressed) return;
 379:tmk_core/common/action_tapping.c **** 
 380:tmk_core/common/action_tapping.c ****     for (uint8_t i = waiting_buffer_tail; i != waiting_buffer_head; i = (i + 1) % WAITING_BUFFER_SI
 381:tmk_core/common/action_tapping.c ****         if (IS_TAPPING_KEY(waiting_buffer[i].event.key) &&
 382:tmk_core/common/action_tapping.c ****                 !waiting_buffer[i].event.pressed &&
 383:tmk_core/common/action_tapping.c ****                 WITHIN_TAPPING_TERM(waiting_buffer[i].event)) {
 384:tmk_core/common/action_tapping.c ****             tapping_key.tap.count = 1;
 385:tmk_core/common/action_tapping.c ****             waiting_buffer[i].tap.count = 1;
 386:tmk_core/common/action_tapping.c ****             process_record(&tapping_key);
 387:tmk_core/common/action_tapping.c **** 
 388:tmk_core/common/action_tapping.c ****             debug("waiting_buffer_scan_tap: found at ["); debug_dec(i); debug("]\n");
 389:tmk_core/common/action_tapping.c ****             debug_waiting_buffer();
 390:tmk_core/common/action_tapping.c ****             return;
 391:tmk_core/common/action_tapping.c ****         }
 392:tmk_core/common/action_tapping.c ****     }
 393:tmk_core/common/action_tapping.c **** }
 394:tmk_core/common/action_tapping.c **** 
 395:tmk_core/common/action_tapping.c **** 
 396:tmk_core/common/action_tapping.c **** /** \brief Tapping key debug print
 397:tmk_core/common/action_tapping.c ****  *
 398:tmk_core/common/action_tapping.c ****  * FIXME: Needs docs
 399:tmk_core/common/action_tapping.c ****  */
 400:tmk_core/common/action_tapping.c **** static void debug_tapping_key(void)
 401:tmk_core/common/action_tapping.c **** {
 402:tmk_core/common/action_tapping.c ****     debug("TAPPING_KEY="); debug_record(tapping_key); debug("\n");
 403:tmk_core/common/action_tapping.c **** }
 404:tmk_core/common/action_tapping.c **** 
 405:tmk_core/common/action_tapping.c **** /** \brief Waiting buffer debug print
 406:tmk_core/common/action_tapping.c ****  *
 407:tmk_core/common/action_tapping.c ****  * FIXME: Needs docs
 408:tmk_core/common/action_tapping.c ****  */
 409:tmk_core/common/action_tapping.c **** static void debug_waiting_buffer(void)
 410:tmk_core/common/action_tapping.c **** {
  15               		.loc 1 410 1 view -0
  16               		.cfi_startproc
  17 0000 1F93      		push r17
  18               	.LCFI0:
  19               		.cfi_def_cfa_offset 3
  20               		.cfi_offset 17, -2
  21 0002 CF93      		push r28
  22               	.LCFI1:
  23               		.cfi_def_cfa_offset 4
  24               		.cfi_offset 28, -3
  25 0004 DF93      		push r29
  26               	.LCFI2:
  27               		.cfi_def_cfa_offset 5
  28               		.cfi_offset 29, -4
  29               	/* prologue: function */
  30               	/* frame size = 0 */
  31               	/* stack size = 3 */
  32               	.L__stack_usage = 3
 411:tmk_core/common/action_tapping.c ****     debug("{ ");
  33               		.loc 1 411 16 view .LVU1
 412:tmk_core/common/action_tapping.c ****     for (uint8_t i = waiting_buffer_tail; i != waiting_buffer_head; i = (i + 1) % WAITING_BUFFER_SI
  34               		.loc 1 412 5 view .LVU2
  35               	.LBB3:
  36               		.loc 1 412 10 view .LVU3
  37               		.loc 1 412 18 is_stmt 0 view .LVU4
  38 0006 C091 0000 		lds r28,waiting_buffer_tail
  39               	.LVL0:
 413:tmk_core/common/action_tapping.c ****         debug("["); debug_dec(i); debug("]="); debug_record(waiting_buffer[i]); debug(" ");
  40               		.loc 1 413 48 view .LVU5
  41 000a 16E0      		ldi r17,lo8(6)
  42               	.LVL1:
  43               	.L2:
 412:tmk_core/common/action_tapping.c ****     for (uint8_t i = waiting_buffer_tail; i != waiting_buffer_head; i = (i + 1) % WAITING_BUFFER_SI
  44               		.loc 1 412 5 discriminator 1 view .LVU6
  45 000c 8091 0000 		lds r24,waiting_buffer_head
  46 0010 8C13      		cpse r24,r28
  47 0012 00C0      		rjmp .L3
  48               	/* epilogue start */
  49               	.LBE3:
 414:tmk_core/common/action_tapping.c ****     }
 415:tmk_core/common/action_tapping.c ****     debug("}\n");
 416:tmk_core/common/action_tapping.c **** }
  50               		.loc 1 416 1 view .LVU7
  51 0014 DF91      		pop r29
  52 0016 CF91      		pop r28
  53               	.LVL2:
  54               		.loc 1 416 1 view .LVU8
  55 0018 1F91      		pop r17
  56 001a 0895      		ret
  57               	.LVL3:
  58               	.L3:
  59               	.LBB4:
 413:tmk_core/common/action_tapping.c ****         debug("["); debug_dec(i); debug("]="); debug_record(waiting_buffer[i]); debug(" ");
  60               		.loc 1 413 19 is_stmt 1 discriminator 3 view .LVU9
 413:tmk_core/common/action_tapping.c ****         debug("["); debug_dec(i); debug("]="); debug_record(waiting_buffer[i]); debug(" ");
  61               		.loc 1 413 33 discriminator 3 view .LVU10
 413:tmk_core/common/action_tapping.c ****         debug("["); debug_dec(i); debug("]="); debug_record(waiting_buffer[i]); debug(" ");
  62               		.loc 1 413 46 discriminator 3 view .LVU11
 413:tmk_core/common/action_tapping.c ****         debug("["); debug_dec(i); debug("]="); debug_record(waiting_buffer[i]); debug(" ");
  63               		.loc 1 413 48 discriminator 3 view .LVU12
  64 001c D0E0      		ldi r29,0
  65 001e 1C9F      		mul r17,r28
  66 0020 F001      		movw r30,r0
  67 0022 1D9F      		mul r17,r29
  68 0024 F00D      		add r31,r0
  69 0026 1124      		clr __zero_reg__
  70 0028 E050      		subi r30,lo8(-(waiting_buffer))
  71 002a F040      		sbci r31,hi8(-(waiting_buffer))
  72 002c 4081      		ld r20,Z
  73 002e 5181      		ldd r21,Z+1
  74 0030 6281      		ldd r22,Z+2
  75 0032 7381      		ldd r23,Z+3
  76 0034 8481      		ldd r24,Z+4
  77 0036 9581      		ldd r25,Z+5
  78 0038 0E94 0000 		call debug_record
  79               	.LVL4:
 413:tmk_core/common/action_tapping.c ****         debug("["); debug_dec(i); debug("]="); debug_record(waiting_buffer[i]); debug(" ");
  80               		.loc 1 413 91 discriminator 3 view .LVU13
 412:tmk_core/common/action_tapping.c ****         debug("["); debug_dec(i); debug("]="); debug_record(waiting_buffer[i]); debug(" ");
  81               		.loc 1 412 76 is_stmt 0 discriminator 3 view .LVU14
  82 003c 2196      		adiw r28,1
  83               	.LVL5:
 412:tmk_core/common/action_tapping.c ****         debug("["); debug_dec(i); debug("]="); debug_record(waiting_buffer[i]); debug(" ");
  84               		.loc 1 412 71 discriminator 3 view .LVU15
  85 003e C770      		andi r28,lo8(7)
 412:tmk_core/common/action_tapping.c ****         debug("["); debug_dec(i); debug("]="); debug_record(waiting_buffer[i]); debug(" ");
  86               		.loc 1 412 71 discriminator 3 view .LVU16
  87 0040 00C0      		rjmp .L2
  88               	.LBE4:
  89               		.cfi_endproc
  90               	.LFE13:
  92               		.section	.text.debug_tapping_key,"ax",@progbits
  94               	debug_tapping_key:
  95               	.LFB12:
 401:tmk_core/common/action_tapping.c ****     debug("TAPPING_KEY="); debug_record(tapping_key); debug("\n");
  96               		.loc 1 401 1 is_stmt 1 view -0
  97               		.cfi_startproc
  98               	/* prologue: function */
  99               	/* frame size = 0 */
 100               	/* stack size = 0 */
 101               	.L__stack_usage = 0
 402:tmk_core/common/action_tapping.c **** }
 102               		.loc 1 402 26 view .LVU18
 402:tmk_core/common/action_tapping.c **** }
 103               		.loc 1 402 28 view .LVU19
 104 0000 4091 0000 		lds r20,tapping_key
 105 0004 5091 0000 		lds r21,tapping_key+1
 106 0008 6091 0000 		lds r22,tapping_key+2
 107 000c 7091 0000 		lds r23,tapping_key+3
 108 0010 8091 0000 		lds r24,tapping_key+4
 109 0014 9091 0000 		lds r25,tapping_key+5
 110 0018 0C94 0000 		jmp debug_record
 111               	.LVL6:
 112               		.cfi_endproc
 113               	.LFE12:
 115               		.section	.text.waiting_buffer_scan_tap,"ax",@progbits
 117               	waiting_buffer_scan_tap:
 118               	.LFB11:
 374:tmk_core/common/action_tapping.c ****     // tapping already is settled
 119               		.loc 1 374 1 view -0
 120               		.cfi_startproc
 121 0000 1F93      		push r17
 122               	.LCFI3:
 123               		.cfi_def_cfa_offset 3
 124               		.cfi_offset 17, -2
 125 0002 CF93      		push r28
 126               	.LCFI4:
 127               		.cfi_def_cfa_offset 4
 128               		.cfi_offset 28, -3
 129 0004 DF93      		push r29
 130               	.LCFI5:
 131               		.cfi_def_cfa_offset 5
 132               		.cfi_offset 29, -4
 133               	/* prologue: function */
 134               	/* frame size = 0 */
 135               	/* stack size = 3 */
 136               	.L__stack_usage = 3
 376:tmk_core/common/action_tapping.c ****     // invalid state: tapping_key released && tap.count == 0
 137               		.loc 1 376 5 view .LVU21
 376:tmk_core/common/action_tapping.c ****     // invalid state: tapping_key released && tap.count == 0
 138               		.loc 1 376 31 is_stmt 0 view .LVU22
 139 0006 8091 0000 		lds r24,tapping_key+5
 140 000a 807F      		andi r24,lo8(-16)
 376:tmk_core/common/action_tapping.c ****     // invalid state: tapping_key released && tap.count == 0
 141               		.loc 1 376 8 view .LVU23
 142 000c 01F4      		brne .L5
 378:tmk_core/common/action_tapping.c **** 
 143               		.loc 1 378 5 is_stmt 1 view .LVU24
 378:tmk_core/common/action_tapping.c **** 
 144               		.loc 1 378 8 is_stmt 0 view .LVU25
 145 000e 8091 0000 		lds r24,tapping_key+2
 146 0012 8823      		tst r24
 147 0014 01F0      		breq .L5
 380:tmk_core/common/action_tapping.c ****         if (IS_TAPPING_KEY(waiting_buffer[i].event.key) &&
 148               		.loc 1 380 5 is_stmt 1 view .LVU26
 149               	.LBB8:
 380:tmk_core/common/action_tapping.c ****         if (IS_TAPPING_KEY(waiting_buffer[i].event.key) &&
 150               		.loc 1 380 10 view .LVU27
 380:tmk_core/common/action_tapping.c ****         if (IS_TAPPING_KEY(waiting_buffer[i].event.key) &&
 151               		.loc 1 380 18 is_stmt 0 view .LVU28
 152 0016 8091 0000 		lds r24,waiting_buffer_tail
 153               	.LVL7:
 380:tmk_core/common/action_tapping.c ****         if (IS_TAPPING_KEY(waiting_buffer[i].event.key) &&
 154               		.loc 1 380 45 view .LVU29
 155 001a C091 0000 		lds r28,waiting_buffer_head
 381:tmk_core/common/action_tapping.c ****                 !waiting_buffer[i].event.pressed &&
 156               		.loc 1 381 13 view .LVU30
 157 001e 6091 0000 		lds r22,tapping_key
 158 0022 7091 0000 		lds r23,tapping_key+1
 159 0026 4091 0000 		lds r20,tapping_key+3
 160 002a 5091 0000 		lds r21,tapping_key+3+1
 161 002e D62F      		mov r29,r22
 162 0030 D723      		and r29,r23
 163 0032 DA01      		movw r26,r20
 164 0034 A095      		com r26
 165 0036 B095      		com r27
 166 0038 16E0      		ldi r17,lo8(6)
 167               	.LVL8:
 168               	.L7:
 380:tmk_core/common/action_tapping.c ****         if (IS_TAPPING_KEY(waiting_buffer[i].event.key) &&
 169               		.loc 1 380 5 discriminator 1 view .LVU31
 170 003a C813      		cpse r28,r24
 171 003c 00C0      		rjmp .L14
 172               	.LVL9:
 173               	.L5:
 174               	/* epilogue start */
 380:tmk_core/common/action_tapping.c ****         if (IS_TAPPING_KEY(waiting_buffer[i].event.key) &&
 175               		.loc 1 380 5 discriminator 1 view .LVU32
 176               	.LBE8:
 393:tmk_core/common/action_tapping.c **** 
 177               		.loc 1 393 1 view .LVU33
 178 003e DF91      		pop r29
 179 0040 CF91      		pop r28
 180 0042 1F91      		pop r17
 181 0044 0895      		ret
 182               	.LVL10:
 183               	.L14:
 184               	.LBB11:
 381:tmk_core/common/action_tapping.c ****                 !waiting_buffer[i].event.pressed &&
 185               		.loc 1 381 9 is_stmt 1 view .LVU34
 186               	.LBB9:
 187               	.LBI9:
 188               		.file 2 "tmk_core/common/keyboard.h"
   1:tmk_core/common/keyboard.h **** /*
   2:tmk_core/common/keyboard.h **** Copyright 2011,2012,2013 Jun Wako <wakojun@gmail.com>
   3:tmk_core/common/keyboard.h **** 
   4:tmk_core/common/keyboard.h **** This program is free software: you can redistribute it and/or modify
   5:tmk_core/common/keyboard.h **** it under the terms of the GNU General Public License as published by
   6:tmk_core/common/keyboard.h **** the Free Software Foundation, either version 2 of the License, or
   7:tmk_core/common/keyboard.h **** (at your option) any later version.
   8:tmk_core/common/keyboard.h **** 
   9:tmk_core/common/keyboard.h **** This program is distributed in the hope that it will be useful,
  10:tmk_core/common/keyboard.h **** but WITHOUT ANY WARRANTY; without even the implied warranty of
  11:tmk_core/common/keyboard.h **** MERCHANTABILITY or FITNESS FOR A PARTICULAR PURPOSE.  See the
  12:tmk_core/common/keyboard.h **** GNU General Public License for more details.
  13:tmk_core/common/keyboard.h **** 
  14:tmk_core/common/keyboard.h **** You should have received a copy of the GNU General Public License
  15:tmk_core/common/keyboard.h **** along with this program.  If not, see <http://www.gnu.org/licenses/>.
  16:tmk_core/common/keyboard.h **** */
  17:tmk_core/common/keyboard.h **** 
  18:tmk_core/common/keyboard.h **** #ifndef KEYBOARD_H
  19:tmk_core/common/keyboard.h **** #define KEYBOARD_H
  20:tmk_core/common/keyboard.h **** 
  21:tmk_core/common/keyboard.h **** #include <stdbool.h>
  22:tmk_core/common/keyboard.h **** #include <stdint.h>
  23:tmk_core/common/keyboard.h **** 
  24:tmk_core/common/keyboard.h **** 
  25:tmk_core/common/keyboard.h **** #ifdef __cplusplus
  26:tmk_core/common/keyboard.h **** extern "C" {
  27:tmk_core/common/keyboard.h **** #endif
  28:tmk_core/common/keyboard.h **** 
  29:tmk_core/common/keyboard.h **** /* key matrix position */
  30:tmk_core/common/keyboard.h **** typedef struct {
  31:tmk_core/common/keyboard.h ****     uint8_t col;
  32:tmk_core/common/keyboard.h ****     uint8_t row;
  33:tmk_core/common/keyboard.h **** } keypos_t;
  34:tmk_core/common/keyboard.h **** 
  35:tmk_core/common/keyboard.h **** /* key event */
  36:tmk_core/common/keyboard.h **** typedef struct {
  37:tmk_core/common/keyboard.h ****     keypos_t key;
  38:tmk_core/common/keyboard.h ****     bool     pressed;
  39:tmk_core/common/keyboard.h ****     uint16_t time;
  40:tmk_core/common/keyboard.h **** } keyevent_t;
  41:tmk_core/common/keyboard.h **** 
  42:tmk_core/common/keyboard.h **** /* equivalent test of keypos_t */
  43:tmk_core/common/keyboard.h **** #define KEYEQ(keya, keyb)       ((keya).row == (keyb).row && (keya).col == (keyb).col)
  44:tmk_core/common/keyboard.h **** 
  45:tmk_core/common/keyboard.h **** /* Rules for No Event:
  46:tmk_core/common/keyboard.h ****  * 1) (time == 0) to handle (keyevent_t){} as empty event
  47:tmk_core/common/keyboard.h ****  * 2) Matrix(255, 255) to make TICK event available
  48:tmk_core/common/keyboard.h ****  */
  49:tmk_core/common/keyboard.h **** static inline bool IS_NOEVENT(keyevent_t event) { return event.time == 0 || (event.key.row == 255 &
 189               		.loc 2 49 20 view .LVU35
 190               	.LBB10:
 191               		.loc 2 49 51 view .LVU36
 192 0046 90E0      		ldi r25,0
 193               		.loc 2 49 74 is_stmt 0 view .LVU37
 194 0048 4115      		cp r20,__zero_reg__
 195 004a 5105      		cpc r21,__zero_reg__
 196 004c 01F0      		breq .L8
 197 004e DF3F      		cpi r29,lo8(-1)
 198 0050 01F4      		brne .L27
 199               	.L8:
 200               	.LBE10:
 201               	.LBE9:
 380:tmk_core/common/action_tapping.c ****         if (IS_TAPPING_KEY(waiting_buffer[i].event.key) &&
 202               		.loc 1 380 76 discriminator 2 view .LVU38
 203 0052 0196      		adiw r24,1
 204               	.LVL11:
 380:tmk_core/common/action_tapping.c ****         if (IS_TAPPING_KEY(waiting_buffer[i].event.key) &&
 205               		.loc 1 380 71 discriminator 2 view .LVU39
 206 0054 8770      		andi r24,lo8(7)
 380:tmk_core/common/action_tapping.c ****         if (IS_TAPPING_KEY(waiting_buffer[i].event.key) &&
 207               		.loc 1 380 71 discriminator 2 view .LVU40
 208 0056 00C0      		rjmp .L7
 209               	.LVL12:
 210               	.L10:
 383:tmk_core/common/action_tapping.c ****             tapping_key.tap.count = 1;
 211               		.loc 1 383 17 discriminator 2 view .LVU41
 212 0058 2A0F      		add r18,r26
 213 005a 3B1F      		adc r19,r27
 214 005c 00C0      		rjmp .L28
 215               	.L27:
 381:tmk_core/common/action_tapping.c ****                 !waiting_buffer[i].event.pressed &&
 216               		.loc 1 381 13 view .LVU42
 217 005e 189F      		mul r17,r24
 218 0060 F001      		movw r30,r0
 219 0062 199F      		mul r17,r25
 220 0064 F00D      		add r31,r0
 221 0066 1124      		clr __zero_reg__
 222 0068 E050      		subi r30,lo8(-(waiting_buffer))
 223 006a F040      		sbci r31,hi8(-(waiting_buffer))
 224 006c 2181      		ldd r18,Z+1
 225 006e 2713      		cpse r18,r23
 226 0070 00C0      		rjmp .L8
 381:tmk_core/common/action_tapping.c ****                 !waiting_buffer[i].event.pressed &&
 227               		.loc 1 381 13 discriminator 2 view .LVU43
 228 0072 2081      		ld r18,Z
 229 0074 2613      		cpse r18,r22
 230 0076 00C0      		rjmp .L8
 381:tmk_core/common/action_tapping.c ****                 !waiting_buffer[i].event.pressed &&
 231               		.loc 1 381 57 discriminator 3 view .LVU44
 232 0078 2281      		ldd r18,Z+2
 233 007a 2111      		cpse r18,__zero_reg__
 234 007c 00C0      		rjmp .L8
 383:tmk_core/common/action_tapping.c ****             tapping_key.tap.count = 1;
 235               		.loc 1 383 17 view .LVU45
 236 007e 2381      		ldd r18,Z+3
 237 0080 3481      		ldd r19,Z+4
 238 0082 2417      		cp r18,r20
 239 0084 3507      		cpc r19,r21
 240 0086 00F0      		brlo .L10
 383:tmk_core/common/action_tapping.c ****             tapping_key.tap.count = 1;
 241               		.loc 1 383 17 discriminator 1 view .LVU46
 242 0088 241B      		sub r18,r20
 243 008a 350B      		sbc r19,r21
 244               	.L28:
 383:tmk_core/common/action_tapping.c ****             tapping_key.tap.count = 1;
 245               		.loc 1 383 17 discriminator 2 view .LVU47
 246 008c 283C      		cpi r18,-56
 247 008e 3105      		cpc r19,__zero_reg__
 248 0090 00F4      		brsh .L8
 384:tmk_core/common/action_tapping.c ****             waiting_buffer[i].tap.count = 1;
 249               		.loc 1 384 13 is_stmt 1 view .LVU48
 384:tmk_core/common/action_tapping.c ****             waiting_buffer[i].tap.count = 1;
 250               		.loc 1 384 35 is_stmt 0 view .LVU49
 251 0092 2091 0000 		lds r18,tapping_key+5
 252 0096 2F70      		andi r18,lo8(15)
 253 0098 2061      		ori r18,lo8(16)
 254 009a 2093 0000 		sts tapping_key+5,r18
 385:tmk_core/common/action_tapping.c ****             process_record(&tapping_key);
 255               		.loc 1 385 13 is_stmt 1 view .LVU50
 385:tmk_core/common/action_tapping.c ****             process_record(&tapping_key);
 256               		.loc 1 385 41 is_stmt 0 view .LVU51
 257 009e 26E0      		ldi r18,lo8(6)
 258 00a0 289F      		mul r18,r24
 259 00a2 F001      		movw r30,r0
 260 00a4 299F      		mul r18,r25
 261 00a6 F00D      		add r31,r0
 262 00a8 1124      		clr __zero_reg__
 263 00aa E050      		subi r30,lo8(-(waiting_buffer+5))
 264 00ac F040      		sbci r31,hi8(-(waiting_buffer+5))
 265 00ae 8081      		ld r24,Z
 266               	.LVL13:
 385:tmk_core/common/action_tapping.c ****             process_record(&tapping_key);
 267               		.loc 1 385 41 view .LVU52
 268 00b0 8F70      		andi r24,lo8(15)
 269 00b2 8061      		ori r24,lo8(16)
 270 00b4 8083      		st Z,r24
 386:tmk_core/common/action_tapping.c **** 
 271               		.loc 1 386 13 is_stmt 1 view .LVU53
 272 00b6 80E0      		ldi r24,lo8(tapping_key)
 273 00b8 90E0      		ldi r25,hi8(tapping_key)
 274 00ba 0E94 0000 		call process_record
 275               	.LVL14:
 388:tmk_core/common/action_tapping.c ****             debug_waiting_buffer();
 276               		.loc 1 388 57 view .LVU54
 388:tmk_core/common/action_tapping.c ****             debug_waiting_buffer();
 277               		.loc 1 388 71 view .LVU55
 388:tmk_core/common/action_tapping.c ****             debug_waiting_buffer();
 278               		.loc 1 388 85 view .LVU56
 389:tmk_core/common/action_tapping.c ****             return;
 279               		.loc 1 389 13 view .LVU57
 280               	/* epilogue start */
 281               	.LBE11:
 393:tmk_core/common/action_tapping.c **** 
 282               		.loc 1 393 1 is_stmt 0 view .LVU58
 283 00be DF91      		pop r29
 284 00c0 CF91      		pop r28
 285 00c2 1F91      		pop r17
 286               	.LBB12:
 389:tmk_core/common/action_tapping.c ****             return;
 287               		.loc 1 389 13 view .LVU59
 288 00c4 0C94 0000 		jmp debug_waiting_buffer
 289               	.LVL15:
 290               	.LBE12:
 291               		.cfi_endproc
 292               	.LFE11:
 294               		.section	.text.process_tapping,"ax",@progbits
 296               	process_tapping:
 297               	.LVL16:
 298               	.LFB6:
  93:tmk_core/common/action_tapping.c ****     keyevent_t event = keyp->event;
 299               		.loc 1 93 1 is_stmt 1 view -0
 300               		.cfi_startproc
  93:tmk_core/common/action_tapping.c ****     keyevent_t event = keyp->event;
 301               		.loc 1 93 1 is_stmt 0 view .LVU61
 302 0000 BF92      		push r11
 303               	.LCFI6:
 304               		.cfi_def_cfa_offset 3
 305               		.cfi_offset 11, -2
 306 0002 CF92      		push r12
 307               	.LCFI7:
 308               		.cfi_def_cfa_offset 4
 309               		.cfi_offset 12, -3
 310 0004 DF92      		push r13
 311               	.LCFI8:
 312               		.cfi_def_cfa_offset 5
 313               		.cfi_offset 13, -4
 314 0006 EF92      		push r14
 315               	.LCFI9:
 316               		.cfi_def_cfa_offset 6
 317               		.cfi_offset 14, -5
 318 0008 FF92      		push r15
 319               	.LCFI10:
 320               		.cfi_def_cfa_offset 7
 321               		.cfi_offset 15, -6
 322 000a 0F93      		push r16
 323               	.LCFI11:
 324               		.cfi_def_cfa_offset 8
 325               		.cfi_offset 16, -7
 326 000c 1F93      		push r17
 327               	.LCFI12:
 328               		.cfi_def_cfa_offset 9
 329               		.cfi_offset 17, -8
 330 000e CF93      		push r28
 331               	.LCFI13:
 332               		.cfi_def_cfa_offset 10
 333               		.cfi_offset 28, -9
 334 0010 DF93      		push r29
 335               	.LCFI14:
 336               		.cfi_def_cfa_offset 11
 337               		.cfi_offset 29, -10
 338 0012 CDB7      		in r28,__SP_L__
 339 0014 DEB7      		in r29,__SP_H__
 340               	.LCFI15:
 341               		.cfi_def_cfa_register 28
 342 0016 6197      		sbiw r28,17
 343               	.LCFI16:
 344               		.cfi_def_cfa_offset 28
 345 0018 0FB6      		in __tmp_reg__,__SREG__
 346 001a F894      		cli
 347 001c DEBF      		out __SP_H__,r29
 348 001e 0FBE      		out __SREG__,__tmp_reg__
 349 0020 CDBF      		out __SP_L__,r28
 350               	/* prologue: function */
 351               	/* frame size = 17 */
 352               	/* stack size = 26 */
 353               	.L__stack_usage = 26
 354 0022 8C01      		movw r16,r24
  94:tmk_core/common/action_tapping.c **** 
 355               		.loc 1 94 5 is_stmt 1 view .LVU62
  94:tmk_core/common/action_tapping.c **** 
 356               		.loc 1 94 16 is_stmt 0 view .LVU63
 357 0024 85E0      		ldi r24,lo8(5)
 358               	.LVL17:
  94:tmk_core/common/action_tapping.c **** 
 359               		.loc 1 94 16 view .LVU64
 360 0026 F801      		movw r30,r16
 361 0028 DE01      		movw r26,r28
 362 002a 1D96      		adiw r26,13
 363               		0:
 364 002c 0190      		ld r0,Z+
 365 002e 0D92      		st X+,r0
 366 0030 8A95      		dec r24
 367 0032 01F4      		brne 0b
 368 0034 D801      		movw r26,r16
 369 0036 4C91      		ld r20,X
 370               	.LVL18:
  94:tmk_core/common/action_tapping.c **** 
 371               		.loc 1 94 16 view .LVU65
 372 0038 1196      		adiw r26,1
 373 003a 5C91      		ld r21,X
 374 003c 1197      		sbiw r26,1
 375               	.LVL19:
  94:tmk_core/common/action_tapping.c **** 
 376               		.loc 1 94 16 view .LVU66
 377 003e 1296      		adiw r26,2
 378 0040 EC90      		ld r14,X
 379 0042 1297      		sbiw r26,2
 380               	.LVL20:
  97:tmk_core/common/action_tapping.c ****         if (WITHIN_TAPPING_TERM(event)) {
 381               		.loc 1 97 5 is_stmt 1 view .LVU67
  97:tmk_core/common/action_tapping.c ****         if (WITHIN_TAPPING_TERM(event)) {
 382               		.loc 1 97 9 is_stmt 0 view .LVU68
 383 0044 8091 0000 		lds r24,tapping_key+3
 384 0048 9091 0000 		lds r25,tapping_key+3+1
 385               	.LBB23:
 386               	.LBI23:
 387               		.loc 2 49 20 is_stmt 1 view .LVU69
 388               	.LBB24:
 389               		.loc 2 49 51 view .LVU70
 390               		.loc 2 49 74 is_stmt 0 view .LVU71
 391 004c 0097      		sbiw r24,0
 392 004e 01F4      		brne .+2
 393 0050 00C0      		rjmp .L30
 394               	.LBE24:
 395               	.LBE23:
  97:tmk_core/common/action_tapping.c ****         if (WITHIN_TAPPING_TERM(event)) {
 396               		.loc 1 97 9 view .LVU72
 397 0052 2091 0000 		lds r18,tapping_key
 398 0056 3091 0000 		lds r19,tapping_key+1
 399               	.LBB26:
 400               	.LBB25:
 401               		.loc 2 49 74 view .LVU73
 402 005a 622F      		mov r22,r18
 403 005c 6323      		and r22,r19
 404 005e 6F3F      		cpi r22,lo8(-1)
 405 0060 01F4      		brne .+2
 406 0062 00C0      		rjmp .L30
 407               	.LBE25:
 408               	.LBE26:
  94:tmk_core/common/action_tapping.c **** 
 409               		.loc 1 94 16 discriminator 1 view .LVU74
 410 0064 1396      		adiw r26,3
 411 0066 CD90      		ld r12,X+
 412 0068 DC90      		ld r13,X
  97:tmk_core/common/action_tapping.c ****         if (WITHIN_TAPPING_TERM(event)) {
 413               		.loc 1 97 9 discriminator 1 view .LVU75
 414 006a B090 0000 		lds r11,tapping_key+2
 415 006e BB20      		tst r11
 416 0070 01F4      		brne .+2
 417 0072 00C0      		rjmp .L31
  98:tmk_core/common/action_tapping.c ****             if (tapping_key.tap.count == 0) {
 418               		.loc 1 98 9 is_stmt 1 view .LVU76
  98:tmk_core/common/action_tapping.c ****             if (tapping_key.tap.count == 0) {
 419               		.loc 1 98 13 is_stmt 0 view .LVU77
 420 0074 C816      		cp r12,r24
 421 0076 D906      		cpc r13,r25
 422 0078 00F0      		brlo .L32
  98:tmk_core/common/action_tapping.c ****             if (tapping_key.tap.count == 0) {
 423               		.loc 1 98 13 discriminator 1 view .LVU78
 424 007a F601      		movw r30,r12
 425 007c E81B      		sub r30,r24
 426 007e F90B      		sbc r31,r25
 427 0080 CF01      		movw r24,r30
 428               	.L123:
  98:tmk_core/common/action_tapping.c ****             if (tapping_key.tap.count == 0) {
 429               		.loc 1 98 13 discriminator 2 view .LVU79
 430 0082 FF24      		clr r15
 431 0084 F394      		inc r15
 432 0086 883C      		cpi r24,-56
 433 0088 9105      		cpc r25,__zero_reg__
 434 008a 00F0      		brlo .L34
 435 008c F12C      		mov r15,__zero_reg__
 436               	.L34:
 437 008e 8091 0000 		lds r24,tapping_key+5
 438 0092 982F      		mov r25,r24
 439 0094 907F      		andi r25,lo8(-16)
  98:tmk_core/common/action_tapping.c ****             if (tapping_key.tap.count == 0) {
 440               		.loc 1 98 12 discriminator 4 view .LVU80
 441 0096 FF20      		tst r15
 442 0098 01F4      		brne .+2
 443 009a 00C0      		rjmp .L36
  99:tmk_core/common/action_tapping.c ****                 if (IS_TAPPING_KEY(event.key) && !event.pressed) {
 444               		.loc 1 99 13 is_stmt 1 view .LVU81
  99:tmk_core/common/action_tapping.c ****                 if (IS_TAPPING_KEY(event.key) && !event.pressed) {
 445               		.loc 1 99 16 is_stmt 0 view .LVU82
 446 009c 9111      		cpse r25,__zero_reg__
 447 009e 00C0      		rjmp .L37
 100:tmk_core/common/action_tapping.c ****                     // first tap!
 448               		.loc 1 100 17 is_stmt 1 discriminator 1 view .LVU83
 449 00a0 FE2C      		mov r15,r14
 100:tmk_core/common/action_tapping.c ****                     // first tap!
 450               		.loc 1 100 21 is_stmt 0 discriminator 1 view .LVU84
 451 00a2 3513      		cpse r19,r21
 452 00a4 00C0      		rjmp .L38
 100:tmk_core/common/action_tapping.c ****                     // first tap!
 453               		.loc 1 100 21 discriminator 2 view .LVU85
 454 00a6 2413      		cpse r18,r20
 455 00a8 00C0      		rjmp .L38
 100:tmk_core/common/action_tapping.c ****                     // first tap!
 456               		.loc 1 100 47 discriminator 3 view .LVU86
 457 00aa E110      		cpse r14,__zero_reg__
 458 00ac 00C0      		rjmp .L38
 102:tmk_core/common/action_tapping.c ****                     tapping_key.tap.count = 1;
 459               		.loc 1 102 57 is_stmt 1 view .LVU87
 103:tmk_core/common/action_tapping.c ****                     debug_tapping_key();
 460               		.loc 1 103 21 view .LVU88
 103:tmk_core/common/action_tapping.c ****                     debug_tapping_key();
 461               		.loc 1 103 43 is_stmt 0 view .LVU89
 462 00ae 8F70      		andi r24,lo8(15)
 463 00b0 8061      		ori r24,lo8(16)
 464 00b2 8093 0000 		sts tapping_key+5,r24
 465               	.LVL21:
 104:tmk_core/common/action_tapping.c ****                     process_record(&tapping_key);
 466               		.loc 1 104 21 is_stmt 1 view .LVU90
 467 00b6 0E94 0000 		call debug_tapping_key
 468               	.LVL22:
 105:tmk_core/common/action_tapping.c **** 
 469               		.loc 1 105 21 view .LVU91
 470 00ba 80E0      		ldi r24,lo8(tapping_key)
 471 00bc 90E0      		ldi r25,hi8(tapping_key)
 472 00be 0E94 0000 		call process_record
 473               	.LVL23:
 108:tmk_core/common/action_tapping.c ****                     // enqueue
 474               		.loc 1 108 21 view .LVU92
 108:tmk_core/common/action_tapping.c ****                     // enqueue
 475               		.loc 1 108 31 is_stmt 0 view .LVU93
 476 00c2 8091 0000 		lds r24,tapping_key+5
 477 00c6 D801      		movw r26,r16
 478 00c8 1596      		adiw r26,5
 479 00ca 8C93      		st X,r24
 110:tmk_core/common/action_tapping.c ****                 }
 480               		.loc 1 110 21 is_stmt 1 view .LVU94
 481               	.LVL24:
 482               	.L29:
 307:tmk_core/common/action_tapping.c **** 
 483               		.loc 1 307 1 is_stmt 0 view .LVU95
 484 00cc 8F2D      		mov r24,r15
 485               	/* epilogue start */
 307:tmk_core/common/action_tapping.c **** 
 486               		.loc 1 307 1 view .LVU96
 487 00ce 6196      		adiw r28,17
 488 00d0 0FB6      		in __tmp_reg__,__SREG__
 489 00d2 F894      		cli
 490 00d4 DEBF      		out __SP_H__,r29
 491 00d6 0FBE      		out __SREG__,__tmp_reg__
 492 00d8 CDBF      		out __SP_L__,r28
 493 00da DF91      		pop r29
 494 00dc CF91      		pop r28
 495 00de 1F91      		pop r17
 496 00e0 0F91      		pop r16
 497               	.LVL25:
 307:tmk_core/common/action_tapping.c **** 
 498               		.loc 1 307 1 view .LVU97
 499 00e2 FF90      		pop r15
 500 00e4 EF90      		pop r14
 501               	.LVL26:
 307:tmk_core/common/action_tapping.c **** 
 502               		.loc 1 307 1 view .LVU98
 503 00e6 DF90      		pop r13
 504 00e8 CF90      		pop r12
 505 00ea BF90      		pop r11
 506 00ec 0895      		ret
 507               	.LVL27:
 508               	.L32:
  98:tmk_core/common/action_tapping.c ****             if (tapping_key.tap.count == 0) {
 509               		.loc 1 98 13 discriminator 2 view .LVU99
 510 00ee 8095      		com r24
 511 00f0 9095      		com r25
 512 00f2 8C0D      		add r24,r12
 513 00f4 9D1D      		adc r25,r13
 514 00f6 00C0      		rjmp .L123
 515               	.L38:
 135:tmk_core/common/action_tapping.c ****                     // Modifier should be retained till end of this tapping.
 516               		.loc 1 135 22 is_stmt 1 view .LVU100
 517               	.LVL28:
 518               	.LBB27:
 519               	.LBI27:
  50:tmk_core/common/keyboard.h **** static inline bool IS_PRESSED(keyevent_t event) { return (!IS_NOEVENT(event) && event.pressed); }
  51:tmk_core/common/keyboard.h **** static inline bool IS_RELEASED(keyevent_t event) { return (!IS_NOEVENT(event) && !event.pressed); }
 520               		.loc 2 51 20 view .LVU101
 521               	.LBB28:
 522               		.loc 2 51 52 view .LVU102
 523               	.LBB29:
 524               	.LBI29:
  49:tmk_core/common/keyboard.h **** static inline bool IS_PRESSED(keyevent_t event) { return (!IS_NOEVENT(event) && event.pressed); }
 525               		.loc 2 49 20 view .LVU103
 526               	.LBB30:
  49:tmk_core/common/keyboard.h **** static inline bool IS_PRESSED(keyevent_t event) { return (!IS_NOEVENT(event) && event.pressed); }
 527               		.loc 2 49 51 view .LVU104
  49:tmk_core/common/keyboard.h **** static inline bool IS_PRESSED(keyevent_t event) { return (!IS_NOEVENT(event) && event.pressed); }
 528               		.loc 2 49 74 is_stmt 0 view .LVU105
 529 00f8 CD28      		or r12,r13
 530 00fa 01F0      		breq .L69
 531 00fc 852F      		mov r24,r21
 532 00fe 8423      		and r24,r20
 533 0100 8F3F      		cpi r24,lo8(-1)
 534 0102 01F0      		breq .+2
 535 0104 00C0      		rjmp .L41
 536               	.L69:
  49:tmk_core/common/keyboard.h **** static inline bool IS_PRESSED(keyevent_t event) { return (!IS_NOEVENT(event) && event.pressed); }
 537               		.loc 2 49 74 view .LVU106
 538               	.LBE30:
 539               	.LBE29:
 540               		.loc 2 51 79 view .LVU107
 541 0106 80E0      		ldi r24,0
 542               	.L40:
 543               	.LVL29:
 544               		.loc 2 51 79 view .LVU108
 545               	.LBE28:
 546               	.LBE27:
 135:tmk_core/common/action_tapping.c ****                     // Modifier should be retained till end of this tapping.
 547               		.loc 1 135 25 view .LVU109
 548 0108 B82F      		mov r27,r24
 549 010a B170      		andi r27,lo8(1)
 550 010c DB2E      		mov r13,r27
 551 010e 80FF      		sbrs r24,0
 552 0110 00C0      		rjmp .L42
 553               	.LBB32:
 554               	.LBI32:
 346:tmk_core/common/action_tapping.c **** {
 555               		.loc 1 346 6 is_stmt 1 discriminator 1 view .LVU110
 556               	.LBE32:
 348:tmk_core/common/action_tapping.c ****         if (KEYEQ(event.key, waiting_buffer[i].event.key) && event.pressed !=  waiting_buffer[i].ev
 557               		.loc 1 348 5 discriminator 1 view .LVU111
 558               	.LBB35:
 559               	.LBB33:
 348:tmk_core/common/action_tapping.c ****         if (KEYEQ(event.key, waiting_buffer[i].event.key) && event.pressed !=  waiting_buffer[i].ev
 560               		.loc 1 348 10 discriminator 1 view .LVU112
 348:tmk_core/common/action_tapping.c ****         if (KEYEQ(event.key, waiting_buffer[i].event.key) && event.pressed !=  waiting_buffer[i].ev
 561               		.loc 1 348 18 is_stmt 0 discriminator 1 view .LVU113
 562 0112 8091 0000 		lds r24,waiting_buffer_tail
 563               	.LVL30:
 348:tmk_core/common/action_tapping.c ****         if (KEYEQ(event.key, waiting_buffer[i].event.key) && event.pressed !=  waiting_buffer[i].ev
 564               		.loc 1 348 45 discriminator 1 view .LVU114
 565 0116 2091 0000 		lds r18,waiting_buffer_head
 349:tmk_core/common/action_tapping.c ****             return true;
 566               		.loc 1 349 13 discriminator 1 view .LVU115
 567 011a 36E0      		ldi r19,lo8(6)
 568               	.LVL31:
 569               	.L43:
 348:tmk_core/common/action_tapping.c ****         if (KEYEQ(event.key, waiting_buffer[i].event.key) && event.pressed !=  waiting_buffer[i].ev
 570               		.loc 1 348 5 view .LVU116
 571 011c 8213      		cpse r24,r18
 572 011e 00C0      		rjmp .L45
 573               	.LVL32:
 348:tmk_core/common/action_tapping.c ****         if (KEYEQ(event.key, waiting_buffer[i].event.key) && event.pressed !=  waiting_buffer[i].ev
 574               		.loc 1 348 5 view .LVU117
 575               	.LBE33:
 576               	.LBE35:
 577               	.LBB36:
 137:tmk_core/common/action_tapping.c ****                     switch (action.kind.id) {
 578               		.loc 1 137 21 is_stmt 1 view .LVU118
 137:tmk_core/common/action_tapping.c ****                     switch (action.kind.id) {
 579               		.loc 1 137 39 is_stmt 0 view .LVU119
 580 0120 4D87      		std Y+13,r20
 581 0122 5E87      		std Y+14,r21
 582 0124 8D85      		ldd r24,Y+13
 583 0126 9E85      		ldd r25,Y+14
 584 0128 0E94 0000 		call layer_switch_get_action
 585               	.LVL33:
 138:tmk_core/common/action_tapping.c ****                         case ACT_LMODS:
 586               		.loc 1 138 21 is_stmt 1 view .LVU120
 138:tmk_core/common/action_tapping.c ****                         case ACT_LMODS:
 587               		.loc 1 138 40 is_stmt 0 view .LVU121
 588 012c 292F      		mov r18,r25
 589 012e 2295      		swap r18
 590 0130 2F70      		andi r18,lo8(15)
 138:tmk_core/common/action_tapping.c ****                         case ACT_LMODS:
 591               		.loc 1 138 21 view .LVU122
 592 0132 2230      		cpi r18,lo8(2)
 593 0134 00F0      		brlo .L67
 138:tmk_core/common/action_tapping.c ****                         case ACT_LMODS:
 594               		.loc 1 138 21 view .LVU123
 595 0136 2430      		cpi r18,lo8(4)
 596 0138 00F4      		brsh .L49
 146:tmk_core/common/action_tapping.c ****                             if (IS_MOD(action.key.code)) return false;
 597               		.loc 1 146 29 is_stmt 1 view .LVU124
 146:tmk_core/common/action_tapping.c ****                             if (IS_MOD(action.key.code)) return false;
 598               		.loc 1 146 33 is_stmt 0 view .LVU125
 599 013a 9F70      		andi r25,lo8(15)
 600               	.LVL34:
 146:tmk_core/common/action_tapping.c ****                             if (IS_MOD(action.key.code)) return false;
 601               		.loc 1 146 32 view .LVU126
 602 013c 01F0      		breq .L50
 146:tmk_core/common/action_tapping.c ****                             if (IS_MOD(action.key.code)) return false;
 603               		.loc 1 146 68 discriminator 1 view .LVU127
 604 013e F801      		movw r30,r16
 605 0140 9581      		ldd r25,Z+5
 606 0142 907F      		andi r25,lo8(-16)
 146:tmk_core/common/action_tapping.c ****                             if (IS_MOD(action.key.code)) return false;
 607               		.loc 1 146 49 discriminator 1 view .LVU128
 608 0144 01F4      		brne .L50
 609               	.LVL35:
 610               	.L73:
 141:tmk_core/common/action_tapping.c ****                             if (IS_MOD(action.key.code)) return false;
 611               		.loc 1 141 77 view .LVU129
 612 0146 D12C      		mov r13,__zero_reg__
 613 0148 00C0      		rjmp .L48
 614               	.LVL36:
 615               	.L45:
 141:tmk_core/common/action_tapping.c ****                             if (IS_MOD(action.key.code)) return false;
 616               		.loc 1 141 77 view .LVU130
 617               	.LBE36:
 618               	.LBB37:
 619               	.LBB34:
 349:tmk_core/common/action_tapping.c ****             return true;
 620               		.loc 1 349 9 is_stmt 1 view .LVU131
 349:tmk_core/common/action_tapping.c ****             return true;
 621               		.loc 1 349 13 is_stmt 0 view .LVU132
 622 014a 90E0      		ldi r25,0
 623 014c 389F      		mul r19,r24
 624 014e F001      		movw r30,r0
 625 0150 399F      		mul r19,r25
 626 0152 F00D      		add r31,r0
 627 0154 1124      		clr __zero_reg__
 628 0156 E050      		subi r30,lo8(-(waiting_buffer))
 629 0158 F040      		sbci r31,hi8(-(waiting_buffer))
 349:tmk_core/common/action_tapping.c ****             return true;
 630               		.loc 1 349 12 view .LVU133
 631 015a 6181      		ldd r22,Z+1
 632 015c 6513      		cpse r22,r21
 633 015e 00C0      		rjmp .L44
 349:tmk_core/common/action_tapping.c ****             return true;
 634               		.loc 1 349 13 view .LVU134
 635 0160 6081      		ld r22,Z
 636 0162 6413      		cpse r22,r20
 637 0164 00C0      		rjmp .L44
 349:tmk_core/common/action_tapping.c ****             return true;
 638               		.loc 1 349 59 view .LVU135
 639 0166 6281      		ldd r22,Z+2
 640 0168 E612      		cpse r14,r22
 641 016a 00C0      		rjmp .L42
 642               	.L44:
 348:tmk_core/common/action_tapping.c ****         if (KEYEQ(event.key, waiting_buffer[i].event.key) && event.pressed !=  waiting_buffer[i].ev
 643               		.loc 1 348 76 view .LVU136
 644 016c 0196      		adiw r24,1
 645               	.LVL37:
 348:tmk_core/common/action_tapping.c ****         if (KEYEQ(event.key, waiting_buffer[i].event.key) && event.pressed !=  waiting_buffer[i].ev
 646               		.loc 1 348 71 view .LVU137
 647 016e 8770      		andi r24,lo8(7)
 348:tmk_core/common/action_tapping.c ****         if (KEYEQ(event.key, waiting_buffer[i].event.key) && event.pressed !=  waiting_buffer[i].ev
 648               		.loc 1 348 71 view .LVU138
 649 0170 00C0      		rjmp .L43
 650               	.LVL38:
 651               	.L67:
 348:tmk_core/common/action_tapping.c ****         if (KEYEQ(event.key, waiting_buffer[i].event.key) && event.pressed !=  waiting_buffer[i].ev
 652               		.loc 1 348 71 view .LVU139
 653               	.LBE34:
 654               	.LBE37:
 655               	.LBB38:
 141:tmk_core/common/action_tapping.c ****                             if (IS_MOD(action.key.code)) return false;
 656               		.loc 1 141 29 is_stmt 1 view .LVU140
 141:tmk_core/common/action_tapping.c ****                             if (IS_MOD(action.key.code)) return false;
 657               		.loc 1 141 33 is_stmt 0 view .LVU141
 658 0172 9F70      		andi r25,lo8(15)
 659               	.LVL39:
 141:tmk_core/common/action_tapping.c ****                             if (IS_MOD(action.key.code)) return false;
 660               		.loc 1 141 32 view .LVU142
 661 0174 01F0      		breq .L50
 141:tmk_core/common/action_tapping.c ****                             if (IS_MOD(action.key.code)) return false;
 662               		.loc 1 141 49 discriminator 1 view .LVU143
 663 0176 8823      		tst r24
 664 0178 01F0      		breq .L73
 665               	.L50:
 147:tmk_core/common/action_tapping.c ****                             break;
 666               		.loc 1 147 29 is_stmt 1 view .LVU144
 147:tmk_core/common/action_tapping.c ****                             break;
 667               		.loc 1 147 33 is_stmt 0 view .LVU145
 668 017a 805E      		subi r24,lo8(-(32))
 669               	.LVL40:
 147:tmk_core/common/action_tapping.c ****                             break;
 670               		.loc 1 147 32 view .LVU146
 671 017c 8830      		cpi r24,lo8(8)
 672 017e 00F0      		brlo .L73
 673               	.LVL41:
 674               	.L49:
 151:tmk_core/common/action_tapping.c ****                     process_record(keyp);
 675               		.loc 1 151 86 is_stmt 1 view .LVU147
 152:tmk_core/common/action_tapping.c ****                     return true;
 676               		.loc 1 152 21 view .LVU148
 677 0180 C801      		movw r24,r16
 678               	.LVL42:
 152:tmk_core/common/action_tapping.c ****                     return true;
 679               		.loc 1 152 21 is_stmt 0 view .LVU149
 680 0182 0E94 0000 		call process_record
 681               	.LVL43:
 153:tmk_core/common/action_tapping.c ****                 }
 682               		.loc 1 153 21 is_stmt 1 view .LVU150
 683               	.L48:
 153:tmk_core/common/action_tapping.c ****                 }
 684               		.loc 1 153 21 is_stmt 0 view .LVU151
 685 0186 FD2C      		mov r15,r13
 686 0188 00C0      		rjmp .L29
 687               	.LVL44:
 688               	.L42:
 153:tmk_core/common/action_tapping.c ****                 }
 689               		.loc 1 153 21 view .LVU152
 690               	.LBE38:
 157:tmk_core/common/action_tapping.c ****                         tapping_key.tap.interrupted = true;
 691               		.loc 1 157 21 is_stmt 1 view .LVU153
 157:tmk_core/common/action_tapping.c ****                         tapping_key.tap.interrupted = true;
 692               		.loc 1 157 24 is_stmt 0 view .LVU154
 693 018a EE20      		tst r14
 694 018c 01F4      		brne .+2
 695 018e 00C0      		rjmp .L29
 158:tmk_core/common/action_tapping.c ****                     }
 696               		.loc 1 158 25 is_stmt 1 view .LVU155
 158:tmk_core/common/action_tapping.c ****                     }
 697               		.loc 1 158 53 is_stmt 0 view .LVU156
 698 0190 8091 0000 		lds r24,tapping_key+5
 699 0194 8160      		ori r24,lo8(1<<0)
 700 0196 8093 0000 		sts tapping_key+5,r24
 161:tmk_core/common/action_tapping.c ****                 }
 701               		.loc 1 161 28 view .LVU157
 702 019a F12C      		mov r15,__zero_reg__
 703 019c 00C0      		rjmp .L29
 704               	.LVL45:
 705               	.L37:
 166:tmk_core/common/action_tapping.c ****                     debug("Tapping: Tap release("); debug_dec(tapping_key.tap.count); debug(")\n");
 706               		.loc 1 166 17 is_stmt 1 discriminator 1 view .LVU158
 166:tmk_core/common/action_tapping.c ****                     debug("Tapping: Tap release("); debug_dec(tapping_key.tap.count); debug(")\n");
 707               		.loc 1 166 21 is_stmt 0 discriminator 1 view .LVU159
 708 019e 3513      		cpse r19,r21
 709 01a0 00C0      		rjmp .L51
 166:tmk_core/common/action_tapping.c ****                     debug("Tapping: Tap release("); debug_dec(tapping_key.tap.count); debug(")\n");
 710               		.loc 1 166 21 discriminator 2 view .LVU160
 711 01a2 2413      		cpse r18,r20
 712 01a4 00C0      		rjmp .L51
 168:tmk_core/common/action_tapping.c ****                     process_record(keyp);
 713               		.loc 1 168 31 discriminator 3 view .LVU161
 714 01a6 D801      		movw r26,r16
 166:tmk_core/common/action_tapping.c ****                     debug("Tapping: Tap release("); debug_dec(tapping_key.tap.count); debug(")\n");
 715               		.loc 1 166 47 discriminator 3 view .LVU162
 716 01a8 EE20      		tst r14
 717 01aa 01F4      		brne .+2
 718 01ac 00C0      		rjmp .L130
 719               	.L51:
 174:tmk_core/common/action_tapping.c ****                     if (tapping_key.tap.count > 1) {
 720               		.loc 1 174 22 is_stmt 1 view .LVU163
 174:tmk_core/common/action_tapping.c ****                     if (tapping_key.tap.count > 1) {
 721               		.loc 1 174 26 is_stmt 0 view .LVU164
 722 01ae 4D87      		std Y+13,r20
 723 01b0 5E87      		std Y+14,r21
 724 01b2 8D85      		ldd r24,Y+13
 725 01b4 9E85      		ldd r25,Y+14
 726 01b6 0E94 0000 		call is_tap_key
 727               	.LVL46:
 174:tmk_core/common/action_tapping.c ****                     if (tapping_key.tap.count > 1) {
 728               		.loc 1 174 25 view .LVU165
 729 01ba 8823      		tst r24
 730 01bc 01F0      		breq .L63
 174:tmk_core/common/action_tapping.c ****                     if (tapping_key.tap.count > 1) {
 731               		.loc 1 174 48 discriminator 1 view .LVU166
 732 01be EE20      		tst r14
 733 01c0 01F0      		breq .L63
 175:tmk_core/common/action_tapping.c ****                         debug("Tapping: Start new tap with releasing last tap(>1).\n");
 734               		.loc 1 175 21 is_stmt 1 view .LVU167
 175:tmk_core/common/action_tapping.c ****                         debug("Tapping: Start new tap with releasing last tap(>1).\n");
 735               		.loc 1 175 40 is_stmt 0 view .LVU168
 736 01c2 8091 0000 		lds r24,tapping_key+5
 175:tmk_core/common/action_tapping.c ****                         debug("Tapping: Start new tap with releasing last tap(>1).\n");
 737               		.loc 1 175 24 view .LVU169
 738 01c6 8032      		cpi r24,lo8(32)
 739 01c8 00F0      		brlo .L54
 176:tmk_core/common/action_tapping.c ****                         // unregister key
 740               		.loc 1 176 87 is_stmt 1 view .LVU170
 178:tmk_core/common/action_tapping.c ****                                 .tap = tapping_key.tap,
 741               		.loc 1 178 25 view .LVU171
 178:tmk_core/common/action_tapping.c ****                                 .tap = tapping_key.tap,
 742               		.loc 1 178 54 is_stmt 0 view .LVU172
 743 01ca 2091 0000 		lds r18,tapping_key
 744 01ce 3091 0000 		lds r19,tapping_key+1
 745 01d2 3887      		std Y+8,r19
 746 01d4 2F83      		std Y+7,r18
 747 01d6 1986      		std Y+9,__zero_reg__
 748 01d8 DB86      		std Y+11,r13
 749 01da CA86      		std Y+10,r12
 750 01dc 8C87      		std Y+12,r24
 178:tmk_core/common/action_tapping.c ****                                 .tap = tapping_key.tap,
 751               		.loc 1 178 25 view .LVU173
 752 01de CE01      		movw r24,r28
 753 01e0 0796      		adiw r24,7
 754               	.L124:
 178:tmk_core/common/action_tapping.c ****                                 .tap = tapping_key.tap,
 755               		.loc 1 178 25 view .LVU174
 756 01e2 0E94 0000 		call process_record
 757               	.LVL47:
 758               	.L54:
 185:tmk_core/common/action_tapping.c ****                     }
 759               		.loc 1 185 69 is_stmt 1 view .LVU175
 187:tmk_core/common/action_tapping.c ****                     waiting_buffer_scan_tap();
 760               		.loc 1 187 21 view .LVU176
 187:tmk_core/common/action_tapping.c ****                     waiting_buffer_scan_tap();
 761               		.loc 1 187 33 is_stmt 0 view .LVU177
 762 01e6 86E0      		ldi r24,lo8(6)
 763 01e8 F801      		movw r30,r16
 764 01ea A0E0      		ldi r26,lo8(tapping_key)
 765 01ec B0E0      		ldi r27,hi8(tapping_key)
 766               		0:
 767 01ee 0190      		ld r0,Z+
 768 01f0 0D92      		st X+,r0
 769 01f2 8A95      		dec r24
 770 01f4 01F4      		brne 0b
 188:tmk_core/common/action_tapping.c ****                     debug_tapping_key();
 771               		.loc 1 188 21 is_stmt 1 view .LVU178
 772 01f6 0E94 0000 		call waiting_buffer_scan_tap
 773               	.LVL48:
 189:tmk_core/common/action_tapping.c ****                     return true;
 774               		.loc 1 189 21 view .LVU179
 775 01fa 0E94 0000 		call debug_tapping_key
 776               	.LVL49:
 190:tmk_core/common/action_tapping.c ****                 }
 777               		.loc 1 190 21 view .LVU180
 778               	.L127:
 197:tmk_core/common/action_tapping.c ****                 }
 779               		.loc 1 197 21 view .LVU181
 197:tmk_core/common/action_tapping.c ****                 }
 780               		.loc 1 197 28 is_stmt 0 view .LVU182
 781 01fe FF24      		clr r15
 782 0200 F394      		inc r15
 783 0202 00C0      		rjmp .L29
 784               	.L63:
 193:tmk_core/common/action_tapping.c ****                         debug("Tapping: key event while last tap(>0).\n");
 785               		.loc 1 193 21 is_stmt 1 view .LVU183
 194:tmk_core/common/action_tapping.c ****                     }
 786               		.loc 1 194 74 view .LVU184
 196:tmk_core/common/action_tapping.c ****                     return true;
 787               		.loc 1 196 21 view .LVU185
 788 0204 C801      		movw r24,r16
 789 0206 0E94 0000 		call process_record
 790               	.LVL50:
 791 020a 00C0      		rjmp .L127
 792               	.LVL51:
 793               	.L36:
 203:tmk_core/common/action_tapping.c ****                 debug("Tapping: End. Timeout. Not tap(0): ");
 794               		.loc 1 203 13 view .LVU186
 203:tmk_core/common/action_tapping.c ****                 debug("Tapping: End. Timeout. Not tap(0): ");
 795               		.loc 1 203 16 is_stmt 0 view .LVU187
 796 020c 9111      		cpse r25,__zero_reg__
 797 020e 00C0      		rjmp .L55
 204:tmk_core/common/action_tapping.c ****                 debug_event(event); debug("\n");
 798               		.loc 1 204 61 is_stmt 1 view .LVU188
 205:tmk_core/common/action_tapping.c ****                 process_record(&tapping_key);
 799               		.loc 1 205 17 view .LVU189
 205:tmk_core/common/action_tapping.c ****                 process_record(&tapping_key);
 800               		.loc 1 205 17 is_stmt 0 view .LVU190
 801 0210 7C2D      		mov r23,r12
 802 0212 D98A      		std Y+17,r13
 803 0214 C88A      		std Y+16,r12
 804 0216 6E2D      		mov r22,r14
 805 0218 8989      		ldd r24,Y+17
 806 021a 0E94 0000 		call debug_event
 807               	.LVL52:
 205:tmk_core/common/action_tapping.c ****                 process_record(&tapping_key);
 808               		.loc 1 205 48 is_stmt 1 view .LVU191
 206:tmk_core/common/action_tapping.c ****                 tapping_key = (keyrecord_t){};
 809               		.loc 1 206 17 view .LVU192
 810 021e 80E0      		ldi r24,lo8(tapping_key)
 811 0220 90E0      		ldi r25,hi8(tapping_key)
 812 0222 0E94 0000 		call process_record
 813               	.LVL53:
 207:tmk_core/common/action_tapping.c ****                 debug_tapping_key();
 814               		.loc 1 207 17 view .LVU193
 815               	.L131:
 287:tmk_core/common/action_tapping.c ****             tapping_key = (keyrecord_t){};
 816               		.loc 1 287 44 view .LVU194
 288:tmk_core/common/action_tapping.c ****             debug_tapping_key();
 817               		.loc 1 288 13 view .LVU195
 288:tmk_core/common/action_tapping.c ****             debug_tapping_key();
 818               		.loc 1 288 25 is_stmt 0 view .LVU196
 819 0226 86E0      		ldi r24,lo8(6)
 820 0228 E0E0      		ldi r30,lo8(tapping_key)
 821 022a F0E0      		ldi r31,hi8(tapping_key)
 822 022c DF01      		movw r26,r30
 823               		0:
 824 022e 1D92      		st X+,__zero_reg__
 825 0230 8A95      		dec r24
 826 0232 01F4      		brne 0b
 289:tmk_core/common/action_tapping.c ****             return false;
 827               		.loc 1 289 13 is_stmt 1 view .LVU197
 828 0234 00C0      		rjmp .L126
 829               	.LVL54:
 830               	.L55:
 211:tmk_core/common/action_tapping.c ****                     debug("Tapping: End. last timeout tap release(>0).");
 831               		.loc 1 211 17 discriminator 1 view .LVU198
 211:tmk_core/common/action_tapping.c ****                     debug("Tapping: End. last timeout tap release(>0).");
 832               		.loc 1 211 21 is_stmt 0 discriminator 1 view .LVU199
 833 0236 3513      		cpse r19,r21
 834 0238 00C0      		rjmp .L56
 211:tmk_core/common/action_tapping.c ****                     debug("Tapping: End. last timeout tap release(>0).");
 835               		.loc 1 211 21 discriminator 2 view .LVU200
 836 023a 2413      		cpse r18,r20
 837 023c 00C0      		rjmp .L56
 211:tmk_core/common/action_tapping.c ****                     debug("Tapping: End. last timeout tap release(>0).");
 838               		.loc 1 211 47 discriminator 3 view .LVU201
 839 023e E110      		cpse r14,__zero_reg__
 840 0240 00C0      		rjmp .L56
 212:tmk_core/common/action_tapping.c ****                     keyp->tap = tapping_key.tap;
 841               		.loc 1 212 73 is_stmt 1 view .LVU202
 213:tmk_core/common/action_tapping.c ****                     process_record(keyp);
 842               		.loc 1 213 21 view .LVU203
 213:tmk_core/common/action_tapping.c ****                     process_record(keyp);
 843               		.loc 1 213 31 is_stmt 0 view .LVU204
 844 0242 F801      		movw r30,r16
 845 0244 8583      		std Z+5,r24
 214:tmk_core/common/action_tapping.c ****                     tapping_key = (keyrecord_t){};
 846               		.loc 1 214 21 is_stmt 1 view .LVU205
 847 0246 C801      		movw r24,r16
 848 0248 0E94 0000 		call process_record
 849               	.LVL55:
 215:tmk_core/common/action_tapping.c ****                     return true;
 850               		.loc 1 215 21 view .LVU206
 215:tmk_core/common/action_tapping.c ****                     return true;
 851               		.loc 1 215 33 is_stmt 0 view .LVU207
 852 024c E0E0      		ldi r30,lo8(tapping_key)
 853 024e F0E0      		ldi r31,hi8(tapping_key)
 854 0250 86E0      		ldi r24,lo8(6)
 855 0252 DF01      		movw r26,r30
 856               		0:
 857 0254 1D92      		st X+,__zero_reg__
 858 0256 8A95      		dec r24
 859 0258 01F4      		brne 0b
 216:tmk_core/common/action_tapping.c ****                 }
 860               		.loc 1 216 21 is_stmt 1 view .LVU208
 216:tmk_core/common/action_tapping.c ****                 }
 861               		.loc 1 216 28 is_stmt 0 view .LVU209
 862 025a FB2C      		mov r15,r11
 863 025c 00C0      		rjmp .L29
 864               	.LVL56:
 865               	.L56:
 218:tmk_core/common/action_tapping.c ****                     if (tapping_key.tap.count > 1) {
 866               		.loc 1 218 22 is_stmt 1 view .LVU210
 218:tmk_core/common/action_tapping.c ****                     if (tapping_key.tap.count > 1) {
 867               		.loc 1 218 26 is_stmt 0 view .LVU211
 868 025e 4D87      		std Y+13,r20
 869 0260 5E87      		std Y+14,r21
 870 0262 8D85      		ldd r24,Y+13
 871 0264 9E85      		ldd r25,Y+14
 872 0266 0E94 0000 		call is_tap_key
 873               	.LVL57:
 218:tmk_core/common/action_tapping.c ****                     if (tapping_key.tap.count > 1) {
 874               		.loc 1 218 25 view .LVU212
 875 026a 8823      		tst r24
 876 026c 01F0      		breq .L63
 218:tmk_core/common/action_tapping.c ****                     if (tapping_key.tap.count > 1) {
 877               		.loc 1 218 48 discriminator 1 view .LVU213
 878 026e EE20      		tst r14
 879 0270 01F0      		breq .L63
 219:tmk_core/common/action_tapping.c ****                         debug("Tapping: Start new tap with releasing last timeout tap(>1).\n");
 880               		.loc 1 219 21 is_stmt 1 view .LVU214
 219:tmk_core/common/action_tapping.c ****                         debug("Tapping: Start new tap with releasing last timeout tap(>1).\n");
 881               		.loc 1 219 40 is_stmt 0 view .LVU215
 882 0272 8091 0000 		lds r24,tapping_key+5
 219:tmk_core/common/action_tapping.c ****                         debug("Tapping: Start new tap with releasing last timeout tap(>1).\n");
 883               		.loc 1 219 24 view .LVU216
 884 0276 8032      		cpi r24,lo8(32)
 885 0278 00F4      		brsh .+2
 886 027a 00C0      		rjmp .L54
 220:tmk_core/common/action_tapping.c ****                         // unregister key
 887               		.loc 1 220 95 is_stmt 1 view .LVU217
 222:tmk_core/common/action_tapping.c ****                                 .tap = tapping_key.tap,
 888               		.loc 1 222 25 view .LVU218
 222:tmk_core/common/action_tapping.c ****                                 .tap = tapping_key.tap,
 889               		.loc 1 222 54 is_stmt 0 view .LVU219
 890 027c 2091 0000 		lds r18,tapping_key
 891 0280 3091 0000 		lds r19,tapping_key+1
 892 0284 3A83      		std Y+2,r19
 893 0286 2983      		std Y+1,r18
 894 0288 1B82      		std Y+3,__zero_reg__
 895 028a DD82      		std Y+5,r13
 896 028c CC82      		std Y+4,r12
 897 028e 8E83      		std Y+6,r24
 222:tmk_core/common/action_tapping.c ****                                 .tap = tapping_key.tap,
 898               		.loc 1 222 25 view .LVU220
 899 0290 CE01      		movw r24,r28
 900 0292 0196      		adiw r24,1
 901 0294 00C0      		rjmp .L124
 902               	.LVL58:
 903               	.L31:
 245:tmk_core/common/action_tapping.c ****         if (WITHIN_TAPPING_TERM(event)) {
 904               		.loc 1 245 12 is_stmt 1 discriminator 1 view .LVU221
 246:tmk_core/common/action_tapping.c ****             if (event.pressed) {
 905               		.loc 1 246 9 discriminator 1 view .LVU222
 246:tmk_core/common/action_tapping.c ****             if (event.pressed) {
 906               		.loc 1 246 13 is_stmt 0 discriminator 1 view .LVU223
 907 0296 C816      		cp r12,r24
 908 0298 D906      		cpc r13,r25
 909 029a 00F0      		brlo .L58
 910 029c F601      		movw r30,r12
 911 029e E81B      		sub r30,r24
 912 02a0 F90B      		sbc r31,r25
 913 02a2 CF01      		movw r24,r30
 914               	.L129:
 246:tmk_core/common/action_tapping.c ****             if (event.pressed) {
 915               		.loc 1 246 13 discriminator 2 view .LVU224
 916 02a4 F12C      		mov r15,__zero_reg__
 917 02a6 883C      		cpi r24,-56
 918 02a8 9105      		cpc r25,__zero_reg__
 919 02aa 00F0      		brlo .+2
 920 02ac 00C0      		rjmp .L62
 247:tmk_core/common/action_tapping.c ****                 if (IS_TAPPING_KEY(event.key)) {
 921               		.loc 1 247 13 is_stmt 1 view .LVU225
 247:tmk_core/common/action_tapping.c ****                 if (IS_TAPPING_KEY(event.key)) {
 922               		.loc 1 247 22 is_stmt 0 view .LVU226
 923 02ae FE2C      		mov r15,r14
 247:tmk_core/common/action_tapping.c ****                 if (IS_TAPPING_KEY(event.key)) {
 924               		.loc 1 247 16 view .LVU227
 925 02b0 EE20      		tst r14
 926 02b2 01F4      		brne .+2
 927 02b4 00C0      		rjmp .L63
 248:tmk_core/common/action_tapping.c **** #ifndef TAPPING_FORCE_HOLD
 928               		.loc 1 248 17 is_stmt 1 discriminator 1 view .LVU228
 248:tmk_core/common/action_tapping.c **** #ifndef TAPPING_FORCE_HOLD
 929               		.loc 1 248 21 is_stmt 0 discriminator 1 view .LVU229
 930 02b6 3513      		cpse r19,r21
 931 02b8 00C0      		rjmp .L64
 248:tmk_core/common/action_tapping.c **** #ifndef TAPPING_FORCE_HOLD
 932               		.loc 1 248 21 discriminator 2 view .LVU230
 933 02ba 2413      		cpse r18,r20
 934 02bc 00C0      		rjmp .L64
 250:tmk_core/common/action_tapping.c ****                         // sequential tap.
 935               		.loc 1 250 21 is_stmt 1 view .LVU231
 250:tmk_core/common/action_tapping.c ****                         // sequential tap.
 936               		.loc 1 250 41 is_stmt 0 view .LVU232
 937 02be 8091 0000 		lds r24,tapping_key+5
 250:tmk_core/common/action_tapping.c ****                         // sequential tap.
 938               		.loc 1 250 24 view .LVU233
 939 02c2 80FD      		sbrc r24,0
 940 02c4 00C0      		rjmp .L65
 250:tmk_core/common/action_tapping.c ****                         // sequential tap.
 941               		.loc 1 250 79 discriminator 1 view .LVU234
 942 02c6 982F      		mov r25,r24
 943 02c8 907F      		andi r25,lo8(-16)
 250:tmk_core/common/action_tapping.c ****                         // sequential tap.
 944               		.loc 1 250 54 discriminator 1 view .LVU235
 945 02ca 01F0      		breq .L65
 252:tmk_core/common/action_tapping.c ****                         if (keyp->tap.count < 15) keyp->tap.count += 1;
 946               		.loc 1 252 25 is_stmt 1 view .LVU236
 252:tmk_core/common/action_tapping.c ****                         if (keyp->tap.count < 15) keyp->tap.count += 1;
 947               		.loc 1 252 35 is_stmt 0 view .LVU237
 948 02cc D801      		movw r26,r16
 949 02ce 1596      		adiw r26,5
 950 02d0 8C93      		st X,r24
 951 02d2 1597      		sbiw r26,5
 253:tmk_core/common/action_tapping.c ****                         debug("Tapping: Tap press("); debug_dec(keyp->tap.count); debug(")\n");
 952               		.loc 1 253 25 is_stmt 1 view .LVU238
 253:tmk_core/common/action_tapping.c ****                         debug("Tapping: Tap press("); debug_dec(keyp->tap.count); debug(")\n");
 953               		.loc 1 253 28 is_stmt 0 view .LVU239
 954 02d4 903F      		cpi r25,lo8(-16)
 955 02d6 01F0      		breq .L66
 253:tmk_core/common/action_tapping.c ****                         debug("Tapping: Tap press("); debug_dec(keyp->tap.count); debug(")\n");
 956               		.loc 1 253 51 is_stmt 1 discriminator 1 view .LVU240
 253:tmk_core/common/action_tapping.c ****                         debug("Tapping: Tap press("); debug_dec(keyp->tap.count); debug(")\n");
 957               		.loc 1 253 67 is_stmt 0 discriminator 1 view .LVU241
 958 02d8 982F      		mov r25,r24
 959 02da 907F      		andi r25,lo8(-16)
 960 02dc 905F      		subi r25,lo8(-(16))
 961 02de 8F70      		andi r24,lo8(15)
 962 02e0 892B      		or r24,r25
 963               	.L130:
 253:tmk_core/common/action_tapping.c ****                         debug("Tapping: Tap press("); debug_dec(keyp->tap.count); debug(")\n");
 964               		.loc 1 253 67 discriminator 1 view .LVU242
 965 02e2 1596      		adiw r26,5
 966 02e4 8C93      		st X,r24
 967               	.L66:
 254:tmk_core/common/action_tapping.c ****                         process_record(keyp);
 968               		.loc 1 254 53 is_stmt 1 view .LVU243
 254:tmk_core/common/action_tapping.c ****                         process_record(keyp);
 969               		.loc 1 254 81 view .LVU244
 254:tmk_core/common/action_tapping.c ****                         process_record(keyp);
 970               		.loc 1 254 95 view .LVU245
 255:tmk_core/common/action_tapping.c ****                         tapping_key = *keyp;
 971               		.loc 1 255 25 view .LVU246
 972 02e6 C801      		movw r24,r16
 973 02e8 0E94 0000 		call process_record
 974               	.LVL59:
 256:tmk_core/common/action_tapping.c ****                         debug_tapping_key();
 975               		.loc 1 256 25 view .LVU247
 256:tmk_core/common/action_tapping.c ****                         debug_tapping_key();
 976               		.loc 1 256 37 is_stmt 0 view .LVU248
 977 02ec 86E0      		ldi r24,lo8(6)
 978 02ee F801      		movw r30,r16
 979 02f0 A0E0      		ldi r26,lo8(tapping_key)
 980 02f2 B0E0      		ldi r27,hi8(tapping_key)
 981               		0:
 982 02f4 0190      		ld r0,Z+
 983 02f6 0D92      		st X+,r0
 984 02f8 8A95      		dec r24
 985 02fa 01F4      		brne 0b
 257:tmk_core/common/action_tapping.c ****                         return true;
 986               		.loc 1 257 25 is_stmt 1 view .LVU249
 987               	.LVL60:
 988               	.L126:
 300:tmk_core/common/action_tapping.c ****             return true;
 989               		.loc 1 300 13 view .LVU250
 990 02fc 0E94 0000 		call debug_tapping_key
 991               	.LVL61:
 301:tmk_core/common/action_tapping.c ****         } else {
 992               		.loc 1 301 13 view .LVU251
 301:tmk_core/common/action_tapping.c ****         } else {
 993               		.loc 1 301 20 is_stmt 0 view .LVU252
 994 0300 00C0      		rjmp .L29
 995               	.LVL62:
 996               	.L58:
 246:tmk_core/common/action_tapping.c ****             if (event.pressed) {
 997               		.loc 1 246 13 discriminator 2 view .LVU253
 998 0302 8095      		com r24
 999 0304 9095      		com r25
 1000 0306 8C0D      		add r24,r12
 1001 0308 9D1D      		adc r25,r13
 1002 030a 00C0      		rjmp .L129
 1003               	.L65:
 262:tmk_core/common/action_tapping.c ****                     return true;
 1004               		.loc 1 262 21 is_stmt 1 view .LVU254
 262:tmk_core/common/action_tapping.c ****                     return true;
 1005               		.loc 1 262 33 is_stmt 0 view .LVU255
 1006 030c 86E0      		ldi r24,lo8(6)
 1007 030e F801      		movw r30,r16
 1008 0310 A0E0      		ldi r26,lo8(tapping_key)
 1009 0312 B0E0      		ldi r27,hi8(tapping_key)
 1010               		0:
 1011 0314 0190      		ld r0,Z+
 1012 0316 0D92      		st X+,r0
 1013 0318 8A95      		dec r24
 1014 031a 01F4      		brne 0b
 263:tmk_core/common/action_tapping.c ****                 } else if (is_tap_key(event.key)) {
 1015               		.loc 1 263 21 is_stmt 1 view .LVU256
 263:tmk_core/common/action_tapping.c ****                 } else if (is_tap_key(event.key)) {
 1016               		.loc 1 263 28 is_stmt 0 view .LVU257
 1017 031c 00C0      		rjmp .L29
 1018               	.L64:
 264:tmk_core/common/action_tapping.c ****                     // Sequential tap can be interfered with other tap key.
 1019               		.loc 1 264 24 is_stmt 1 view .LVU258
 264:tmk_core/common/action_tapping.c ****                     // Sequential tap can be interfered with other tap key.
 1020               		.loc 1 264 28 is_stmt 0 view .LVU259
 1021 031e 4D87      		std Y+13,r20
 1022 0320 5E87      		std Y+14,r21
 1023 0322 8D85      		ldd r24,Y+13
 1024 0324 9E85      		ldd r25,Y+14
 1025 0326 0E94 0000 		call is_tap_key
 1026               	.LVL63:
 264:tmk_core/common/action_tapping.c ****                     // Sequential tap can be interfered with other tap key.
 1027               		.loc 1 264 27 view .LVU260
 1028 032a 8111      		cpse r24,__zero_reg__
 1029 032c 00C0      		rjmp .L54
 274:tmk_core/common/action_tapping.c ****                     process_record(keyp);
 1030               		.loc 1 274 21 is_stmt 1 view .LVU261
 274:tmk_core/common/action_tapping.c ****                     process_record(keyp);
 1031               		.loc 1 274 49 is_stmt 0 view .LVU262
 1032 032e 8091 0000 		lds r24,tapping_key+5
 1033 0332 8160      		ori r24,lo8(1<<0)
 1034 0334 8093 0000 		sts tapping_key+5,r24
 275:tmk_core/common/action_tapping.c ****                     return true;
 1035               		.loc 1 275 21 is_stmt 1 view .LVU263
 1036 0338 C801      		movw r24,r16
 1037 033a 0E94 0000 		call process_record
 1038               	.LVL64:
 276:tmk_core/common/action_tapping.c ****                 }
 1039               		.loc 1 276 21 view .LVU264
 276:tmk_core/common/action_tapping.c ****                 }
 1040               		.loc 1 276 28 is_stmt 0 view .LVU265
 1041 033e 00C0      		rjmp .L29
 1042               	.LVL65:
 1043               	.L62:
 286:tmk_core/common/action_tapping.c ****             debug_event(event); debug("\n");
 1044               		.loc 1 286 70 is_stmt 1 view .LVU266
 287:tmk_core/common/action_tapping.c ****             tapping_key = (keyrecord_t){};
 1045               		.loc 1 287 13 view .LVU267
 287:tmk_core/common/action_tapping.c ****             tapping_key = (keyrecord_t){};
 1046               		.loc 1 287 13 is_stmt 0 view .LVU268
 1047 0340 7C2D      		mov r23,r12
 1048 0342 D98A      		std Y+17,r13
 1049 0344 C88A      		std Y+16,r12
 1050 0346 6E2D      		mov r22,r14
 1051 0348 8989      		ldd r24,Y+17
 1052 034a 0E94 0000 		call debug_event
 1053               	.LVL66:
 287:tmk_core/common/action_tapping.c ****             tapping_key = (keyrecord_t){};
 1054               		.loc 1 287 13 view .LVU269
 1055 034e 00C0      		rjmp .L131
 1056               	.LVL67:
 1057               	.L30:
 295:tmk_core/common/action_tapping.c ****             debug("Tapping: Start(Press tap key).\n");
 1058               		.loc 1 295 9 is_stmt 1 view .LVU270
 295:tmk_core/common/action_tapping.c ****             debug("Tapping: Start(Press tap key).\n");
 1059               		.loc 1 295 12 is_stmt 0 view .LVU271
 1060 0350 EE20      		tst r14
 1061 0352 01F4      		brne .+2
 1062 0354 00C0      		rjmp .L63
 295:tmk_core/common/action_tapping.c ****             debug("Tapping: Start(Press tap key).\n");
 1063               		.loc 1 295 30 discriminator 1 view .LVU272
 1064 0356 4D87      		std Y+13,r20
 1065 0358 5E87      		std Y+14,r21
 1066 035a 8D85      		ldd r24,Y+13
 1067 035c 9E85      		ldd r25,Y+14
 1068 035e 0E94 0000 		call is_tap_key
 1069               	.LVL68:
 295:tmk_core/common/action_tapping.c ****             debug("Tapping: Start(Press tap key).\n");
 1070               		.loc 1 295 30 discriminator 1 view .LVU273
 1071 0362 F82E      		mov r15,r24
 295:tmk_core/common/action_tapping.c ****             debug("Tapping: Start(Press tap key).\n");
 1072               		.loc 1 295 27 discriminator 1 view .LVU274
 1073 0364 8823      		tst r24
 1074 0366 01F4      		brne .+2
 1075 0368 00C0      		rjmp .L63
 296:tmk_core/common/action_tapping.c ****             tapping_key = *keyp;
 1076               		.loc 1 296 54 is_stmt 1 view .LVU275
 297:tmk_core/common/action_tapping.c ****             process_record_tap_hint(&tapping_key);
 1077               		.loc 1 297 13 view .LVU276
 297:tmk_core/common/action_tapping.c ****             process_record_tap_hint(&tapping_key);
 1078               		.loc 1 297 25 is_stmt 0 view .LVU277
 1079 036a 86E0      		ldi r24,lo8(6)
 1080 036c F801      		movw r30,r16
 1081 036e A0E0      		ldi r26,lo8(tapping_key)
 1082 0370 B0E0      		ldi r27,hi8(tapping_key)
 1083               		0:
 1084 0372 0190      		ld r0,Z+
 1085 0374 0D92      		st X+,r0
 1086 0376 8A95      		dec r24
 1087 0378 01F4      		brne 0b
 298:tmk_core/common/action_tapping.c ****             waiting_buffer_scan_tap();
 1088               		.loc 1 298 13 is_stmt 1 view .LVU278
 1089 037a 80E0      		ldi r24,lo8(tapping_key)
 1090 037c 90E0      		ldi r25,hi8(tapping_key)
 1091 037e 0E94 0000 		call process_record_tap_hint
 1092               	.LVL69:
 299:tmk_core/common/action_tapping.c ****             debug_tapping_key();
 1093               		.loc 1 299 13 view .LVU279
 1094 0382 0E94 0000 		call waiting_buffer_scan_tap
 1095               	.LVL70:
 1096 0386 00C0      		rjmp .L126
 1097               	.LVL71:
 1098               	.L41:
 1099               	.LBB39:
 1100               	.LBB31:
 1101               		.loc 2 51 79 is_stmt 0 view .LVU280
 1102 0388 81E0      		ldi r24,lo8(1)
 1103 038a 8E25      		eor r24,r14
 1104 038c 00C0      		rjmp .L40
 1105               	.LBE31:
 1106               	.LBE39:
 1107               		.cfi_endproc
 1108               	.LFE6:
 1110               		.section	.text.get_tapping_term,"ax",@progbits
 1111               		.weak	get_tapping_term
 1113               	get_tapping_term:
 1114               	.LVL72:
 1115               	.LFB4:
  23:tmk_core/common/action_tapping.c ****   return TAPPING_TERM;
 1116               		.loc 1 23 45 is_stmt 1 view -0
 1117               		.cfi_startproc
 1118               	/* prologue: function */
 1119               	/* frame size = 0 */
 1120               	/* stack size = 0 */
 1121               	.L__stack_usage = 0
  24:tmk_core/common/action_tapping.c **** }
 1122               		.loc 1 24 3 view .LVU282
  25:tmk_core/common/action_tapping.c **** 
 1123               		.loc 1 25 1 is_stmt 0 view .LVU283
 1124 0000 88EC      		ldi r24,lo8(-56)
 1125 0002 90E0      		ldi r25,0
 1126               	.LVL73:
 1127               	/* epilogue start */
  25:tmk_core/common/action_tapping.c **** 
 1128               		.loc 1 25 1 view .LVU284
 1129 0004 0895      		ret
 1130               		.cfi_endproc
 1131               	.LFE4:
 1133               		.section	.text.action_tapping_process,"ax",@progbits
 1134               	.global	action_tapping_process
 1136               	action_tapping_process:
 1137               	.LFB5:
  53:tmk_core/common/action_tapping.c ****     if (process_tapping(&record)) {
 1138               		.loc 1 53 1 is_stmt 1 view -0
 1139               		.cfi_startproc
 1140 0000 1F93      		push r17
 1141               	.LCFI17:
 1142               		.cfi_def_cfa_offset 3
 1143               		.cfi_offset 17, -2
 1144 0002 CF93      		push r28
 1145               	.LCFI18:
 1146               		.cfi_def_cfa_offset 4
 1147               		.cfi_offset 28, -3
 1148 0004 DF93      		push r29
 1149               	.LCFI19:
 1150               		.cfi_def_cfa_offset 5
 1151               		.cfi_offset 29, -4
 1152 0006 CDB7      		in r28,__SP_L__
 1153 0008 DEB7      		in r29,__SP_H__
 1154               	.LCFI20:
 1155               		.cfi_def_cfa_register 28
 1156 000a 2C97      		sbiw r28,12
 1157               	.LCFI21:
 1158               		.cfi_def_cfa_offset 17
 1159 000c 0FB6      		in __tmp_reg__,__SREG__
 1160 000e F894      		cli
 1161 0010 DEBF      		out __SP_H__,r29
 1162 0012 0FBE      		out __SREG__,__tmp_reg__
 1163 0014 CDBF      		out __SP_L__,r28
 1164               	/* prologue: function */
 1165               	/* frame size = 12 */
 1166               	/* stack size = 15 */
 1167               	.L__stack_usage = 15
 1168 0016 4F83      		std Y+7,r20
 1169 0018 5887      		std Y+8,r21
 1170 001a 6987      		std Y+9,r22
 1171 001c 7A87      		std Y+10,r23
 1172 001e 8B87      		std Y+11,r24
 1173 0020 9C87      		std Y+12,r25
  54:tmk_core/common/action_tapping.c ****         if (!IS_NOEVENT(record.event)) {
 1174               		.loc 1 54 5 view .LVU286
  54:tmk_core/common/action_tapping.c ****         if (!IS_NOEVENT(record.event)) {
 1175               		.loc 1 54 9 is_stmt 0 view .LVU287
 1176 0022 CE01      		movw r24,r28
 1177 0024 0796      		adiw r24,7
 1178 0026 0E94 0000 		call process_tapping
 1179               	.LVL74:
  54:tmk_core/common/action_tapping.c ****         if (!IS_NOEVENT(record.event)) {
 1180               		.loc 1 54 8 view .LVU288
 1181 002a 8823      		tst r24
 1182 002c 01F0      		breq .L134
  55:tmk_core/common/action_tapping.c ****             debug("processed: "); debug_record(record); debug("\n");
 1183               		.loc 1 55 9 is_stmt 1 view .LVU289
 1184               	.LBB48:
 1185               	.LBI48:
  49:tmk_core/common/keyboard.h **** static inline bool IS_PRESSED(keyevent_t event) { return (!IS_NOEVENT(event) && event.pressed); }
 1186               		.loc 2 49 20 view .LVU290
 1187               	.LBB49:
  49:tmk_core/common/keyboard.h **** static inline bool IS_PRESSED(keyevent_t event) { return (!IS_NOEVENT(event) && event.pressed); }
 1188               		.loc 2 49 51 view .LVU291
  49:tmk_core/common/keyboard.h **** static inline bool IS_PRESSED(keyevent_t event) { return (!IS_NOEVENT(event) && event.pressed); }
 1189               		.loc 2 49 74 is_stmt 0 view .LVU292
 1190 002e 8A85      		ldd r24,Y+10
 1191 0030 9B85      		ldd r25,Y+11
 1192 0032 892B      		or r24,r25
 1193 0034 01F0      		breq .L135
 1194 0036 4F81      		ldd r20,Y+7
 1195 0038 5885      		ldd r21,Y+8
 1196 003a 842F      		mov r24,r20
 1197 003c 8523      		and r24,r21
 1198 003e 8F3F      		cpi r24,lo8(-1)
 1199 0040 01F0      		breq .+2
 1200 0042 00C0      		rjmp .L157
 1201               	.L135:
 1202               	.LBE49:
 1203               	.LBE48:
  73:tmk_core/common/action_tapping.c ****             debug("processed: waiting_buffer["); debug_dec(waiting_buffer_tail); debug("] = ");
 1204               		.loc 1 73 13 discriminator 1 view .LVU293
 1205 0044 16E0      		ldi r17,lo8(6)
 1206 0046 00C0      		rjmp .L142
 1207               	.L134:
  59:tmk_core/common/action_tapping.c ****             // clear all in case of overflow.
 1208               		.loc 1 59 9 is_stmt 1 view .LVU294
 1209 0048 86E0      		ldi r24,lo8(6)
 1210 004a FE01      		movw r30,r28
 1211 004c 3796      		adiw r30,7
 1212 004e DE01      		movw r26,r28
 1213 0050 1196      		adiw r26,1
 1214               		0:
 1215 0052 0190      		ld r0,Z+
 1216 0054 0D92      		st X+,r0
 1217 0056 8A95      		dec r24
 1218 0058 01F4      		brne 0b
 1219               	.LVL75:
 1220               	.LBB50:
 1221               	.LBI50:
 314:tmk_core/common/action_tapping.c **** {
 1222               		.loc 1 314 6 view .LVU295
 1223               	.LBB51:
 316:tmk_core/common/action_tapping.c ****         return true;
 1224               		.loc 1 316 5 view .LVU296
 1225               	.LBB52:
 1226               	.LBI52:
  49:tmk_core/common/keyboard.h **** static inline bool IS_PRESSED(keyevent_t event) { return (!IS_NOEVENT(event) && event.pressed); }
 1227               		.loc 2 49 20 view .LVU297
 1228               	.LBB53:
  49:tmk_core/common/keyboard.h **** static inline bool IS_PRESSED(keyevent_t event) { return (!IS_NOEVENT(event) && event.pressed); }
 1229               		.loc 2 49 51 view .LVU298
  49:tmk_core/common/keyboard.h **** static inline bool IS_PRESSED(keyevent_t event) { return (!IS_NOEVENT(event) && event.pressed); }
 1230               		.loc 2 49 74 is_stmt 0 view .LVU299
 1231 005a 8A85      		ldd r24,Y+10
 1232 005c 9B85      		ldd r25,Y+11
 1233 005e 892B      		or r24,r25
 1234 0060 01F0      		breq .L135
 1235 0062 8885      		ldd r24,Y+8
 1236 0064 9F81      		ldd r25,Y+7
 1237 0066 8923      		and r24,r25
 1238 0068 8F3F      		cpi r24,lo8(-1)
 1239 006a 01F0      		breq .L135
 1240               	.LBE53:
 1241               	.LBE52:
 320:tmk_core/common/action_tapping.c ****         debug("waiting_buffer_enq: Over flow.\n");
 1242               		.loc 1 320 5 is_stmt 1 view .LVU300
 320:tmk_core/common/action_tapping.c ****         debug("waiting_buffer_enq: Over flow.\n");
 1243               		.loc 1 320 30 is_stmt 0 view .LVU301
 1244 006c 2091 0000 		lds r18,waiting_buffer_head
 1245 0070 30E0      		ldi r19,0
 1246 0072 C901      		movw r24,r18
 1247 0074 0196      		adiw r24,1
 320:tmk_core/common/action_tapping.c ****         debug("waiting_buffer_enq: Over flow.\n");
 1248               		.loc 1 320 35 view .LVU302
 1249 0076 8770      		andi r24,7
 1250 0078 9927      		clr r25
 320:tmk_core/common/action_tapping.c ****         debug("waiting_buffer_enq: Over flow.\n");
 1251               		.loc 1 320 57 view .LVU303
 1252 007a 4091 0000 		lds r20,waiting_buffer_tail
 320:tmk_core/common/action_tapping.c ****         debug("waiting_buffer_enq: Over flow.\n");
 1253               		.loc 1 320 8 view .LVU304
 1254 007e 4817      		cp r20,r24
 1255 0080 1906      		cpc __zero_reg__,r25
 1256 0082 01F4      		brne .L159
 1257               	.LVL76:
 320:tmk_core/common/action_tapping.c ****         debug("waiting_buffer_enq: Over flow.\n");
 1258               		.loc 1 320 8 view .LVU305
 1259               	.LBE51:
 1260               	.LBE50:
  61:tmk_core/common/action_tapping.c ****             clear_keyboard();
 1261               		.loc 1 61 50 is_stmt 1 view .LVU306
  62:tmk_core/common/action_tapping.c ****             waiting_buffer_clear();
 1262               		.loc 1 62 13 view .LVU307
 1263 0084 0E94 0000 		call clear_keyboard
 1264               	.LVL77:
  63:tmk_core/common/action_tapping.c ****             tapping_key = (keyrecord_t){};
 1265               		.loc 1 63 13 view .LVU308
 1266               	.LBB55:
 1267               	.LBI55:
 336:tmk_core/common/action_tapping.c **** {
 1268               		.loc 1 336 6 view .LVU309
 1269               	.LBB56:
 338:tmk_core/common/action_tapping.c ****     waiting_buffer_tail = 0;
 1270               		.loc 1 338 5 view .LVU310
 338:tmk_core/common/action_tapping.c ****     waiting_buffer_tail = 0;
 1271               		.loc 1 338 25 is_stmt 0 view .LVU311
 1272 0088 1092 0000 		sts waiting_buffer_head,__zero_reg__
 339:tmk_core/common/action_tapping.c **** }
 1273               		.loc 1 339 5 is_stmt 1 view .LVU312
 339:tmk_core/common/action_tapping.c **** }
 1274               		.loc 1 339 25 is_stmt 0 view .LVU313
 1275 008c 1092 0000 		sts waiting_buffer_tail,__zero_reg__
 1276               	.LBE56:
 1277               	.LBE55:
  64:tmk_core/common/action_tapping.c ****         }
 1278               		.loc 1 64 13 is_stmt 1 view .LVU314
  64:tmk_core/common/action_tapping.c ****         }
 1279               		.loc 1 64 25 is_stmt 0 view .LVU315
 1280 0090 86E0      		ldi r24,lo8(6)
 1281 0092 E0E0      		ldi r30,lo8(tapping_key)
 1282 0094 F0E0      		ldi r31,hi8(tapping_key)
 1283 0096 DF01      		movw r26,r30
 1284               		0:
 1285 0098 1D92      		st X+,__zero_reg__
 1286 009a 8A95      		dec r24
 1287 009c 01F4      		brne 0b
 1288 009e 00C0      		rjmp .L135
 1289               	.LVL78:
 1290               	.L159:
 1291               	.LBB57:
 1292               	.LBB54:
 325:tmk_core/common/action_tapping.c ****     waiting_buffer_head = (waiting_buffer_head + 1) % WAITING_BUFFER_SIZE;
 1293               		.loc 1 325 5 is_stmt 1 view .LVU316
 325:tmk_core/common/action_tapping.c ****     waiting_buffer_head = (waiting_buffer_head + 1) % WAITING_BUFFER_SIZE;
 1294               		.loc 1 325 41 is_stmt 0 view .LVU317
 1295 00a0 96E0      		ldi r25,lo8(6)
 1296               	.LVL79:
 325:tmk_core/common/action_tapping.c ****     waiting_buffer_head = (waiting_buffer_head + 1) % WAITING_BUFFER_SIZE;
 1297               		.loc 1 325 41 view .LVU318
 1298 00a2 929F      		mul r25,r18
 1299 00a4 D001      		movw r26,r0
 1300 00a6 939F      		mul r25,r19
 1301 00a8 B00D      		add r27,r0
 1302 00aa 1124      		clr __zero_reg__
 1303 00ac A050      		subi r26,lo8(-(waiting_buffer))
 1304 00ae B040      		sbci r27,hi8(-(waiting_buffer))
 1305 00b0 FE01      		movw r30,r28
 1306 00b2 3196      		adiw r30,1
 1307               		0:
 1308 00b4 0190      		ld r0,Z+
 1309 00b6 0D92      		st X+,r0
 1310 00b8 9A95      		dec r25
 1311 00ba 01F4      		brne 0b
 326:tmk_core/common/action_tapping.c **** 
 1312               		.loc 1 326 5 is_stmt 1 view .LVU319
 326:tmk_core/common/action_tapping.c **** 
 1313               		.loc 1 326 25 is_stmt 0 view .LVU320
 1314 00bc 8093 0000 		sts waiting_buffer_head,r24
 328:tmk_core/common/action_tapping.c ****     return true;
 1315               		.loc 1 328 34 is_stmt 1 view .LVU321
 328:tmk_core/common/action_tapping.c ****     return true;
 1316               		.loc 1 328 36 view .LVU322
 1317 00c0 0E94 0000 		call debug_waiting_buffer
 1318               	.LVL80:
 329:tmk_core/common/action_tapping.c **** }
 1319               		.loc 1 329 5 view .LVU323
 329:tmk_core/common/action_tapping.c **** }
 1320               		.loc 1 329 5 is_stmt 0 view .LVU324
 1321 00c4 00C0      		rjmp .L135
 1322               	.L140:
 329:tmk_core/common/action_tapping.c **** }
 1323               		.loc 1 329 5 view .LVU325
 1324               	.LBE54:
 1325               	.LBE57:
  73:tmk_core/common/action_tapping.c ****             debug("processed: waiting_buffer["); debug_dec(waiting_buffer_tail); debug("] = ");
 1326               		.loc 1 73 9 is_stmt 1 view .LVU326
  73:tmk_core/common/action_tapping.c ****             debug("processed: waiting_buffer["); debug_dec(waiting_buffer_tail); debug("] = ");
 1327               		.loc 1 73 13 is_stmt 0 view .LVU327
 1328 00c6 819F      		mul r24,r17
 1329 00c8 C001      		movw r24,r0
 1330 00ca 1124      		clr __zero_reg__
 1331 00cc 8050      		subi r24,lo8(-(waiting_buffer))
 1332 00ce 9040      		sbci r25,hi8(-(waiting_buffer))
 1333 00d0 0E94 0000 		call process_tapping
 1334               	.LVL81:
  73:tmk_core/common/action_tapping.c ****             debug("processed: waiting_buffer["); debug_dec(waiting_buffer_tail); debug("] = ");
 1335               		.loc 1 73 12 view .LVU328
 1336 00d4 8823      		tst r24
 1337 00d6 01F0      		breq .L133
  74:tmk_core/common/action_tapping.c ****             debug_record(waiting_buffer[waiting_buffer_tail]); debug("\n\n");
 1338               		.loc 1 74 48 is_stmt 1 view .LVU329
  74:tmk_core/common/action_tapping.c ****             debug_record(waiting_buffer[waiting_buffer_tail]); debug("\n\n");
 1339               		.loc 1 74 80 view .LVU330
  74:tmk_core/common/action_tapping.c ****             debug_record(waiting_buffer[waiting_buffer_tail]); debug("\n\n");
 1340               		.loc 1 74 95 view .LVU331
  75:tmk_core/common/action_tapping.c ****         } else {
 1341               		.loc 1 75 13 view .LVU332
 1342 00d8 E091 0000 		lds r30,waiting_buffer_tail
 1343 00dc 1E9F      		mul r17,r30
 1344 00de F001      		movw r30,r0
 1345 00e0 1124      		clr __zero_reg__
 1346 00e2 E050      		subi r30,lo8(-(waiting_buffer))
 1347 00e4 F040      		sbci r31,hi8(-(waiting_buffer))
 1348 00e6 4081      		ld r20,Z
 1349 00e8 5181      		ldd r21,Z+1
 1350 00ea 6281      		ldd r22,Z+2
 1351 00ec 7381      		ldd r23,Z+3
 1352 00ee 8481      		ldd r24,Z+4
 1353 00f0 9581      		ldd r25,Z+5
 1354 00f2 0E94 0000 		call debug_record
 1355               	.LVL82:
  75:tmk_core/common/action_tapping.c ****         } else {
 1356               		.loc 1 75 77 view .LVU333
  72:tmk_core/common/action_tapping.c ****         if (process_tapping(&waiting_buffer[waiting_buffer_tail])) {
 1357               		.loc 1 72 99 is_stmt 0 view .LVU334
 1358 00f6 8091 0000 		lds r24,waiting_buffer_tail
 1359 00fa 90E0      		ldi r25,0
 1360 00fc 0196      		adiw r24,1
  72:tmk_core/common/action_tapping.c ****         if (process_tapping(&waiting_buffer[waiting_buffer_tail])) {
 1361               		.loc 1 72 104 view .LVU335
 1362 00fe 8770      		andi r24,7
 1363 0100 9927      		clr r25
  72:tmk_core/common/action_tapping.c ****         if (process_tapping(&waiting_buffer[waiting_buffer_tail])) {
 1364               		.loc 1 72 76 view .LVU336
 1365 0102 8093 0000 		sts waiting_buffer_tail,r24
 1366               	.L142:
  72:tmk_core/common/action_tapping.c ****         if (process_tapping(&waiting_buffer[waiting_buffer_tail])) {
 1367               		.loc 1 72 32 discriminator 1 view .LVU337
 1368 0106 8091 0000 		lds r24,waiting_buffer_tail
  72:tmk_core/common/action_tapping.c ****         if (process_tapping(&waiting_buffer[waiting_buffer_tail])) {
 1369               		.loc 1 72 5 discriminator 1 view .LVU338
 1370 010a 9091 0000 		lds r25,waiting_buffer_head
 1371 010e 8913      		cpse r24,r25
 1372 0110 00C0      		rjmp .L140
 1373               	.L133:
 1374               	/* epilogue start */
  83:tmk_core/common/action_tapping.c **** 
 1375               		.loc 1 83 1 view .LVU339
 1376 0112 2C96      		adiw r28,12
 1377 0114 0FB6      		in __tmp_reg__,__SREG__
 1378 0116 F894      		cli
 1379 0118 DEBF      		out __SP_H__,r29
 1380 011a 0FBE      		out __SREG__,__tmp_reg__
 1381 011c CDBF      		out __SP_L__,r28
 1382 011e DF91      		pop r29
 1383 0120 CF91      		pop r28
 1384 0122 1F91      		pop r17
 1385 0124 0895      		ret
 1386               	.L157:
  56:tmk_core/common/action_tapping.c ****         }
 1387               		.loc 1 56 33 is_stmt 1 view .LVU340
  56:tmk_core/common/action_tapping.c ****         }
 1388               		.loc 1 56 35 view .LVU341
 1389 0126 6985      		ldd r22,Y+9
 1390 0128 7A85      		ldd r23,Y+10
 1391 012a 8B85      		ldd r24,Y+11
 1392 012c 9C85      		ldd r25,Y+12
 1393 012e 0E94 0000 		call debug_record
 1394               	.LVL83:
 1395 0132 00C0      		rjmp .L135
 1396               		.cfi_endproc
 1397               	.LFE5:
 1399               		.section	.bss.waiting_buffer_tail,"aw",@nobits
 1402               	waiting_buffer_tail:
 1403 0000 00        		.zero	1
 1404               		.section	.bss.waiting_buffer_head,"aw",@nobits
 1407               	waiting_buffer_head:
 1408 0000 00        		.zero	1
 1409               		.section	.bss.waiting_buffer,"aw",@nobits
 1412               	waiting_buffer:
 1413 0000 0000 0000 		.zero	48
 1413      0000 0000 
 1413      0000 0000 
 1413      0000 0000 
 1413      0000 0000 
 1414               		.section	.bss.tapping_key,"aw",@nobits
 1417               	tapping_key:
 1418 0000 0000 0000 		.zero	6
 1418      0000 
 1419               		.text
 1420               	.Letext0:
 1421               		.file 3 "/usr/local/Cellar/avr-gcc/8.3.0/avr/include/stdint.h"
 1422               		.file 4 "tmk_core/common/keycode.h"
 1423               		.file 5 "tmk_core/common/action_code.h"
 1424               		.file 6 "tmk_core/common/action.h"
 1425               		.file 7 "tmk_core/common/action_layer.h"
 1426               		.file 8 "tmk_core/common/timer.h"
 1427               		.file 9 "tmk_core/common/debug.h"