Archive member included to satisfy reference by file (symbol)

/usr/local/Cellar/avr-gcc/8.3.0/lib/avr-gcc/8/gcc/avr/8.3.0/avr5/libgcc.a(_udivmodhi4.o)
                              .build/obj_ergodox_ez_default/quantum/debounce/eager_pr.o (__udivmodhi4)
/usr/local/Cellar/avr-gcc/8.3.0/lib/avr-gcc/8/gcc/avr/8.3.0/avr5/libgcc.a(_divmodhi4.o)
                              .build/obj_ergodox_ez_default/quantum/rgblight.o (__divmodhi4)
/usr/local/Cellar/avr-gcc/8.3.0/lib/avr-gcc/8/gcc/avr/8.3.0/avr5/libgcc.a(_exit.o)
                              /usr/local/Cellar/avr-gcc/8.3.0/lib/avr-gcc/8/gcc/avr/8.3.0/../../../../../../avr/lib/avr5/crtatmega32u4.o (exit)
/usr/local/Cellar/avr-gcc/8.3.0/lib/avr-gcc/8/gcc/avr/8.3.0/avr5/libgcc.a(_tablejump2.o)
                              .build/obj_ergodox_ez_default/keyboards/ergodox_ez/keymaps/default/keymap.o (__tablejump2__)
/usr/local/Cellar/avr-gcc/8.3.0/lib/avr-gcc/8/gcc/avr/8.3.0/avr5/libgcc.a(_copy_data.o)
                              .build/obj_ergodox_ez_default/keyboards/ergodox_ez/ergodox_ez.o (__do_copy_data)
/usr/local/Cellar/avr-gcc/8.3.0/lib/avr-gcc/8/gcc/avr/8.3.0/avr5/libgcc.a(_clear_bss.o)
                              .build/obj_ergodox_ez_default/matrix.o (__do_clear_bss)
/usr/local/Cellar/avr-gcc/8.3.0/lib/avr-gcc/8/gcc/avr/8.3.0/../../../../../../avr/lib/avr5/libc.a(malloc.o)
                              .build/obj_ergodox_ez_default/quantum/debounce/eager_pr.o (malloc)
/usr/local/Cellar/avr-gcc/8.3.0/lib/avr-gcc/8/gcc/avr/8.3.0/../../../../../../avr/lib/avr5/libc.a(tolower.o)
                              .build/obj_ergodox_ez_default/quantum/process_keycode/process_unicode_common.o (tolower)
/usr/local/Cellar/avr-gcc/8.3.0/lib/avr-gcc/8/gcc/avr/8.3.0/../../../../../../avr/lib/avr5/libc.a(memchr.o)
                              .build/obj_ergodox_ez_default/quantum/rgblight.o (memchr)
/usr/local/Cellar/avr-gcc/8.3.0/lib/avr-gcc/8/gcc/avr/8.3.0/../../../../../../avr/lib/avr5/libc.a(memmove.o)
                              .build/obj_ergodox_ez_default/lib/lufa/LUFA/Drivers/USB/Class/Common/HIDParser.o (memmove)
/usr/local/Cellar/avr-gcc/8.3.0/lib/avr-gcc/8/gcc/avr/8.3.0/../../../../../../avr/lib/avr5/libc.a(strcspn.o)
                              .build/obj_ergodox_ez_default/quantum/process_keycode/process_unicode_common.o (strcspn)
/usr/local/Cellar/avr-gcc/8.3.0/lib/avr-gcc/8/gcc/avr/8.3.0/../../../../../../avr/lib/avr5/libc.a(strncpy.o)
                              .build/obj_ergodox_ez_default/quantum/process_keycode/process_unicode_common.o (strncpy)
/usr/local/Cellar/avr-gcc/8.3.0/lib/avr-gcc/8/gcc/avr/8.3.0/../../../../../../avr/lib/avr5/libc.a(memcpy.o)
                              /usr/local/Cellar/avr-gcc/8.3.0/lib/avr-gcc/8/gcc/avr/8.3.0/../../../../../../avr/lib/avr5/libc.a(memmove.o) (memcpy)
/usr/local/Cellar/avr-gcc/8.3.0/lib/avr-gcc/8/gcc/avr/8.3.0/../../../../../../avr/lib/avr5/libatmega32u4.a(eerd_byte.o)
                              .build/obj_ergodox_ez_default/quantum/process_keycode/process_unicode_common.o (eeprom_read_byte)
/usr/local/Cellar/avr-gcc/8.3.0/lib/avr-gcc/8/gcc/avr/8.3.0/../../../../../../avr/lib/avr5/libatmega32u4.a(eerd_dword.o)
                              .build/obj_ergodox_ez_default/quantum/rgblight.o (eeprom_read_dword)
/usr/local/Cellar/avr-gcc/8.3.0/lib/avr-gcc/8/gcc/avr/8.3.0/../../../../../../avr/lib/avr5/libatmega32u4.a(eerd_word.o)
                              .build/obj_ergodox_ez_default/common/eeconfig.o (eeprom_read_word)
/usr/local/Cellar/avr-gcc/8.3.0/lib/avr-gcc/8/gcc/avr/8.3.0/../../../../../../avr/lib/avr5/libatmega32u4.a(eeupd_byte.o)
                              .build/obj_ergodox_ez_default/quantum/process_keycode/process_unicode_common.o (eeprom_update_byte)
/usr/local/Cellar/avr-gcc/8.3.0/lib/avr-gcc/8/gcc/avr/8.3.0/../../../../../../avr/lib/avr5/libatmega32u4.a(eeupd_dword.o)
                              .build/obj_ergodox_ez_default/quantum/rgblight.o (eeprom_update_dword)
/usr/local/Cellar/avr-gcc/8.3.0/lib/avr-gcc/8/gcc/avr/8.3.0/../../../../../../avr/lib/avr5/libatmega32u4.a(eeupd_word.o)
                              .build/obj_ergodox_ez_default/common/eeconfig.o (eeprom_update_word)
/usr/local/Cellar/avr-gcc/8.3.0/lib/avr-gcc/8/gcc/avr/8.3.0/../../../../../../avr/lib/avr5/libatmega32u4.a(eerd_block.o)
                              /usr/local/Cellar/avr-gcc/8.3.0/lib/avr-gcc/8/gcc/avr/8.3.0/../../../../../../avr/lib/avr5/libatmega32u4.a(eerd_dword.o) (eeprom_read_blraw)

Allocating common symbols
Common symbol       size              file

rgblight_config     0x5               .build/obj_ergodox_ez_default/quantum/rgblight.o
USB_IsInitialized   0x1               .build/obj_ergodox_ez_default/lib/lufa/LUFA/Drivers/USB/Core/USBTask.o
keymap_config       0x2               .build/obj_ergodox_ez_default/common/magic.o
unicode_config      0x4               .build/obj_ergodox_ez_default/quantum/process_keycode/process_unicode_common.o
USB_DeviceState     0x1               .build/obj_ergodox_ez_default/lib/lufa/LUFA/Drivers/USB/Core/USBTask.o
__brkval            0x2               /usr/local/Cellar/avr-gcc/8.3.0/lib/avr-gcc/8/gcc/avr/8.3.0/../../../../../../avr/lib/avr5/libc.a(malloc.o)
unicode_saved_mods  0x1               .build/obj_ergodox_ez_default/quantum/process_keycode/process_unicode_common.o
USB_Device_ConfigurationNumber
                    0x1               .build/obj_ergodox_ez_default/lib/lufa/LUFA/Drivers/USB/Core/DeviceStandardReq.o
led                 0x3c              .build/obj_ergodox_ez_default/quantum/rgblight.o
USB_Device_CurrentlySelfPowered
                    0x1               .build/obj_ergodox_ez_default/lib/lufa/LUFA/Drivers/USB/Core/DeviceStandardReq.o
USB_ControlRequest  0x8               .build/obj_ergodox_ez_default/lib/lufa/LUFA/Drivers/USB/Core/USBTask.o
tp_buttons          0x2               .build/obj_ergodox_ez_default/common/action.o
USB_Device_RemoteWakeupEnabled
                    0x1               .build/obj_ergodox_ez_default/lib/lufa/LUFA/Drivers/USB/Core/DeviceStandardReq.o
__flp               0x2               /usr/local/Cellar/avr-gcc/8.3.0/lib/avr-gcc/8/gcc/avr/8.3.0/../../../../../../avr/lib/avr5/libc.a(malloc.o)
timer_count         0x4               .build/obj_ergodox_ez_default/common/avr/timer.o

Discarded input sections

 .data          0x0000000000000000        0x0 /usr/local/Cellar/avr-gcc/8.3.0/lib/avr-gcc/8/gcc/avr/8.3.0/../../../../../../avr/lib/avr5/crtatmega32u4.o
 .bss           0x0000000000000000        0x0 /usr/local/Cellar/avr-gcc/8.3.0/lib/avr-gcc/8/gcc/avr/8.3.0/../../../../../../avr/lib/avr5/crtatmega32u4.o
 .text          0x0000000000000000        0x0 .build/obj_ergodox_ez_default/matrix.o
 .data          0x0000000000000000        0x0 .build/obj_ergodox_ez_default/matrix.o
 .bss           0x0000000000000000        0x0 .build/obj_ergodox_ez_default/matrix.o
 .text.matrix_init_user
                0x0000000000000000        0x2 .build/obj_ergodox_ez_default/matrix.o
 .text.matrix_init_kb
                0x0000000000000000        0x4 .build/obj_ergodox_ez_default/matrix.o
 .text.matrix_rows
                0x0000000000000000        0x4 .build/obj_ergodox_ez_default/matrix.o
 .text.matrix_cols
                0x0000000000000000        0x4 .build/obj_ergodox_ez_default/matrix.o
 .text.matrix_is_modified
                0x0000000000000000        0x4 .build/obj_ergodox_ez_default/matrix.o
 .text.matrix_is_on
                0x0000000000000000       0x28 .build/obj_ergodox_ez_default/matrix.o
 .text.matrix_key_count
                0x0000000000000000       0x2c .build/obj_ergodox_ez_default/matrix.o
 .text          0x0000000000000000        0x0 .build/obj_ergodox_ez_default/i2c_master.o
 .data          0x0000000000000000        0x0 .build/obj_ergodox_ez_default/i2c_master.o
 .bss           0x0000000000000000        0x0 .build/obj_ergodox_ez_default/i2c_master.o
 .text.i2c_read_ack
                0x0000000000000000       0x48 .build/obj_ergodox_ez_default/i2c_master.o
 .text.i2c_transmit
                0x0000000000000000       0x4e .build/obj_ergodox_ez_default/i2c_master.o
 .text.i2c_receive
                0x0000000000000000       0x82 .build/obj_ergodox_ez_default/i2c_master.o
 .text.i2c_writeReg
                0x0000000000000000       0x5a .build/obj_ergodox_ez_default/i2c_master.o
 .text.i2c_readReg
                0x0000000000000000       0x9e .build/obj_ergodox_ez_default/i2c_master.o
 .text          0x0000000000000000        0x0 .build/obj_ergodox_ez_default/keyboards/ergodox_ez/ergodox_ez.o
 .data          0x0000000000000000        0x0 .build/obj_ergodox_ez_default/keyboards/ergodox_ez/ergodox_ez.o
 .bss           0x0000000000000000        0x0 .build/obj_ergodox_ez_default/keyboards/ergodox_ez/ergodox_ez.o
 .text.ergodox_board_led_on
                0x0000000000000000        0x6 .build/obj_ergodox_ez_default/keyboards/ergodox_ez/ergodox_ez.o
 .text.ergodox_right_led_on
                0x0000000000000000       0x1e .build/obj_ergodox_ez_default/keyboards/ergodox_ez/ergodox_ez.o
 .text.ergodox_right_led_off
                0x0000000000000000       0x1e .build/obj_ergodox_ez_default/keyboards/ergodox_ez/ergodox_ez.o
 .text.ergodox_led_all_on
                0x0000000000000000       0x10 .build/obj_ergodox_ez_default/keyboards/ergodox_ez/ergodox_ez.o
 .text.ergodox_right_led_1_set
                0x0000000000000000        0xc .build/obj_ergodox_ez_default/keyboards/ergodox_ez/ergodox_ez.o
 .text.ergodox_right_led_2_set
                0x0000000000000000        0xc .build/obj_ergodox_ez_default/keyboards/ergodox_ez/ergodox_ez.o
 .text.ergodox_right_led_3_set
                0x0000000000000000        0xc .build/obj_ergodox_ez_default/keyboards/ergodox_ez/ergodox_ez.o
 .text.ergodox_right_led_set
                0x0000000000000000       0x28 .build/obj_ergodox_ez_default/keyboards/ergodox_ez/ergodox_ez.o
 .text          0x0000000000000000        0x0 .build/obj_ergodox_ez_default/keyboards/ergodox_ez/keymaps/default/keymap.o
 .data          0x0000000000000000        0x0 .build/obj_ergodox_ez_default/keyboards/ergodox_ez/keymaps/default/keymap.o
 .bss           0x0000000000000000        0x0 .build/obj_ergodox_ez_default/keyboards/ergodox_ez/keymaps/default/keymap.o
 .text          0x0000000000000000        0x0 .build/obj_ergodox_ez_default/quantum/quantum.o
 .data          0x0000000000000000        0x0 .build/obj_ergodox_ez_default/quantum/quantum.o
 .bss           0x0000000000000000        0x0 .build/obj_ergodox_ez_default/quantum/quantum.o
 .text.process_record_user
                0x0000000000000000        0x4 .build/obj_ergodox_ez_default/quantum/quantum.o
 .text.send_string_with_delay
                0x0000000000000000       0x6c .build/obj_ergodox_ez_default/quantum/quantum.o
 .text.send_string
                0x0000000000000000        0x6 .build/obj_ergodox_ez_default/quantum/quantum.o
 .text.set_single_persistent_default_layer
                0x0000000000000000       0x26 .build/obj_ergodox_ez_default/quantum/quantum.o
 .text.update_tri_layer_state
                0x0000000000000000       0xa8 .build/obj_ergodox_ez_default/quantum/quantum.o
 .text.update_tri_layer
                0x0000000000000000       0x24 .build/obj_ergodox_ez_default/quantum/quantum.o
 .text.tap_random_base64
                0x0000000000000000       0x90 .build/obj_ergodox_ez_default/quantum/quantum.o
 .text.bootmagic_lite
                0x0000000000000000       0x2e .build/obj_ergodox_ez_default/quantum/quantum.o
 .text.backlight_init_ports
                0x0000000000000000        0x2 .build/obj_ergodox_ez_default/quantum/quantum.o
 .text.send_nibble
                0x0000000000000000       0x30 .build/obj_ergodox_ez_default/quantum/quantum.o
 .text.send_byte
                0x0000000000000000       0x16 .build/obj_ergodox_ez_default/quantum/quantum.o
 .text.send_word
                0x0000000000000000       0x12 .build/obj_ergodox_ez_default/quantum/quantum.o
 .text.send_dword
                0x0000000000000000       0x1c .build/obj_ergodox_ez_default/quantum/quantum.o
 .text.api_send_unicode
                0x0000000000000000        0x2 .build/obj_ergodox_ez_default/quantum/quantum.o
 .text.backlight_set
                0x0000000000000000        0x2 .build/obj_ergodox_ez_default/quantum/quantum.o
 .text.led_init_ports
                0x0000000000000000        0x2 .build/obj_ergodox_ez_default/quantum/quantum.o
 .text.startup_user
                0x0000000000000000        0x2 .build/obj_ergodox_ez_default/quantum/quantum.o
 .text          0x0000000000000000        0x0 .build/obj_ergodox_ez_default/quantum/keymap_common.o
 .data          0x0000000000000000        0x0 .build/obj_ergodox_ez_default/quantum/keymap_common.o
 .bss           0x0000000000000000        0x0 .build/obj_ergodox_ez_default/quantum/keymap_common.o
 .text          0x0000000000000000        0x0 .build/obj_ergodox_ez_default/quantum/keycode_config.o
 .data          0x0000000000000000        0x0 .build/obj_ergodox_ez_default/quantum/keycode_config.o
 .bss           0x0000000000000000        0x0 .build/obj_ergodox_ez_default/quantum/keycode_config.o
 .text          0x0000000000000000        0x0 .build/obj_ergodox_ez_default/quantum/debounce/eager_pr.o
 .data          0x0000000000000000        0x0 .build/obj_ergodox_ez_default/quantum/debounce/eager_pr.o
 .bss           0x0000000000000000        0x0 .build/obj_ergodox_ez_default/quantum/debounce/eager_pr.o
 .text.debounce_active
                0x0000000000000000        0x4 .build/obj_ergodox_ez_default/quantum/debounce/eager_pr.o
 .text          0x0000000000000000        0x0 .build/obj_ergodox_ez_default/quantum/process_keycode/process_unicode.o
 .data          0x0000000000000000        0x0 .build/obj_ergodox_ez_default/quantum/process_keycode/process_unicode.o
 .bss           0x0000000000000000        0x0 .build/obj_ergodox_ez_default/quantum/process_keycode/process_unicode.o
 .text          0x0000000000000000        0x0 .build/obj_ergodox_ez_default/quantum/process_keycode/process_unicode_common.o
 .data          0x0000000000000000        0x0 .build/obj_ergodox_ez_default/quantum/process_keycode/process_unicode_common.o
 .bss           0x0000000000000000        0x0 .build/obj_ergodox_ez_default/quantum/process_keycode/process_unicode_common.o
 .text.get_unicode_input_mode
                0x0000000000000000        0x6 .build/obj_ergodox_ez_default/quantum/process_keycode/process_unicode_common.o
 .text.cycle_unicode_input_mode
                0x0000000000000000        0x2 .build/obj_ergodox_ez_default/quantum/process_keycode/process_unicode_common.o
 .text.set_unicode_input_mode
                0x0000000000000000        0x8 .build/obj_ergodox_ez_default/quantum/process_keycode/process_unicode_common.o
 .text.unicode_input_cancel
                0x0000000000000000       0x2a .build/obj_ergodox_ez_default/quantum/process_keycode/process_unicode_common.o
 .text.hex_to_keycode
                0x0000000000000000       0x18 .build/obj_ergodox_ez_default/quantum/process_keycode/process_unicode_common.o
 .rodata.send_unicode_hex_string.str1.1
                0x0000000000000000        0x2 .build/obj_ergodox_ez_default/quantum/process_keycode/process_unicode_common.o
 .text.send_unicode_hex_string
                0x0000000000000000       0xd8 .build/obj_ergodox_ez_default/quantum/process_keycode/process_unicode_common.o
 .text          0x0000000000000000        0x0 .build/obj_ergodox_ez_default/quantum/color.o
 .data          0x0000000000000000        0x0 .build/obj_ergodox_ez_default/quantum/color.o
 .bss           0x0000000000000000        0x0 .build/obj_ergodox_ez_default/quantum/color.o
 .text          0x0000000000000000        0x0 .build/obj_ergodox_ez_default/quantum/rgblight.o
 .data          0x0000000000000000        0x0 .build/obj_ergodox_ez_default/quantum/rgblight.o
 .bss           0x0000000000000000        0x0 .build/obj_ergodox_ez_default/quantum/rgblight.o
 .text.rgblight_set_clipping_range
                0x0000000000000000        0xa .build/obj_ergodox_ez_default/quantum/rgblight.o
 .text.setrgb   0x0000000000000000        0xa .build/obj_ergodox_ez_default/quantum/rgblight.o
 .text.eeconfig_debug_rgblight
                0x0000000000000000        0x2 .build/obj_ergodox_ez_default/quantum/rgblight.o
 .text.rgblight_read_dword
                0x0000000000000000       0x12 .build/obj_ergodox_ez_default/quantum/rgblight.o
 .text.rgblight_get_hue
                0x0000000000000000        0x6 .build/obj_ergodox_ez_default/quantum/rgblight.o
 .text.rgblight_get_sat
                0x0000000000000000        0x6 .build/obj_ergodox_ez_default/quantum/rgblight.o
 .text.rgblight_get_val
                0x0000000000000000        0x6 .build/obj_ergodox_ez_default/quantum/rgblight.o
 .text.rgblight_increase_hue_noeeprom
                0x0000000000000000        0x6 .build/obj_ergodox_ez_default/quantum/rgblight.o
 .text.rgblight_decrease_hue_noeeprom
                0x0000000000000000        0x6 .build/obj_ergodox_ez_default/quantum/rgblight.o
 .text.rgblight_increase_sat_noeeprom
                0x0000000000000000        0x6 .build/obj_ergodox_ez_default/quantum/rgblight.o
 .text.rgblight_decrease_sat_noeeprom
                0x0000000000000000        0x6 .build/obj_ergodox_ez_default/quantum/rgblight.o
 .text.rgblight_increase_val_noeeprom
                0x0000000000000000        0x6 .build/obj_ergodox_ez_default/quantum/rgblight.o
 .text.rgblight_decrease_val_noeeprom
                0x0000000000000000        0x6 .build/obj_ergodox_ez_default/quantum/rgblight.o
 .text.rgblight_sethsv
                0x0000000000000000        0x6 .build/obj_ergodox_ez_default/quantum/rgblight.o
 .text.rgblight_setrgb_at
                0x0000000000000000       0x24 .build/obj_ergodox_ez_default/quantum/rgblight.o
 .text.rgblight_sethsv_at
                0x0000000000000000       0x3e .build/obj_ergodox_ez_default/quantum/rgblight.o
 .text.rgblight_setrgb_range
                0x0000000000000000       0x40 .build/obj_ergodox_ez_default/quantum/rgblight.o
 .text.rgblight_sethsv_range
                0x0000000000000000       0x42 .build/obj_ergodox_ez_default/quantum/rgblight.o
 .text.rgblight_sethsv_master
                0x0000000000000000        0xe .build/obj_ergodox_ez_default/quantum/rgblight.o
 .text.rgblight_sethsv_slave
                0x0000000000000000        0xe .build/obj_ergodox_ez_default/quantum/rgblight.o
 .text.rgblight_setrgb_master
                0x0000000000000000        0xe .build/obj_ergodox_ez_default/quantum/rgblight.o
 .text.rgblight_setrgb_slave
                0x0000000000000000        0xe .build/obj_ergodox_ez_default/quantum/rgblight.o
 .text.rgblight_disable_noeeprom
                0x0000000000000000       0x24 .build/obj_ergodox_ez_default/quantum/rgblight.o
 .text.rgblight_timer_init
                0x0000000000000000        0x6 .build/obj_ergodox_ez_default/quantum/rgblight.o
 .text.rgblight_step_noeeprom
                0x0000000000000000        0x6 .build/obj_ergodox_ez_default/quantum/rgblight.o
 .text.rgblight_step_reverse_noeeprom
                0x0000000000000000        0x6 .build/obj_ergodox_ez_default/quantum/rgblight.o
 .text.rgblight_increase
                0x0000000000000000       0x14 .build/obj_ergodox_ez_default/quantum/rgblight.o
 .text.rgblight_decrease
                0x0000000000000000       0x14 .build/obj_ergodox_ez_default/quantum/rgblight.o
 .text.rgblight_enable_noeeprom
                0x0000000000000000       0x10 .build/obj_ergodox_ez_default/quantum/rgblight.o
 .text.rgblight_toggle_noeeprom
                0x0000000000000000        0xe .build/obj_ergodox_ez_default/quantum/rgblight.o
 .text.rgblight_update_dword
                0x0000000000000000       0x24 .build/obj_ergodox_ez_default/quantum/rgblight.o
 .text.rgblight_timer_disable
                0x0000000000000000        0x6 .build/obj_ergodox_ez_default/quantum/rgblight.o
 .text.rgblight_timer_toggle
                0x0000000000000000       0x12 .build/obj_ergodox_ez_default/quantum/rgblight.o
 .text.rgblight_show_solid_color
                0x0000000000000000       0x26 .build/obj_ergodox_ez_default/quantum/rgblight.o
 .text          0x0000000000000000        0x0 .build/obj_ergodox_ez_default/ws2812.o
 .data          0x0000000000000000        0x0 .build/obj_ergodox_ez_default/ws2812.o
 .bss           0x0000000000000000        0x0 .build/obj_ergodox_ez_default/ws2812.o
 .text.ws2812_setleds_pin
                0x0000000000000000       0x22 .build/obj_ergodox_ez_default/ws2812.o
 .text.ws2812_setleds
                0x0000000000000000        0x6 .build/obj_ergodox_ez_default/ws2812.o
 .text.ws2812_sendarray
                0x0000000000000000        0x6 .build/obj_ergodox_ez_default/ws2812.o
 .text          0x0000000000000000        0x0 .build/obj_ergodox_ez_default/quantum/led_tables.o
 .data          0x0000000000000000        0x0 .build/obj_ergodox_ez_default/quantum/led_tables.o
 .bss           0x0000000000000000        0x0 .build/obj_ergodox_ez_default/quantum/led_tables.o
 .progmem.data.LED_BREATHING_TABLE
                0x0000000000000000      0x100 .build/obj_ergodox_ez_default/quantum/led_tables.o
 .text          0x0000000000000000        0x0 .build/obj_ergodox_ez_default/quantum/process_keycode/process_space_cadet.o
 .data          0x0000000000000000        0x0 .build/obj_ergodox_ez_default/quantum/process_keycode/process_space_cadet.o
 .bss           0x0000000000000000        0x0 .build/obj_ergodox_ez_default/quantum/process_keycode/process_space_cadet.o
 .text          0x0000000000000000        0x0 .build/obj_ergodox_ez_default/common/host.o
 .data          0x0000000000000000        0x0 .build/obj_ergodox_ez_default/common/host.o
 .bss           0x0000000000000000        0x0 .build/obj_ergodox_ez_default/common/host.o
 .text.host_get_driver
                0x0000000000000000        0xa .build/obj_ergodox_ez_default/common/host.o
 .text.host_last_system_report
                0x0000000000000000        0xa .build/obj_ergodox_ez_default/common/host.o
 .text.host_last_consumer_report
                0x0000000000000000        0xa .build/obj_ergodox_ez_default/common/host.o
 .text          0x0000000000000000        0x0 .build/obj_ergodox_ez_default/common/keyboard.o
 .data          0x0000000000000000        0x0 .build/obj_ergodox_ez_default/common/keyboard.o
 .bss           0x0000000000000000        0x0 .build/obj_ergodox_ez_default/common/keyboard.o
 .text.keyboard_set_leds
                0x0000000000000000        0x4 .build/obj_ergodox_ez_default/common/keyboard.o
 .text          0x0000000000000000        0x0 .build/obj_ergodox_ez_default/common/action.o
 .data          0x0000000000000000        0x0 .build/obj_ergodox_ez_default/common/action.o
 .bss           0x0000000000000000        0x0 .build/obj_ergodox_ez_default/common/action.o
 .text.process_record_quantum
                0x0000000000000000        0x4 .build/obj_ergodox_ez_default/common/action.o
 .text.process_record_nocache
                0x0000000000000000       0x10 .build/obj_ergodox_ez_default/common/action.o
 .text.debug_action
                0x0000000000000000        0x2 .build/obj_ergodox_ez_default/common/action.o
 .text          0x0000000000000000        0x0 .build/obj_ergodox_ez_default/common/action_tapping.o
 .data          0x0000000000000000        0x0 .build/obj_ergodox_ez_default/common/action_tapping.o
 .bss           0x0000000000000000        0x0 .build/obj_ergodox_ez_default/common/action_tapping.o
 .text.get_tapping_term
                0x0000000000000000        0x6 .build/obj_ergodox_ez_default/common/action_tapping.o
 .text          0x0000000000000000        0x0 .build/obj_ergodox_ez_default/common/action_macro.o
 .data          0x0000000000000000        0x0 .build/obj_ergodox_ez_default/common/action_macro.o
 .bss           0x0000000000000000        0x0 .build/obj_ergodox_ez_default/common/action_macro.o
 .text          0x0000000000000000        0x0 .build/obj_ergodox_ez_default/common/action_layer.o
 .data          0x0000000000000000        0x0 .build/obj_ergodox_ez_default/common/action_layer.o
 .bss           0x0000000000000000        0x0 .build/obj_ergodox_ez_default/common/action_layer.o
 .text.layer_state_set_user
                0x0000000000000000        0x4 .build/obj_ergodox_ez_default/common/action_layer.o
 .text.layer_state_cmp
                0x0000000000000000       0x2a .build/obj_ergodox_ez_default/common/action_layer.o
 .text.layer_state_is
                0x0000000000000000       0x16 .build/obj_ergodox_ez_default/common/action_layer.o
 .text          0x0000000000000000        0x0 .build/obj_ergodox_ez_default/common/action_util.o
 .data          0x0000000000000000        0x0 .build/obj_ergodox_ez_default/common/action_util.o
 .bss           0x0000000000000000        0x0 .build/obj_ergodox_ez_default/common/action_util.o
 .text.get_oneshot_locked_mods
                0x0000000000000000        0x6 .build/obj_ergodox_ez_default/common/action_util.o
 .text.has_oneshot_mods_timed_out
                0x0000000000000000        0x4 .build/obj_ergodox_ez_default/common/action_util.o
 .text.get_weak_mods
                0x0000000000000000        0x6 .build/obj_ergodox_ez_default/common/action_util.o
 .text.set_weak_mods
                0x0000000000000000        0x6 .build/obj_ergodox_ez_default/common/action_util.o
 .text.get_macro_mods
                0x0000000000000000        0x6 .build/obj_ergodox_ez_default/common/action_util.o
 .text.set_macro_mods
                0x0000000000000000        0x6 .build/obj_ergodox_ez_default/common/action_util.o
 .text.oneshot_locked_mods_changed_user
                0x0000000000000000        0x2 .build/obj_ergodox_ez_default/common/action_util.o
 .text.oneshot_locked_mods_changed_kb
                0x0000000000000000        0x4 .build/obj_ergodox_ez_default/common/action_util.o
 .text.set_oneshot_locked_mods
                0x0000000000000000       0x12 .build/obj_ergodox_ez_default/common/action_util.o
 .text.clear_oneshot_locked_mods
                0x0000000000000000       0x14 .build/obj_ergodox_ez_default/common/action_util.o
 .text.has_anymod
                0x0000000000000000        0x8 .build/obj_ergodox_ez_default/common/action_util.o
 .bss.oneshot_locked_mods
                0x0000000000000000        0x1 .build/obj_ergodox_ez_default/common/action_util.o
 .text          0x0000000000000000        0x0 .build/obj_ergodox_ez_default/common/print.o
 .data          0x0000000000000000        0x0 .build/obj_ergodox_ez_default/common/print.o
 .bss           0x0000000000000000        0x0 .build/obj_ergodox_ez_default/common/print.o
 .debug_info    0x0000000000000000       0x56 .build/obj_ergodox_ez_default/common/print.o
 .debug_abbrev  0x0000000000000000       0x26 .build/obj_ergodox_ez_default/common/print.o
 .debug_aranges
                0x0000000000000000       0x18 .build/obj_ergodox_ez_default/common/print.o
 .debug_line    0x0000000000000000       0x1d .build/obj_ergodox_ez_default/common/print.o
 .debug_str     0x0000000000000000      0x197 .build/obj_ergodox_ez_default/common/print.o
 .comment       0x0000000000000000       0x12 .build/obj_ergodox_ez_default/common/print.o
 .text          0x0000000000000000        0x0 .build/obj_ergodox_ez_default/common/debug.o
 .data          0x0000000000000000        0x0 .build/obj_ergodox_ez_default/common/debug.o
 .bss           0x0000000000000000        0x0 .build/obj_ergodox_ez_default/common/debug.o
 .text          0x0000000000000000        0x0 .build/obj_ergodox_ez_default/common/util.o
 .data          0x0000000000000000        0x0 .build/obj_ergodox_ez_default/common/util.o
 .bss           0x0000000000000000        0x0 .build/obj_ergodox_ez_default/common/util.o
 .text.bitpop   0x0000000000000000       0x14 .build/obj_ergodox_ez_default/common/util.o
 .text.bitpop16
                0x0000000000000000       0x18 .build/obj_ergodox_ez_default/common/util.o
 .text.bitpop32
                0x0000000000000000       0x3a .build/obj_ergodox_ez_default/common/util.o
 .text.biton    0x0000000000000000       0x22 .build/obj_ergodox_ez_default/common/util.o
 .text.biton16  0x0000000000000000       0x48 .build/obj_ergodox_ez_default/common/util.o
 .text.bitrev   0x0000000000000000       0x30 .build/obj_ergodox_ez_default/common/util.o
 .text.bitrev16
                0x0000000000000000       0x1a .build/obj_ergodox_ez_default/common/util.o
 .text.bitrev32
                0x0000000000000000       0x4c .build/obj_ergodox_ez_default/common/util.o
 .text          0x0000000000000000        0x0 .build/obj_ergodox_ez_default/common/eeconfig.o
 .data          0x0000000000000000        0x0 .build/obj_ergodox_ez_default/common/eeconfig.o
 .bss           0x0000000000000000        0x0 .build/obj_ergodox_ez_default/common/eeconfig.o
 .text.eeconfig_enable
                0x0000000000000000        0xc .build/obj_ergodox_ez_default/common/eeconfig.o
 .text.eeconfig_disable
                0x0000000000000000        0xc .build/obj_ergodox_ez_default/common/eeconfig.o
 .text.eeconfig_is_disabled
                0x0000000000000000       0x14 .build/obj_ergodox_ez_default/common/eeconfig.o
 .text.eeconfig_update_debug
                0x0000000000000000        0xa .build/obj_ergodox_ez_default/common/eeconfig.o
 .text.eeconfig_update_default_layer
                0x0000000000000000        0xa .build/obj_ergodox_ez_default/common/eeconfig.o
 .text.eeconfig_read_backlight
                0x0000000000000000        0x8 .build/obj_ergodox_ez_default/common/eeconfig.o
 .text.eeconfig_update_backlight
                0x0000000000000000        0xa .build/obj_ergodox_ez_default/common/eeconfig.o
 .text.eeconfig_read_audio
                0x0000000000000000        0x8 .build/obj_ergodox_ez_default/common/eeconfig.o
 .text.eeconfig_update_audio
                0x0000000000000000        0xa .build/obj_ergodox_ez_default/common/eeconfig.o
 .text.eeconfig_read_kb
                0x0000000000000000        0x8 .build/obj_ergodox_ez_default/common/eeconfig.o
 .text.eeconfig_read_user
                0x0000000000000000        0x8 .build/obj_ergodox_ez_default/common/eeconfig.o
 .text.eeconfig_read_haptic
                0x0000000000000000        0x8 .build/obj_ergodox_ez_default/common/eeconfig.o
 .text.eeconfig_update_haptic
                0x0000000000000000        0xc .build/obj_ergodox_ez_default/common/eeconfig.o
 .text          0x0000000000000000        0x0 .build/obj_ergodox_ez_default/common/report.o
 .data          0x0000000000000000        0x0 .build/obj_ergodox_ez_default/common/report.o
 .bss           0x0000000000000000        0x0 .build/obj_ergodox_ez_default/common/report.o
 .text.get_first_key
                0x0000000000000000       0x4a .build/obj_ergodox_ez_default/common/report.o
 .text          0x0000000000000000        0x0 .build/obj_ergodox_ez_default/common/avr/suspend.o
 .data          0x0000000000000000        0x0 .build/obj_ergodox_ez_default/common/avr/suspend.o
 .bss           0x0000000000000000        0x0 .build/obj_ergodox_ez_default/common/avr/suspend.o
 .text.suspend_idle
                0x0000000000000000       0x1a .build/obj_ergodox_ez_default/common/avr/suspend.o
 .text.matrix_power_up
                0x0000000000000000        0x2 .build/obj_ergodox_ez_default/common/avr/suspend.o
 .text          0x0000000000000000        0x0 .build/obj_ergodox_ez_default/common/avr/timer.o
 .data          0x0000000000000000        0x0 .build/obj_ergodox_ez_default/common/avr/timer.o
 .bss           0x0000000000000000        0x0 .build/obj_ergodox_ez_default/common/avr/timer.o
 .text.timer_clear
                0x0000000000000000       0x18 .build/obj_ergodox_ez_default/common/avr/timer.o
 .text.timer_read32
                0x0000000000000000       0x18 .build/obj_ergodox_ez_default/common/avr/timer.o
 .text.timer_elapsed32
                0x0000000000000000       0x3a .build/obj_ergodox_ez_default/common/avr/timer.o
 .text          0x0000000000000000        0x0 .build/obj_ergodox_ez_default/common/avr/bootloader.o
 .data          0x0000000000000000        0x0 .build/obj_ergodox_ez_default/common/avr/bootloader.o
 .bss           0x0000000000000000        0x0 .build/obj_ergodox_ez_default/common/avr/bootloader.o
 .noinit        0x0000000000000000        0x4 .build/obj_ergodox_ez_default/common/avr/bootloader.o
 .text          0x0000000000000000      0x15c .build/obj_ergodox_ez_default/common/avr/xprintf.o
 .data          0x0000000000000000        0x0 .build/obj_ergodox_ez_default/common/avr/xprintf.o
 .bss           0x0000000000000000        0x2 .build/obj_ergodox_ez_default/common/avr/xprintf.o
 .stab          0x0000000000000000      0x8b8 .build/obj_ergodox_ez_default/common/avr/xprintf.o
 .text          0x0000000000000000        0x0 .build/obj_ergodox_ez_default/common/magic.o
 .data          0x0000000000000000        0x0 .build/obj_ergodox_ez_default/common/magic.o
 .bss           0x0000000000000000        0x0 .build/obj_ergodox_ez_default/common/magic.o
 .text          0x0000000000000000        0x0 .build/obj_ergodox_ez_default/common/mousekey.o
 .data          0x0000000000000000        0x0 .build/obj_ergodox_ez_default/common/mousekey.o
 .bss           0x0000000000000000        0x0 .build/obj_ergodox_ez_default/common/mousekey.o
 .text          0x0000000000000000        0x0 .build/obj_ergodox_ez_default/common/command.o
 .data          0x0000000000000000        0x0 .build/obj_ergodox_ez_default/common/command.o
 .bss           0x0000000000000000        0x0 .build/obj_ergodox_ez_default/common/command.o
 .text          0x0000000000000000        0x0 .build/obj_ergodox_ez_default/lufa.o
 .data          0x0000000000000000        0x0 .build/obj_ergodox_ez_default/lufa.o
 .bss           0x0000000000000000        0x0 .build/obj_ergodox_ez_default/lufa.o
 .text.sendchar
                0x0000000000000000        0x4 .build/obj_ergodox_ez_default/lufa.o
 .text          0x0000000000000000        0x0 .build/obj_ergodox_ez_default/usb_descriptor.o
 .data          0x0000000000000000        0x0 .build/obj_ergodox_ez_default/usb_descriptor.o
 .bss           0x0000000000000000        0x0 .build/obj_ergodox_ez_default/usb_descriptor.o
 .text          0x0000000000000000        0x0 .build/obj_ergodox_ez_default/outputselect.o
 .data          0x0000000000000000        0x0 .build/obj_ergodox_ez_default/outputselect.o
 .bss           0x0000000000000000        0x0 .build/obj_ergodox_ez_default/outputselect.o
 .text          0x0000000000000000        0x0 .build/obj_ergodox_ez_default/lib/lufa/LUFA/Drivers/USB/Class/Common/HIDParser.o
 .data          0x0000000000000000        0x0 .build/obj_ergodox_ez_default/lib/lufa/LUFA/Drivers/USB/Class/Common/HIDParser.o
 .bss           0x0000000000000000        0x0 .build/obj_ergodox_ez_default/lib/lufa/LUFA/Drivers/USB/Class/Common/HIDParser.o
 .text.USB_ProcessHIDReport
                0x0000000000000000      0x6b8 .build/obj_ergodox_ez_default/lib/lufa/LUFA/Drivers/USB/Class/Common/HIDParser.o
 .text.USB_GetHIDReportItemInfo
                0x0000000000000000       0xc0 .build/obj_ergodox_ez_default/lib/lufa/LUFA/Drivers/USB/Class/Common/HIDParser.o
 .text.USB_SetHIDReportItemInfo
                0x0000000000000000       0xb6 .build/obj_ergodox_ez_default/lib/lufa/LUFA/Drivers/USB/Class/Common/HIDParser.o
 .text.USB_GetHIDReportSize
                0x0000000000000000       0x52 .build/obj_ergodox_ez_default/lib/lufa/LUFA/Drivers/USB/Class/Common/HIDParser.o
 .debug_info    0x0000000000000000      0x841 .build/obj_ergodox_ez_default/lib/lufa/LUFA/Drivers/USB/Class/Common/HIDParser.o
 .debug_abbrev  0x0000000000000000      0x267 .build/obj_ergodox_ez_default/lib/lufa/LUFA/Drivers/USB/Class/Common/HIDParser.o
 .debug_loc     0x0000000000000000      0xcf4 .build/obj_ergodox_ez_default/lib/lufa/LUFA/Drivers/USB/Class/Common/HIDParser.o
 .debug_aranges
                0x0000000000000000       0x38 .build/obj_ergodox_ez_default/lib/lufa/LUFA/Drivers/USB/Class/Common/HIDParser.o
 .debug_ranges  0x0000000000000000      0x100 .build/obj_ergodox_ez_default/lib/lufa/LUFA/Drivers/USB/Class/Common/HIDParser.o
 .debug_line    0x0000000000000000      0xdb3 .build/obj_ergodox_ez_default/lib/lufa/LUFA/Drivers/USB/Class/Common/HIDParser.o
 .debug_str     0x0000000000000000      0x6d3 .build/obj_ergodox_ez_default/lib/lufa/LUFA/Drivers/USB/Class/Common/HIDParser.o
 .comment       0x0000000000000000       0x12 .build/obj_ergodox_ez_default/lib/lufa/LUFA/Drivers/USB/Class/Common/HIDParser.o
 .debug_frame   0x0000000000000000      0x134 .build/obj_ergodox_ez_default/lib/lufa/LUFA/Drivers/USB/Class/Common/HIDParser.o
 .text          0x0000000000000000        0x0 .build/obj_ergodox_ez_default/lib/lufa/LUFA/Drivers/USB/Core/AVR8/Device_AVR8.o
 .data          0x0000000000000000        0x0 .build/obj_ergodox_ez_default/lib/lufa/LUFA/Drivers/USB/Core/AVR8/Device_AVR8.o
 .bss           0x0000000000000000        0x0 .build/obj_ergodox_ez_default/lib/lufa/LUFA/Drivers/USB/Core/AVR8/Device_AVR8.o
 .text          0x0000000000000000        0x0 .build/obj_ergodox_ez_default/lib/lufa/LUFA/Drivers/USB/Core/AVR8/EndpointStream_AVR8.o
 .data          0x0000000000000000        0x0 .build/obj_ergodox_ez_default/lib/lufa/LUFA/Drivers/USB/Core/AVR8/EndpointStream_AVR8.o
 .bss           0x0000000000000000        0x0 .build/obj_ergodox_ez_default/lib/lufa/LUFA/Drivers/USB/Core/AVR8/EndpointStream_AVR8.o
 .text.Endpoint_Discard_Stream
                0x0000000000000000       0x8a .build/obj_ergodox_ez_default/lib/lufa/LUFA/Drivers/USB/Core/AVR8/EndpointStream_AVR8.o
 .text.Endpoint_Null_Stream
                0x0000000000000000       0x8a .build/obj_ergodox_ez_default/lib/lufa/LUFA/Drivers/USB/Core/AVR8/EndpointStream_AVR8.o
 .text.Endpoint_Write_Stream_BE
                0x0000000000000000       0xa8 .build/obj_ergodox_ez_default/lib/lufa/LUFA/Drivers/USB/Core/AVR8/EndpointStream_AVR8.o
 .text.Endpoint_Read_Stream_LE
                0x0000000000000000       0x9e .build/obj_ergodox_ez_default/lib/lufa/LUFA/Drivers/USB/Core/AVR8/EndpointStream_AVR8.o
 .text.Endpoint_Read_Stream_BE
                0x0000000000000000       0xa8 .build/obj_ergodox_ez_default/lib/lufa/LUFA/Drivers/USB/Core/AVR8/EndpointStream_AVR8.o
 .text.Endpoint_Write_PStream_LE
                0x0000000000000000       0xa0 .build/obj_ergodox_ez_default/lib/lufa/LUFA/Drivers/USB/Core/AVR8/EndpointStream_AVR8.o
 .text.Endpoint_Write_PStream_BE
                0x0000000000000000       0xaa .build/obj_ergodox_ez_default/lib/lufa/LUFA/Drivers/USB/Core/AVR8/EndpointStream_AVR8.o
 .text.Endpoint_Write_EStream_LE
                0x0000000000000000       0xa2 .build/obj_ergodox_ez_default/lib/lufa/LUFA/Drivers/USB/Core/AVR8/EndpointStream_AVR8.o
 .text.Endpoint_Write_EStream_BE
                0x0000000000000000       0xac .build/obj_ergodox_ez_default/lib/lufa/LUFA/Drivers/USB/Core/AVR8/EndpointStream_AVR8.o
 .text.Endpoint_Read_EStream_LE
                0x0000000000000000       0xa2 .build/obj_ergodox_ez_default/lib/lufa/LUFA/Drivers/USB/Core/AVR8/EndpointStream_AVR8.o
 .text.Endpoint_Read_EStream_BE
                0x0000000000000000       0xac .build/obj_ergodox_ez_default/lib/lufa/LUFA/Drivers/USB/Core/AVR8/EndpointStream_AVR8.o
 .text.Endpoint_Write_Control_Stream_BE
                0x0000000000000000       0xc6 .build/obj_ergodox_ez_default/lib/lufa/LUFA/Drivers/USB/Core/AVR8/EndpointStream_AVR8.o
 .text.Endpoint_Read_Control_Stream_LE
                0x0000000000000000       0x74 .build/obj_ergodox_ez_default/lib/lufa/LUFA/Drivers/USB/Core/AVR8/EndpointStream_AVR8.o
 .text.Endpoint_Read_Control_Stream_BE
                0x0000000000000000       0x7e .build/obj_ergodox_ez_default/lib/lufa/LUFA/Drivers/USB/Core/AVR8/EndpointStream_AVR8.o
 .text.Endpoint_Write_Control_PStream_BE
                0x0000000000000000       0xc2 .build/obj_ergodox_ez_default/lib/lufa/LUFA/Drivers/USB/Core/AVR8/EndpointStream_AVR8.o
 .text.Endpoint_Write_Control_EStream_LE
                0x0000000000000000       0xd8 .build/obj_ergodox_ez_default/lib/lufa/LUFA/Drivers/USB/Core/AVR8/EndpointStream_AVR8.o
 .text.Endpoint_Write_Control_EStream_BE
                0x0000000000000000       0xe2 .build/obj_ergodox_ez_default/lib/lufa/LUFA/Drivers/USB/Core/AVR8/EndpointStream_AVR8.o
 .text.Endpoint_Read_Control_EStream_LE
                0x0000000000000000       0x86 .build/obj_ergodox_ez_default/lib/lufa/LUFA/Drivers/USB/Core/AVR8/EndpointStream_AVR8.o
 .text.Endpoint_Read_Control_EStream_BE
                0x0000000000000000       0x8e .build/obj_ergodox_ez_default/lib/lufa/LUFA/Drivers/USB/Core/AVR8/EndpointStream_AVR8.o
 .text          0x0000000000000000        0x0 .build/obj_ergodox_ez_default/lib/lufa/LUFA/Drivers/USB/Core/AVR8/Endpoint_AVR8.o
 .data          0x0000000000000000        0x0 .build/obj_ergodox_ez_default/lib/lufa/LUFA/Drivers/USB/Core/AVR8/Endpoint_AVR8.o
 .bss           0x0000000000000000        0x0 .build/obj_ergodox_ez_default/lib/lufa/LUFA/Drivers/USB/Core/AVR8/Endpoint_AVR8.o
 .text.Endpoint_ConfigureEndpointTable
                0x0000000000000000       0x7a .build/obj_ergodox_ez_default/lib/lufa/LUFA/Drivers/USB/Core/AVR8/Endpoint_AVR8.o
 .text.Endpoint_ClearEndpoints
                0x0000000000000000       0x28 .build/obj_ergodox_ez_default/lib/lufa/LUFA/Drivers/USB/Core/AVR8/Endpoint_AVR8.o
 .text          0x0000000000000000        0x0 .build/obj_ergodox_ez_default/lib/lufa/LUFA/Drivers/USB/Core/AVR8/Host_AVR8.o
 .data          0x0000000000000000        0x0 .build/obj_ergodox_ez_default/lib/lufa/LUFA/Drivers/USB/Core/AVR8/Host_AVR8.o
 .bss           0x0000000000000000        0x0 .build/obj_ergodox_ez_default/lib/lufa/LUFA/Drivers/USB/Core/AVR8/Host_AVR8.o
 .debug_info    0x0000000000000000       0x56 .build/obj_ergodox_ez_default/lib/lufa/LUFA/Drivers/USB/Core/AVR8/Host_AVR8.o
 .debug_abbrev  0x0000000000000000       0x26 .build/obj_ergodox_ez_default/lib/lufa/LUFA/Drivers/USB/Core/AVR8/Host_AVR8.o
 .debug_aranges
                0x0000000000000000       0x18 .build/obj_ergodox_ez_default/lib/lufa/LUFA/Drivers/USB/Core/AVR8/Host_AVR8.o
 .debug_line    0x0000000000000000       0x1d .build/obj_ergodox_ez_default/lib/lufa/LUFA/Drivers/USB/Core/AVR8/Host_AVR8.o
 .debug_str     0x0000000000000000      0x1af .build/obj_ergodox_ez_default/lib/lufa/LUFA/Drivers/USB/Core/AVR8/Host_AVR8.o
 .comment       0x0000000000000000       0x12 .build/obj_ergodox_ez_default/lib/lufa/LUFA/Drivers/USB/Core/AVR8/Host_AVR8.o
 .text          0x0000000000000000        0x0 .build/obj_ergodox_ez_default/lib/lufa/LUFA/Drivers/USB/Core/AVR8/PipeStream_AVR8.o
 .data          0x0000000000000000        0x0 .build/obj_ergodox_ez_default/lib/lufa/LUFA/Drivers/USB/Core/AVR8/PipeStream_AVR8.o
 .bss           0x0000000000000000        0x0 .build/obj_ergodox_ez_default/lib/lufa/LUFA/Drivers/USB/Core/AVR8/PipeStream_AVR8.o
 .debug_info    0x0000000000000000       0x56 .build/obj_ergodox_ez_default/lib/lufa/LUFA/Drivers/USB/Core/AVR8/PipeStream_AVR8.o
 .debug_abbrev  0x0000000000000000       0x26 .build/obj_ergodox_ez_default/lib/lufa/LUFA/Drivers/USB/Core/AVR8/PipeStream_AVR8.o
 .debug_aranges
                0x0000000000000000       0x18 .build/obj_ergodox_ez_default/lib/lufa/LUFA/Drivers/USB/Core/AVR8/PipeStream_AVR8.o
 .debug_line    0x0000000000000000       0x1d .build/obj_ergodox_ez_default/lib/lufa/LUFA/Drivers/USB/Core/AVR8/PipeStream_AVR8.o
 .debug_str     0x0000000000000000      0x1b5 .build/obj_ergodox_ez_default/lib/lufa/LUFA/Drivers/USB/Core/AVR8/PipeStream_AVR8.o
 .comment       0x0000000000000000       0x12 .build/obj_ergodox_ez_default/lib/lufa/LUFA/Drivers/USB/Core/AVR8/PipeStream_AVR8.o
 .text          0x0000000000000000        0x0 .build/obj_ergodox_ez_default/lib/lufa/LUFA/Drivers/USB/Core/AVR8/Pipe_AVR8.o
 .data          0x0000000000000000        0x0 .build/obj_ergodox_ez_default/lib/lufa/LUFA/Drivers/USB/Core/AVR8/Pipe_AVR8.o
 .bss           0x0000000000000000        0x0 .build/obj_ergodox_ez_default/lib/lufa/LUFA/Drivers/USB/Core/AVR8/Pipe_AVR8.o
 .debug_info    0x0000000000000000       0x56 .build/obj_ergodox_ez_default/lib/lufa/LUFA/Drivers/USB/Core/AVR8/Pipe_AVR8.o
 .debug_abbrev  0x0000000000000000       0x26 .build/obj_ergodox_ez_default/lib/lufa/LUFA/Drivers/USB/Core/AVR8/Pipe_AVR8.o
 .debug_aranges
                0x0000000000000000       0x18 .build/obj_ergodox_ez_default/lib/lufa/LUFA/Drivers/USB/Core/AVR8/Pipe_AVR8.o
 .debug_line    0x0000000000000000       0x1d .build/obj_ergodox_ez_default/lib/lufa/LUFA/Drivers/USB/Core/AVR8/Pipe_AVR8.o
 .debug_str     0x0000000000000000      0x1af .build/obj_ergodox_ez_default/lib/lufa/LUFA/Drivers/USB/Core/AVR8/Pipe_AVR8.o
 .comment       0x0000000000000000       0x12 .build/obj_ergodox_ez_default/lib/lufa/LUFA/Drivers/USB/Core/AVR8/Pipe_AVR8.o
 .text          0x0000000000000000        0x0 .build/obj_ergodox_ez_default/lib/lufa/LUFA/Drivers/USB/Core/AVR8/USBController_AVR8.o
 .data          0x0000000000000000        0x0 .build/obj_ergodox_ez_default/lib/lufa/LUFA/Drivers/USB/Core/AVR8/USBController_AVR8.o
 .bss           0x0000000000000000        0x0 .build/obj_ergodox_ez_default/lib/lufa/LUFA/Drivers/USB/Core/AVR8/USBController_AVR8.o
 .text          0x0000000000000000        0x0 .build/obj_ergodox_ez_default/lib/lufa/LUFA/Drivers/USB/Core/AVR8/USBInterrupt_AVR8.o
 .data          0x0000000000000000        0x0 .build/obj_ergodox_ez_default/lib/lufa/LUFA/Drivers/USB/Core/AVR8/USBInterrupt_AVR8.o
 .bss           0x0000000000000000        0x0 .build/obj_ergodox_ez_default/lib/lufa/LUFA/Drivers/USB/Core/AVR8/USBInterrupt_AVR8.o
 .text          0x0000000000000000        0x0 .build/obj_ergodox_ez_default/lib/lufa/LUFA/Drivers/USB/Core/ConfigDescriptors.o
 .data          0x0000000000000000        0x0 .build/obj_ergodox_ez_default/lib/lufa/LUFA/Drivers/USB/Core/ConfigDescriptors.o
 .bss           0x0000000000000000        0x0 .build/obj_ergodox_ez_default/lib/lufa/LUFA/Drivers/USB/Core/ConfigDescriptors.o
 .text.USB_GetNextDescriptor
                0x0000000000000000       0x3c .build/obj_ergodox_ez_default/lib/lufa/LUFA/Drivers/USB/Core/ConfigDescriptors.o
 .text.USB_GetNextDescriptorOfType
                0x0000000000000000       0x38 .build/obj_ergodox_ez_default/lib/lufa/LUFA/Drivers/USB/Core/ConfigDescriptors.o
 .text.USB_GetNextDescriptorOfTypeBefore
                0x0000000000000000       0x46 .build/obj_ergodox_ez_default/lib/lufa/LUFA/Drivers/USB/Core/ConfigDescriptors.o
 .text.USB_GetNextDescriptorOfTypeAfter
                0x0000000000000000       0x3e .build/obj_ergodox_ez_default/lib/lufa/LUFA/Drivers/USB/Core/ConfigDescriptors.o
 .text.USB_GetNextDescriptorComp
                0x0000000000000000       0x66 .build/obj_ergodox_ez_default/lib/lufa/LUFA/Drivers/USB/Core/ConfigDescriptors.o
 .debug_info    0x0000000000000000      0x50f .build/obj_ergodox_ez_default/lib/lufa/LUFA/Drivers/USB/Core/ConfigDescriptors.o
 .debug_abbrev  0x0000000000000000      0x1e5 .build/obj_ergodox_ez_default/lib/lufa/LUFA/Drivers/USB/Core/ConfigDescriptors.o
 .debug_loc     0x0000000000000000      0x611 .build/obj_ergodox_ez_default/lib/lufa/LUFA/Drivers/USB/Core/ConfigDescriptors.o
 .debug_aranges
                0x0000000000000000       0x40 .build/obj_ergodox_ez_default/lib/lufa/LUFA/Drivers/USB/Core/ConfigDescriptors.o
 .debug_ranges  0x0000000000000000       0x30 .build/obj_ergodox_ez_default/lib/lufa/LUFA/Drivers/USB/Core/ConfigDescriptors.o
 .debug_line    0x0000000000000000      0x3f0 .build/obj_ergodox_ez_default/lib/lufa/LUFA/Drivers/USB/Core/ConfigDescriptors.o
 .debug_str     0x0000000000000000      0x4e7 .build/obj_ergodox_ez_default/lib/lufa/LUFA/Drivers/USB/Core/ConfigDescriptors.o
 .comment       0x0000000000000000       0x12 .build/obj_ergodox_ez_default/lib/lufa/LUFA/Drivers/USB/Core/ConfigDescriptors.o
 .debug_frame   0x0000000000000000      0x110 .build/obj_ergodox_ez_default/lib/lufa/LUFA/Drivers/USB/Core/ConfigDescriptors.o
 .text          0x0000000000000000        0x0 .build/obj_ergodox_ez_default/lib/lufa/LUFA/Drivers/USB/Core/DeviceStandardReq.o
 .data          0x0000000000000000        0x0 .build/obj_ergodox_ez_default/lib/lufa/LUFA/Drivers/USB/Core/DeviceStandardReq.o
 .bss           0x0000000000000000        0x0 .build/obj_ergodox_ez_default/lib/lufa/LUFA/Drivers/USB/Core/DeviceStandardReq.o
 .text          0x0000000000000000        0x0 .build/obj_ergodox_ez_default/lib/lufa/LUFA/Drivers/USB/Core/Events.o
 .data          0x0000000000000000        0x0 .build/obj_ergodox_ez_default/lib/lufa/LUFA/Drivers/USB/Core/Events.o
 .bss           0x0000000000000000        0x0 .build/obj_ergodox_ez_default/lib/lufa/LUFA/Drivers/USB/Core/Events.o
 .text.USB_Event_Stub_2
                0x0000000000000000        0x2 .build/obj_ergodox_ez_default/lib/lufa/LUFA/Drivers/USB/Core/Events.o
 .text.USB_Event_Stub_3
                0x0000000000000000        0x2 .build/obj_ergodox_ez_default/lib/lufa/LUFA/Drivers/USB/Core/Events.o
 .text          0x0000000000000000        0x0 .build/obj_ergodox_ez_default/lib/lufa/LUFA/Drivers/USB/Core/HostStandardReq.o
 .data          0x0000000000000000        0x0 .build/obj_ergodox_ez_default/lib/lufa/LUFA/Drivers/USB/Core/HostStandardReq.o
 .bss           0x0000000000000000        0x0 .build/obj_ergodox_ez_default/lib/lufa/LUFA/Drivers/USB/Core/HostStandardReq.o
 .debug_info    0x0000000000000000       0x56 .build/obj_ergodox_ez_default/lib/lufa/LUFA/Drivers/USB/Core/HostStandardReq.o
 .debug_abbrev  0x0000000000000000       0x26 .build/obj_ergodox_ez_default/lib/lufa/LUFA/Drivers/USB/Core/HostStandardReq.o
 .debug_aranges
                0x0000000000000000       0x18 .build/obj_ergodox_ez_default/lib/lufa/LUFA/Drivers/USB/Core/HostStandardReq.o
 .debug_line    0x0000000000000000       0x1d .build/obj_ergodox_ez_default/lib/lufa/LUFA/Drivers/USB/Core/HostStandardReq.o
 .debug_str     0x0000000000000000      0x1b0 .build/obj_ergodox_ez_default/lib/lufa/LUFA/Drivers/USB/Core/HostStandardReq.o
 .comment       0x0000000000000000       0x12 .build/obj_ergodox_ez_default/lib/lufa/LUFA/Drivers/USB/Core/HostStandardReq.o
 .text          0x0000000000000000        0x0 .build/obj_ergodox_ez_default/lib/lufa/LUFA/Drivers/USB/Core/USBTask.o
 .data          0x0000000000000000        0x0 .build/obj_ergodox_ez_default/lib/lufa/LUFA/Drivers/USB/Core/USBTask.o
 .bss           0x0000000000000000        0x0 .build/obj_ergodox_ez_default/lib/lufa/LUFA/Drivers/USB/Core/USBTask.o
 .text          0x0000000000000000        0x0 /usr/local/Cellar/avr-gcc/8.3.0/lib/avr-gcc/8/gcc/avr/8.3.0/avr5/libgcc.a(_udivmodhi4.o)
 .data          0x0000000000000000        0x0 /usr/local/Cellar/avr-gcc/8.3.0/lib/avr-gcc/8/gcc/avr/8.3.0/avr5/libgcc.a(_udivmodhi4.o)
 .bss           0x0000000000000000        0x0 /usr/local/Cellar/avr-gcc/8.3.0/lib/avr-gcc/8/gcc/avr/8.3.0/avr5/libgcc.a(_udivmodhi4.o)
 .text.libgcc.mul
                0x0000000000000000        0x0 /usr/local/Cellar/avr-gcc/8.3.0/lib/avr-gcc/8/gcc/avr/8.3.0/avr5/libgcc.a(_udivmodhi4.o)
 .text.libgcc   0x0000000000000000        0x0 /usr/local/Cellar/avr-gcc/8.3.0/lib/avr-gcc/8/gcc/avr/8.3.0/avr5/libgcc.a(_udivmodhi4.o)
 .text.libgcc.prologue
                0x0000000000000000        0x0 /usr/local/Cellar/avr-gcc/8.3.0/lib/avr-gcc/8/gcc/avr/8.3.0/avr5/libgcc.a(_udivmodhi4.o)
 .text.libgcc.builtins
                0x0000000000000000        0x0 /usr/local/Cellar/avr-gcc/8.3.0/lib/avr-gcc/8/gcc/avr/8.3.0/avr5/libgcc.a(_udivmodhi4.o)
 .text.libgcc.fmul
                0x0000000000000000        0x0 /usr/local/Cellar/avr-gcc/8.3.0/lib/avr-gcc/8/gcc/avr/8.3.0/avr5/libgcc.a(_udivmodhi4.o)
 .text.libgcc.fixed
                0x0000000000000000        0x0 /usr/local/Cellar/avr-gcc/8.3.0/lib/avr-gcc/8/gcc/avr/8.3.0/avr5/libgcc.a(_udivmodhi4.o)
 .text          0x0000000000000000        0x0 /usr/local/Cellar/avr-gcc/8.3.0/lib/avr-gcc/8/gcc/avr/8.3.0/avr5/libgcc.a(_divmodhi4.o)
 .data          0x0000000000000000        0x0 /usr/local/Cellar/avr-gcc/8.3.0/lib/avr-gcc/8/gcc/avr/8.3.0/avr5/libgcc.a(_divmodhi4.o)
 .bss           0x0000000000000000        0x0 /usr/local/Cellar/avr-gcc/8.3.0/lib/avr-gcc/8/gcc/avr/8.3.0/avr5/libgcc.a(_divmodhi4.o)
 .text.libgcc.mul
                0x0000000000000000        0x0 /usr/local/Cellar/avr-gcc/8.3.0/lib/avr-gcc/8/gcc/avr/8.3.0/avr5/libgcc.a(_divmodhi4.o)
 .text.libgcc   0x0000000000000000        0x0 /usr/local/Cellar/avr-gcc/8.3.0/lib/avr-gcc/8/gcc/avr/8.3.0/avr5/libgcc.a(_divmodhi4.o)
 .text.libgcc.prologue
                0x0000000000000000        0x0 /usr/local/Cellar/avr-gcc/8.3.0/lib/avr-gcc/8/gcc/avr/8.3.0/avr5/libgcc.a(_divmodhi4.o)
 .text.libgcc.builtins
                0x0000000000000000        0x0 /usr/local/Cellar/avr-gcc/8.3.0/lib/avr-gcc/8/gcc/avr/8.3.0/avr5/libgcc.a(_divmodhi4.o)
 .text.libgcc.fmul
                0x0000000000000000        0x0 /usr/local/Cellar/avr-gcc/8.3.0/lib/avr-gcc/8/gcc/avr/8.3.0/avr5/libgcc.a(_divmodhi4.o)
 .text.libgcc.fixed
                0x0000000000000000        0x0 /usr/local/Cellar/avr-gcc/8.3.0/lib/avr-gcc/8/gcc/avr/8.3.0/avr5/libgcc.a(_divmodhi4.o)
 .text          0x0000000000000000        0x0 /usr/local/Cellar/avr-gcc/8.3.0/lib/avr-gcc/8/gcc/avr/8.3.0/avr5/libgcc.a(_exit.o)
 .data          0x0000000000000000        0x0 /usr/local/Cellar/avr-gcc/8.3.0/lib/avr-gcc/8/gcc/avr/8.3.0/avr5/libgcc.a(_exit.o)
 .bss           0x0000000000000000        0x0 /usr/local/Cellar/avr-gcc/8.3.0/lib/avr-gcc/8/gcc/avr/8.3.0/avr5/libgcc.a(_exit.o)
 .text.libgcc.mul
                0x0000000000000000        0x0 /usr/local/Cellar/avr-gcc/8.3.0/lib/avr-gcc/8/gcc/avr/8.3.0/avr5/libgcc.a(_exit.o)
 .text.libgcc.div
                0x0000000000000000        0x0 /usr/local/Cellar/avr-gcc/8.3.0/lib/avr-gcc/8/gcc/avr/8.3.0/avr5/libgcc.a(_exit.o)
 .text.libgcc   0x0000000000000000        0x0 /usr/local/Cellar/avr-gcc/8.3.0/lib/avr-gcc/8/gcc/avr/8.3.0/avr5/libgcc.a(_exit.o)
 .text.libgcc.prologue
                0x0000000000000000        0x0 /usr/local/Cellar/avr-gcc/8.3.0/lib/avr-gcc/8/gcc/avr/8.3.0/avr5/libgcc.a(_exit.o)
 .text.libgcc.builtins
                0x0000000000000000        0x0 /usr/local/Cellar/avr-gcc/8.3.0/lib/avr-gcc/8/gcc/avr/8.3.0/avr5/libgcc.a(_exit.o)
 .text.libgcc.fmul
                0x0000000000000000        0x0 /usr/local/Cellar/avr-gcc/8.3.0/lib/avr-gcc/8/gcc/avr/8.3.0/avr5/libgcc.a(_exit.o)
 .text.libgcc.fixed
                0x0000000000000000        0x0 /usr/local/Cellar/avr-gcc/8.3.0/lib/avr-gcc/8/gcc/avr/8.3.0/avr5/libgcc.a(_exit.o)
 .text          0x0000000000000000        0x0 /usr/local/Cellar/avr-gcc/8.3.0/lib/avr-gcc/8/gcc/avr/8.3.0/avr5/libgcc.a(_tablejump2.o)
 .data          0x0000000000000000        0x0 /usr/local/Cellar/avr-gcc/8.3.0/lib/avr-gcc/8/gcc/avr/8.3.0/avr5/libgcc.a(_tablejump2.o)
 .bss           0x0000000000000000        0x0 /usr/local/Cellar/avr-gcc/8.3.0/lib/avr-gcc/8/gcc/avr/8.3.0/avr5/libgcc.a(_tablejump2.o)
 .text.libgcc.mul
                0x0000000000000000        0x0 /usr/local/Cellar/avr-gcc/8.3.0/lib/avr-gcc/8/gcc/avr/8.3.0/avr5/libgcc.a(_tablejump2.o)
 .text.libgcc.div
                0x0000000000000000        0x0 /usr/local/Cellar/avr-gcc/8.3.0/lib/avr-gcc/8/gcc/avr/8.3.0/avr5/libgcc.a(_tablejump2.o)
 .text.libgcc.prologue
                0x0000000000000000        0x0 /usr/local/Cellar/avr-gcc/8.3.0/lib/avr-gcc/8/gcc/avr/8.3.0/avr5/libgcc.a(_tablejump2.o)
 .text.libgcc.builtins
                0x0000000000000000        0x0 /usr/local/Cellar/avr-gcc/8.3.0/lib/avr-gcc/8/gcc/avr/8.3.0/avr5/libgcc.a(_tablejump2.o)
 .text.libgcc.fmul
                0x0000000000000000        0x0 /usr/local/Cellar/avr-gcc/8.3.0/lib/avr-gcc/8/gcc/avr/8.3.0/avr5/libgcc.a(_tablejump2.o)
 .text.libgcc.fixed
                0x0000000000000000        0x0 /usr/local/Cellar/avr-gcc/8.3.0/lib/avr-gcc/8/gcc/avr/8.3.0/avr5/libgcc.a(_tablejump2.o)
 .text          0x0000000000000000        0x0 /usr/local/Cellar/avr-gcc/8.3.0/lib/avr-gcc/8/gcc/avr/8.3.0/avr5/libgcc.a(_copy_data.o)
 .data          0x0000000000000000        0x0 /usr/local/Cellar/avr-gcc/8.3.0/lib/avr-gcc/8/gcc/avr/8.3.0/avr5/libgcc.a(_copy_data.o)
 .bss           0x0000000000000000        0x0 /usr/local/Cellar/avr-gcc/8.3.0/lib/avr-gcc/8/gcc/avr/8.3.0/avr5/libgcc.a(_copy_data.o)
 .text.libgcc.mul
                0x0000000000000000        0x0 /usr/local/Cellar/avr-gcc/8.3.0/lib/avr-gcc/8/gcc/avr/8.3.0/avr5/libgcc.a(_copy_data.o)
 .text.libgcc.div
                0x0000000000000000        0x0 /usr/local/Cellar/avr-gcc/8.3.0/lib/avr-gcc/8/gcc/avr/8.3.0/avr5/libgcc.a(_copy_data.o)
 .text.libgcc   0x0000000000000000        0x0 /usr/local/Cellar/avr-gcc/8.3.0/lib/avr-gcc/8/gcc/avr/8.3.0/avr5/libgcc.a(_copy_data.o)
 .text.libgcc.prologue
                0x0000000000000000        0x0 /usr/local/Cellar/avr-gcc/8.3.0/lib/avr-gcc/8/gcc/avr/8.3.0/avr5/libgcc.a(_copy_data.o)
 .text.libgcc.builtins
                0x0000000000000000        0x0 /usr/local/Cellar/avr-gcc/8.3.0/lib/avr-gcc/8/gcc/avr/8.3.0/avr5/libgcc.a(_copy_data.o)
 .text.libgcc.fmul
                0x0000000000000000        0x0 /usr/local/Cellar/avr-gcc/8.3.0/lib/avr-gcc/8/gcc/avr/8.3.0/avr5/libgcc.a(_copy_data.o)
 .text.libgcc.fixed
                0x0000000000000000        0x0 /usr/local/Cellar/avr-gcc/8.3.0/lib/avr-gcc/8/gcc/avr/8.3.0/avr5/libgcc.a(_copy_data.o)
 .text          0x0000000000000000        0x0 /usr/local/Cellar/avr-gcc/8.3.0/lib/avr-gcc/8/gcc/avr/8.3.0/avr5/libgcc.a(_clear_bss.o)
 .data          0x0000000000000000        0x0 /usr/local/Cellar/avr-gcc/8.3.0/lib/avr-gcc/8/gcc/avr/8.3.0/avr5/libgcc.a(_clear_bss.o)
 .bss           0x0000000000000000        0x0 /usr/local/Cellar/avr-gcc/8.3.0/lib/avr-gcc/8/gcc/avr/8.3.0/avr5/libgcc.a(_clear_bss.o)
 .text.libgcc.mul
                0x0000000000000000        0x0 /usr/local/Cellar/avr-gcc/8.3.0/lib/avr-gcc/8/gcc/avr/8.3.0/avr5/libgcc.a(_clear_bss.o)
 .text.libgcc.div
                0x0000000000000000        0x0 /usr/local/Cellar/avr-gcc/8.3.0/lib/avr-gcc/8/gcc/avr/8.3.0/avr5/libgcc.a(_clear_bss.o)
 .text.libgcc   0x0000000000000000        0x0 /usr/local/Cellar/avr-gcc/8.3.0/lib/avr-gcc/8/gcc/avr/8.3.0/avr5/libgcc.a(_clear_bss.o)
 .text.libgcc.prologue
                0x0000000000000000        0x0 /usr/local/Cellar/avr-gcc/8.3.0/lib/avr-gcc/8/gcc/avr/8.3.0/avr5/libgcc.a(_clear_bss.o)
 .text.libgcc.builtins
                0x0000000000000000        0x0 /usr/local/Cellar/avr-gcc/8.3.0/lib/avr-gcc/8/gcc/avr/8.3.0/avr5/libgcc.a(_clear_bss.o)
 .text.libgcc.fmul
                0x0000000000000000        0x0 /usr/local/Cellar/avr-gcc/8.3.0/lib/avr-gcc/8/gcc/avr/8.3.0/avr5/libgcc.a(_clear_bss.o)
 .text.libgcc.fixed
                0x0000000000000000        0x0 /usr/local/Cellar/avr-gcc/8.3.0/lib/avr-gcc/8/gcc/avr/8.3.0/avr5/libgcc.a(_clear_bss.o)
 .text          0x0000000000000000        0x0 /usr/local/Cellar/avr-gcc/8.3.0/lib/avr-gcc/8/gcc/avr/8.3.0/../../../../../../avr/lib/avr5/libc.a(malloc.o)
 .bss           0x0000000000000000        0x0 /usr/local/Cellar/avr-gcc/8.3.0/lib/avr-gcc/8/gcc/avr/8.3.0/../../../../../../avr/lib/avr5/libc.a(malloc.o)
 .text          0x0000000000000000        0x0 /usr/local/Cellar/avr-gcc/8.3.0/lib/avr-gcc/8/gcc/avr/8.3.0/../../../../../../avr/lib/avr5/libc.a(tolower.o)
 .data          0x0000000000000000        0x0 /usr/local/Cellar/avr-gcc/8.3.0/lib/avr-gcc/8/gcc/avr/8.3.0/../../../../../../avr/lib/avr5/libc.a(tolower.o)
 .bss           0x0000000000000000        0x0 /usr/local/Cellar/avr-gcc/8.3.0/lib/avr-gcc/8/gcc/avr/8.3.0/../../../../../../avr/lib/avr5/libc.a(tolower.o)
 .text.avr-libc
                0x0000000000000000       0x10 /usr/local/Cellar/avr-gcc/8.3.0/lib/avr-gcc/8/gcc/avr/8.3.0/../../../../../../avr/lib/avr5/libc.a(tolower.o)
 .text          0x0000000000000000        0x0 /usr/local/Cellar/avr-gcc/8.3.0/lib/avr-gcc/8/gcc/avr/8.3.0/../../../../../../avr/lib/avr5/libc.a(memchr.o)
 .data          0x0000000000000000        0x0 /usr/local/Cellar/avr-gcc/8.3.0/lib/avr-gcc/8/gcc/avr/8.3.0/../../../../../../avr/lib/avr5/libc.a(memchr.o)
 .bss           0x0000000000000000        0x0 /usr/local/Cellar/avr-gcc/8.3.0/lib/avr-gcc/8/gcc/avr/8.3.0/../../../../../../avr/lib/avr5/libc.a(memchr.o)
 .text          0x0000000000000000        0x0 /usr/local/Cellar/avr-gcc/8.3.0/lib/avr-gcc/8/gcc/avr/8.3.0/../../../../../../avr/lib/avr5/libc.a(memmove.o)
 .data          0x0000000000000000        0x0 /usr/local/Cellar/avr-gcc/8.3.0/lib/avr-gcc/8/gcc/avr/8.3.0/../../../../../../avr/lib/avr5/libc.a(memmove.o)
 .bss           0x0000000000000000        0x0 /usr/local/Cellar/avr-gcc/8.3.0/lib/avr-gcc/8/gcc/avr/8.3.0/../../../../../../avr/lib/avr5/libc.a(memmove.o)
 .text.avr-libc
                0x0000000000000000       0x24 /usr/local/Cellar/avr-gcc/8.3.0/lib/avr-gcc/8/gcc/avr/8.3.0/../../../../../../avr/lib/avr5/libc.a(memmove.o)
 .text          0x0000000000000000        0x0 /usr/local/Cellar/avr-gcc/8.3.0/lib/avr-gcc/8/gcc/avr/8.3.0/../../../../../../avr/lib/avr5/libc.a(strcspn.o)
 .data          0x0000000000000000        0x0 /usr/local/Cellar/avr-gcc/8.3.0/lib/avr-gcc/8/gcc/avr/8.3.0/../../../../../../avr/lib/avr5/libc.a(strcspn.o)
 .bss           0x0000000000000000        0x0 /usr/local/Cellar/avr-gcc/8.3.0/lib/avr-gcc/8/gcc/avr/8.3.0/../../../../../../avr/lib/avr5/libc.a(strcspn.o)
 .text.avr-libc
                0x0000000000000000       0x1e /usr/local/Cellar/avr-gcc/8.3.0/lib/avr-gcc/8/gcc/avr/8.3.0/../../../../../../avr/lib/avr5/libc.a(strcspn.o)
 .text          0x0000000000000000        0x0 /usr/local/Cellar/avr-gcc/8.3.0/lib/avr-gcc/8/gcc/avr/8.3.0/../../../../../../avr/lib/avr5/libc.a(strncpy.o)
 .data          0x0000000000000000        0x0 /usr/local/Cellar/avr-gcc/8.3.0/lib/avr-gcc/8/gcc/avr/8.3.0/../../../../../../avr/lib/avr5/libc.a(strncpy.o)
 .bss           0x0000000000000000        0x0 /usr/local/Cellar/avr-gcc/8.3.0/lib/avr-gcc/8/gcc/avr/8.3.0/../../../../../../avr/lib/avr5/libc.a(strncpy.o)
 .text.avr-libc
                0x0000000000000000       0x1e /usr/local/Cellar/avr-gcc/8.3.0/lib/avr-gcc/8/gcc/avr/8.3.0/../../../../../../avr/lib/avr5/libc.a(strncpy.o)
 .text          0x0000000000000000        0x0 /usr/local/Cellar/avr-gcc/8.3.0/lib/avr-gcc/8/gcc/avr/8.3.0/../../../../../../avr/lib/avr5/libc.a(memcpy.o)
 .data          0x0000000000000000        0x0 /usr/local/Cellar/avr-gcc/8.3.0/lib/avr-gcc/8/gcc/avr/8.3.0/../../../../../../avr/lib/avr5/libc.a(memcpy.o)
 .bss           0x0000000000000000        0x0 /usr/local/Cellar/avr-gcc/8.3.0/lib/avr-gcc/8/gcc/avr/8.3.0/../../../../../../avr/lib/avr5/libc.a(memcpy.o)
 .text.avr-libc
                0x0000000000000000       0x12 /usr/local/Cellar/avr-gcc/8.3.0/lib/avr-gcc/8/gcc/avr/8.3.0/../../../../../../avr/lib/avr5/libc.a(memcpy.o)
 .text          0x0000000000000000        0x0 /usr/local/Cellar/avr-gcc/8.3.0/lib/avr-gcc/8/gcc/avr/8.3.0/../../../../../../avr/lib/avr5/libatmega32u4.a(eerd_byte.o)
 .data          0x0000000000000000        0x0 /usr/local/Cellar/avr-gcc/8.3.0/lib/avr-gcc/8/gcc/avr/8.3.0/../../../../../../avr/lib/avr5/libatmega32u4.a(eerd_byte.o)
 .bss           0x0000000000000000        0x0 /usr/local/Cellar/avr-gcc/8.3.0/lib/avr-gcc/8/gcc/avr/8.3.0/../../../../../../avr/lib/avr5/libatmega32u4.a(eerd_byte.o)
 .text          0x0000000000000000        0x0 /usr/local/Cellar/avr-gcc/8.3.0/lib/avr-gcc/8/gcc/avr/8.3.0/../../../../../../avr/lib/avr5/libatmega32u4.a(eerd_dword.o)
 .data          0x0000000000000000        0x0 /usr/local/Cellar/avr-gcc/8.3.0/lib/avr-gcc/8/gcc/avr/8.3.0/../../../../../../avr/lib/avr5/libatmega32u4.a(eerd_dword.o)
 .bss           0x0000000000000000        0x0 /usr/local/Cellar/avr-gcc/8.3.0/lib/avr-gcc/8/gcc/avr/8.3.0/../../../../../../avr/lib/avr5/libatmega32u4.a(eerd_dword.o)
 .text          0x0000000000000000        0x0 /usr/local/Cellar/avr-gcc/8.3.0/lib/avr-gcc/8/gcc/avr/8.3.0/../../../../../../avr/lib/avr5/libatmega32u4.a(eerd_word.o)
 .data          0x0000000000000000        0x0 /usr/local/Cellar/avr-gcc/8.3.0/lib/avr-gcc/8/gcc/avr/8.3.0/../../../../../../avr/lib/avr5/libatmega32u4.a(eerd_word.o)
 .bss           0x0000000000000000        0x0 /usr/local/Cellar/avr-gcc/8.3.0/lib/avr-gcc/8/gcc/avr/8.3.0/../../../../../../avr/lib/avr5/libatmega32u4.a(eerd_word.o)
 .text          0x0000000000000000        0x0 /usr/local/Cellar/avr-gcc/8.3.0/lib/avr-gcc/8/gcc/avr/8.3.0/../../../../../../avr/lib/avr5/libatmega32u4.a(eeupd_byte.o)
 .data          0x0000000000000000        0x0 /usr/local/Cellar/avr-gcc/8.3.0/lib/avr-gcc/8/gcc/avr/8.3.0/../../../../../../avr/lib/avr5/libatmega32u4.a(eeupd_byte.o)
 .bss           0x0000000000000000        0x0 /usr/local/Cellar/avr-gcc/8.3.0/lib/avr-gcc/8/gcc/avr/8.3.0/../../../../../../avr/lib/avr5/libatmega32u4.a(eeupd_byte.o)
 .text          0x0000000000000000        0x0 /usr/local/Cellar/avr-gcc/8.3.0/lib/avr-gcc/8/gcc/avr/8.3.0/../../../../../../avr/lib/avr5/libatmega32u4.a(eeupd_dword.o)
 .data          0x0000000000000000        0x0 /usr/local/Cellar/avr-gcc/8.3.0/lib/avr-gcc/8/gcc/avr/8.3.0/../../../../../../avr/lib/avr5/libatmega32u4.a(eeupd_dword.o)
 .bss           0x0000000000000000        0x0 /usr/local/Cellar/avr-gcc/8.3.0/lib/avr-gcc/8/gcc/avr/8.3.0/../../../../../../avr/lib/avr5/libatmega32u4.a(eeupd_dword.o)
 .text          0x0000000000000000        0x0 /usr/local/Cellar/avr-gcc/8.3.0/lib/avr-gcc/8/gcc/avr/8.3.0/../../../../../../avr/lib/avr5/libatmega32u4.a(eeupd_word.o)
 .data          0x0000000000000000        0x0 /usr/local/Cellar/avr-gcc/8.3.0/lib/avr-gcc/8/gcc/avr/8.3.0/../../../../../../avr/lib/avr5/libatmega32u4.a(eeupd_word.o)
 .bss           0x0000000000000000        0x0 /usr/local/Cellar/avr-gcc/8.3.0/lib/avr-gcc/8/gcc/avr/8.3.0/../../../../../../avr/lib/avr5/libatmega32u4.a(eeupd_word.o)
 .text          0x0000000000000000        0x0 /usr/local/Cellar/avr-gcc/8.3.0/lib/avr-gcc/8/gcc/avr/8.3.0/../../../../../../avr/lib/avr5/libatmega32u4.a(eerd_block.o)
 .data          0x0000000000000000        0x0 /usr/local/Cellar/avr-gcc/8.3.0/lib/avr-gcc/8/gcc/avr/8.3.0/../../../../../../avr/lib/avr5/libatmega32u4.a(eerd_block.o)
 .bss           0x0000000000000000        0x0 /usr/local/Cellar/avr-gcc/8.3.0/lib/avr-gcc/8/gcc/avr/8.3.0/../../../../../../avr/lib/avr5/libatmega32u4.a(eerd_block.o)

Memory Configuration

Name             Origin             Length             Attributes
text             0x0000000000000000 0x0000000000020000 xr
data             0x0000000000800060 0x000000000000ffa0 rw !x
eeprom           0x0000000000810000 0x0000000000010000 rw !x
fuse             0x0000000000820000 0x0000000000000400 rw !x
lock             0x0000000000830000 0x0000000000000400 rw !x
signature        0x0000000000840000 0x0000000000000400 rw !x
user_signatures  0x0000000000850000 0x0000000000000400 rw !x
*default*        0x0000000000000000 0xffffffffffffffff

Linker script and memory map

Address of section .data set to 0x800100
LOAD /usr/local/Cellar/avr-gcc/8.3.0/lib/avr-gcc/8/gcc/avr/8.3.0/../../../../../../avr/lib/avr5/crtatmega32u4.o
LOAD .build/obj_ergodox_ez_default/matrix.o
LOAD .build/obj_ergodox_ez_default/i2c_master.o
LOAD .build/obj_ergodox_ez_default/keyboards/ergodox_ez/ergodox_ez.o
LOAD .build/obj_ergodox_ez_default/keyboards/ergodox_ez/keymaps/default/keymap.o
LOAD .build/obj_ergodox_ez_default/quantum/quantum.o
LOAD .build/obj_ergodox_ez_default/quantum/keymap_common.o
LOAD .build/obj_ergodox_ez_default/quantum/keycode_config.o
LOAD .build/obj_ergodox_ez_default/quantum/debounce/eager_pr.o
LOAD .build/obj_ergodox_ez_default/quantum/process_keycode/process_unicode.o
LOAD .build/obj_ergodox_ez_default/quantum/process_keycode/process_unicode_common.o
LOAD .build/obj_ergodox_ez_default/quantum/color.o
LOAD .build/obj_ergodox_ez_default/quantum/rgblight.o
LOAD .build/obj_ergodox_ez_default/ws2812.o
LOAD .build/obj_ergodox_ez_default/quantum/led_tables.o
LOAD .build/obj_ergodox_ez_default/quantum/process_keycode/process_space_cadet.o
LOAD .build/obj_ergodox_ez_default/common/host.o
LOAD .build/obj_ergodox_ez_default/common/keyboard.o
LOAD .build/obj_ergodox_ez_default/common/action.o
LOAD .build/obj_ergodox_ez_default/common/action_tapping.o
LOAD .build/obj_ergodox_ez_default/common/action_macro.o
LOAD .build/obj_ergodox_ez_default/common/action_layer.o
LOAD .build/obj_ergodox_ez_default/common/action_util.o
LOAD .build/obj_ergodox_ez_default/common/print.o
LOAD .build/obj_ergodox_ez_default/common/debug.o
LOAD .build/obj_ergodox_ez_default/common/util.o
LOAD .build/obj_ergodox_ez_default/common/eeconfig.o
LOAD .build/obj_ergodox_ez_default/common/report.o
LOAD .build/obj_ergodox_ez_default/common/avr/suspend.o
LOAD .build/obj_ergodox_ez_default/common/avr/timer.o
LOAD .build/obj_ergodox_ez_default/common/avr/bootloader.o
LOAD .build/obj_ergodox_ez_default/common/avr/xprintf.o
LOAD .build/obj_ergodox_ez_default/common/magic.o
LOAD .build/obj_ergodox_ez_default/common/mousekey.o
LOAD .build/obj_ergodox_ez_default/common/command.o
LOAD .build/obj_ergodox_ez_default/lufa.o
LOAD .build/obj_ergodox_ez_default/usb_descriptor.o
LOAD .build/obj_ergodox_ez_default/outputselect.o
LOAD .build/obj_ergodox_ez_default/lib/lufa/LUFA/Drivers/USB/Class/Common/HIDParser.o
LOAD .build/obj_ergodox_ez_default/lib/lufa/LUFA/Drivers/USB/Core/AVR8/Device_AVR8.o
LOAD .build/obj_ergodox_ez_default/lib/lufa/LUFA/Drivers/USB/Core/AVR8/EndpointStream_AVR8.o
LOAD .build/obj_ergodox_ez_default/lib/lufa/LUFA/Drivers/USB/Core/AVR8/Endpoint_AVR8.o
LOAD .build/obj_ergodox_ez_default/lib/lufa/LUFA/Drivers/USB/Core/AVR8/Host_AVR8.o
LOAD .build/obj_ergodox_ez_default/lib/lufa/LUFA/Drivers/USB/Core/AVR8/PipeStream_AVR8.o
LOAD .build/obj_ergodox_ez_default/lib/lufa/LUFA/Drivers/USB/Core/AVR8/Pipe_AVR8.o
LOAD .build/obj_ergodox_ez_default/lib/lufa/LUFA/Drivers/USB/Core/AVR8/USBController_AVR8.o
LOAD .build/obj_ergodox_ez_default/lib/lufa/LUFA/Drivers/USB/Core/AVR8/USBInterrupt_AVR8.o
LOAD .build/obj_ergodox_ez_default/lib/lufa/LUFA/Drivers/USB/Core/ConfigDescriptors.o
LOAD .build/obj_ergodox_ez_default/lib/lufa/LUFA/Drivers/USB/Core/DeviceStandardReq.o
LOAD .build/obj_ergodox_ez_default/lib/lufa/LUFA/Drivers/USB/Core/Events.o
LOAD .build/obj_ergodox_ez_default/lib/lufa/LUFA/Drivers/USB/Core/HostStandardReq.o
LOAD .build/obj_ergodox_ez_default/lib/lufa/LUFA/Drivers/USB/Core/USBTask.o
LOAD /usr/local/Cellar/avr-gcc/8.3.0/lib/avr-gcc/8/gcc/avr/8.3.0/../../../../../../avr/lib/avr5/libm.a
START GROUP
LOAD /usr/local/Cellar/avr-gcc/8.3.0/lib/avr-gcc/8/gcc/avr/8.3.0/avr5/libgcc.a
LOAD /usr/local/Cellar/avr-gcc/8.3.0/lib/avr-gcc/8/gcc/avr/8.3.0/../../../../../../avr/lib/avr5/libm.a
LOAD /usr/local/Cellar/avr-gcc/8.3.0/lib/avr-gcc/8/gcc/avr/8.3.0/../../../../../../avr/lib/avr5/libc.a
LOAD /usr/local/Cellar/avr-gcc/8.3.0/lib/avr-gcc/8/gcc/avr/8.3.0/../../../../../../avr/lib/avr5/libatmega32u4.a
END GROUP
                0x0000000000020000                __TEXT_REGION_LENGTH__ = DEFINED (__TEXT_REGION_LENGTH__)?__TEXT_REGION_LENGTH__:0x20000
                0x000000000000ffa0                __DATA_REGION_LENGTH__ = DEFINED (__DATA_REGION_LENGTH__)?__DATA_REGION_LENGTH__:0xffa0
                0x0000000000010000                __EEPROM_REGION_LENGTH__ = DEFINED (__EEPROM_REGION_LENGTH__)?__EEPROM_REGION_LENGTH__:0x10000
                0x0000000000000400                __FUSE_REGION_LENGTH__ = DEFINED (__FUSE_REGION_LENGTH__)?__FUSE_REGION_LENGTH__:0x400
                0x0000000000000400                __LOCK_REGION_LENGTH__ = DEFINED (__LOCK_REGION_LENGTH__)?__LOCK_REGION_LENGTH__:0x400
                0x0000000000000400                __SIGNATURE_REGION_LENGTH__ = DEFINED (__SIGNATURE_REGION_LENGTH__)?__SIGNATURE_REGION_LENGTH__:0x400
                0x0000000000000400                __USER_SIGNATURE_REGION_LENGTH__ = DEFINED (__USER_SIGNATURE_REGION_LENGTH__)?__USER_SIGNATURE_REGION_LENGTH__:0x400

.hash
 *(.hash)

.dynsym
 *(.dynsym)

.dynstr
 *(.dynstr)

.gnu.version
 *(.gnu.version)

.gnu.version_d
 *(.gnu.version_d)

.gnu.version_r
 *(.gnu.version_r)

.rel.init
 *(.rel.init)

.rela.init
 *(.rela.init)

.rel.text
 *(.rel.text)
 *(.rel.text.*)
 *(.rel.gnu.linkonce.t*)

.rela.text
 *(.rela.text)
 *(.rela.text.*)
 *(.rela.gnu.linkonce.t*)

.rel.fini
 *(.rel.fini)

.rela.fini
 *(.rela.fini)

.rel.rodata
 *(.rel.rodata)
 *(.rel.rodata.*)
 *(.rel.gnu.linkonce.r*)

.rela.rodata
 *(.rela.rodata)
 *(.rela.rodata.*)
 *(.rela.gnu.linkonce.r*)

.rel.data
 *(.rel.data)
 *(.rel.data.*)
 *(.rel.gnu.linkonce.d*)

.rela.data
 *(.rela.data)
 *(.rela.data.*)
 *(.rela.gnu.linkonce.d*)

.rel.ctors
 *(.rel.ctors)

.rela.ctors
 *(.rela.ctors)

.rel.dtors
 *(.rel.dtors)

.rela.dtors
 *(.rela.dtors)

.rel.got
 *(.rel.got)

.rela.got
 *(.rela.got)

.rel.bss
 *(.rel.bss)

.rela.bss
 *(.rela.bss)

.rel.plt
 *(.rel.plt)

.rela.plt
 *(.rela.plt)

.text           0x0000000000000000     0x6382
 *(.vectors)
 .vectors       0x0000000000000000       0xac /usr/local/Cellar/avr-gcc/8.3.0/lib/avr-gcc/8/gcc/avr/8.3.0/../../../../../../avr/lib/avr5/crtatmega32u4.o
                0x0000000000000000                __vectors
                0x0000000000000000                __vector_default
 *(.vectors)
 *(.progmem.gcc*)
                0x00000000000000ac                . = ALIGN (0x2)
                0x00000000000000ac                __trampolines_start = .
 *(.trampolines)
 .trampolines   0x00000000000000ac        0x0 linker stubs
 *(.trampolines*)
                0x00000000000000ac                __trampolines_end = .
 *libprintf_flt.a:*(.progmem.data)
 *libc.a:*(.progmem.data)
 *(.progmem.*)
 .progmem.data.__c.6059
                0x00000000000000ac       0x22 .build/obj_ergodox_ez_default/keyboards/ergodox_ez/keymaps/default/keymap.o
 .progmem.data.keymaps
                0x00000000000000ce      0x1f8 .build/obj_ergodox_ez_default/keyboards/ergodox_ez/keymaps/default/keymap.o
                0x00000000000000ce                keymaps
 .progmem.data.ascii_to_keycode_lut
                0x00000000000002c6       0x80 .build/obj_ergodox_ez_default/quantum/quantum.o
                0x00000000000002c6                ascii_to_keycode_lut
 .progmem.data.ascii_to_altgr_lut
                0x0000000000000346       0x80 .build/obj_ergodox_ez_default/quantum/quantum.o
                0x0000000000000346                ascii_to_altgr_lut
 .progmem.data.ascii_to_shift_lut
                0x00000000000003c6       0x80 .build/obj_ergodox_ez_default/quantum/quantum.o
                0x00000000000003c6                ascii_to_shift_lut
 .progmem.data.fn_actions
                0x0000000000000446        0x0 .build/obj_ergodox_ez_default/quantum/keymap_common.o
                0x0000000000000446                fn_actions
 .progmem.data.RGBLED_RGBTEST_INTERVALS
                0x0000000000000446        0x2 .build/obj_ergodox_ez_default/quantum/rgblight.o
                0x0000000000000446                RGBLED_RGBTEST_INTERVALS
 .progmem.data.RGBLED_KNIGHT_INTERVALS
                0x0000000000000448        0x3 .build/obj_ergodox_ez_default/quantum/rgblight.o
                0x0000000000000448                RGBLED_KNIGHT_INTERVALS
 .progmem.data.RGBLED_SNAKE_INTERVALS
                0x000000000000044b        0x3 .build/obj_ergodox_ez_default/quantum/rgblight.o
                0x000000000000044b                RGBLED_SNAKE_INTERVALS
 .progmem.data.RGBLED_RAINBOW_SWIRL_INTERVALS
                0x000000000000044e        0x3 .build/obj_ergodox_ez_default/quantum/rgblight.o
                0x000000000000044e                RGBLED_RAINBOW_SWIRL_INTERVALS
 .progmem.data.RGBLED_RAINBOW_MOOD_INTERVALS
                0x0000000000000451        0x3 .build/obj_ergodox_ez_default/quantum/rgblight.o
                0x0000000000000451                RGBLED_RAINBOW_MOOD_INTERVALS
 .progmem.data.RGBLED_BREATHING_INTERVALS
                0x0000000000000454        0x4 .build/obj_ergodox_ez_default/quantum/rgblight.o
                0x0000000000000454                RGBLED_BREATHING_INTERVALS
 .progmem.data.rgblight_effect_breathe_table
                0x0000000000000458      0x100 .build/obj_ergodox_ez_default/quantum/rgblight.o
                0x0000000000000458                rgblight_effect_breathe_table
 .progmem.data.RGBLED_GRADIENT_RANGES
                0x0000000000000558        0x5 .build/obj_ergodox_ez_default/quantum/rgblight.o
                0x0000000000000558                RGBLED_GRADIENT_RANGES
 .progmem.data.CIE1931_CURVE
                0x000000000000055d      0x100 .build/obj_ergodox_ez_default/quantum/led_tables.o
                0x000000000000055d                CIE1931_CURVE
 .progmem.data.SerialNumberString
                0x000000000000065d        0x6 .build/obj_ergodox_ez_default/usb_descriptor.o
                0x000000000000065d                SerialNumberString
 .progmem.data.ProductString
                0x0000000000000663       0x18 .build/obj_ergodox_ez_default/usb_descriptor.o
                0x0000000000000663                ProductString
 .progmem.data.ManufacturerString
                0x000000000000067b       0x18 .build/obj_ergodox_ez_default/usb_descriptor.o
                0x000000000000067b                ManufacturerString
 .progmem.data.LanguageString
                0x0000000000000693        0x4 .build/obj_ergodox_ez_default/usb_descriptor.o
                0x0000000000000693                LanguageString
 .progmem.data.ConfigurationDescriptor
                0x0000000000000697       0x3b .build/obj_ergodox_ez_default/usb_descriptor.o
                0x0000000000000697                ConfigurationDescriptor
 .progmem.data.DeviceDescriptor
                0x00000000000006d2       0x12 .build/obj_ergodox_ez_default/usb_descriptor.o
                0x00000000000006d2                DeviceDescriptor
 .progmem.data.SharedReport
                0x00000000000006e4       0xc0 .build/obj_ergodox_ez_default/usb_descriptor.o
                0x00000000000006e4                SharedReport
 .progmem.data.KeyboardReport
                0x00000000000007a4       0x40 .build/obj_ergodox_ez_default/usb_descriptor.o
                0x00000000000007a4                KeyboardReport
                0x00000000000007e4                . = ALIGN (0x2)
 *(.lowtext)
 *(.lowtext*)
                0x00000000000007e4                __ctors_start = .
 *(.ctors)
                0x00000000000007e4                __ctors_end = .
                0x00000000000007e4                __dtors_start = .
 *(.dtors)
                0x00000000000007e4                __dtors_end = .
 SORT_BY_NAME(*)(.ctors)
 SORT_BY_NAME(*)(.dtors)
 *(.init0)
 .init0         0x00000000000007e4        0x0 /usr/local/Cellar/avr-gcc/8.3.0/lib/avr-gcc/8/gcc/avr/8.3.0/../../../../../../avr/lib/avr5/crtatmega32u4.o
                0x00000000000007e4                __init
 *(.init0)
 *(.init1)
 *(.init1)
 *(.init2)
 .init2         0x00000000000007e4        0xc /usr/local/Cellar/avr-gcc/8.3.0/lib/avr-gcc/8/gcc/avr/8.3.0/../../../../../../avr/lib/avr5/crtatmega32u4.o
 *(.init2)
 *(.init3)
 .init3         0x00000000000007f0        0x0 .build/obj_ergodox_ez_default/common/avr/bootloader.o
                0x00000000000007f0                bootloader_jump_after_watchdog_reset
 *(.init3)
 *(.init4)
 .init4         0x00000000000007f0       0x16 /usr/local/Cellar/avr-gcc/8.3.0/lib/avr-gcc/8/gcc/avr/8.3.0/avr5/libgcc.a(_copy_data.o)
                0x00000000000007f0                __do_copy_data
 .init4         0x0000000000000806       0x10 /usr/local/Cellar/avr-gcc/8.3.0/lib/avr-gcc/8/gcc/avr/8.3.0/avr5/libgcc.a(_clear_bss.o)
                0x0000000000000806                __do_clear_bss
 *(.init4)
 *(.init5)
 *(.init5)
 *(.init6)
 *(.init6)
 *(.init7)
 *(.init7)
 *(.init8)
 *(.init8)
 *(.init9)
 .init9         0x0000000000000816        0x8 /usr/local/Cellar/avr-gcc/8.3.0/lib/avr-gcc/8/gcc/avr/8.3.0/../../../../../../avr/lib/avr5/crtatmega32u4.o
 *(.init9)
 *(.text)
 .text          0x000000000000081e        0x4 /usr/local/Cellar/avr-gcc/8.3.0/lib/avr-gcc/8/gcc/avr/8.3.0/../../../../../../avr/lib/avr5/crtatmega32u4.o
                0x000000000000081e                __vector_42
                0x000000000000081e                __vector_22
                0x000000000000081e                __vector_28
                0x000000000000081e                __vector_1
                0x000000000000081e                __vector_32
                0x000000000000081e                __vector_34
                0x000000000000081e                __vector_24
                0x000000000000081e                __bad_interrupt
                0x000000000000081e                __vector_6
                0x000000000000081e                __vector_31
                0x000000000000081e                __vector_35
                0x000000000000081e                __vector_39
                0x000000000000081e                __vector_3
                0x000000000000081e                __vector_23
                0x000000000000081e                __vector_30
                0x000000000000081e                __vector_25
                0x000000000000081e                __vector_13
                0x000000000000081e                __vector_17
                0x000000000000081e                __vector_19
                0x000000000000081e                __vector_7
                0x000000000000081e                __vector_41
                0x000000000000081e                __vector_27
                0x000000000000081e                __vector_5
                0x000000000000081e                __vector_33
                0x000000000000081e                __vector_37
                0x000000000000081e                __vector_4
                0x000000000000081e                __vector_9
                0x000000000000081e                __vector_2
                0x000000000000081e                __vector_15
                0x000000000000081e                __vector_36
                0x000000000000081e                __vector_29
                0x000000000000081e                __vector_40
                0x000000000000081e                __vector_8
                0x000000000000081e                __vector_26
                0x000000000000081e                __vector_14
                0x000000000000081e                __vector_16
                0x000000000000081e                __vector_18
                0x000000000000081e                __vector_20
                0x000000000000081e                __vector_38
                0x0000000000000822                . = ALIGN (0x2)
 *(.text.*)
 .text.init_cols
                0x0000000000000822        0xe .build/obj_ergodox_ez_default/matrix.o
 .text.unselect_rows
                0x0000000000000830       0x1e .build/obj_ergodox_ez_default/matrix.o
 .text.select_row
                0x000000000000084e       0xa8 .build/obj_ergodox_ez_default/matrix.o
 .text.read_cols
                0x00000000000008f6       0x9c .build/obj_ergodox_ez_default/matrix.o
 .text.matrix_scan_user
                0x0000000000000992        0x2 .build/obj_ergodox_ez_default/matrix.o
                0x0000000000000992                matrix_scan_user
 .text.matrix_scan_kb
                0x0000000000000994        0x4 .build/obj_ergodox_ez_default/matrix.o
                0x0000000000000994                matrix_scan_kb
 .text.matrix_init
                0x0000000000000998       0x34 .build/obj_ergodox_ez_default/matrix.o
                0x0000000000000998                matrix_init
 .text.matrix_power_up
                0x00000000000009cc       0x26 .build/obj_ergodox_ez_default/matrix.o
                0x00000000000009cc                matrix_power_up
 .text.matrix_scan
                0x00000000000009f2       0xb8 .build/obj_ergodox_ez_default/matrix.o
                0x00000000000009f2                matrix_scan
 .text.matrix_get_row
                0x0000000000000aaa        0xc .build/obj_ergodox_ez_default/matrix.o
                0x0000000000000aaa                matrix_get_row
 .text.matrix_print
                0x0000000000000ab6        0x2 .build/obj_ergodox_ez_default/matrix.o
                0x0000000000000ab6                matrix_print
 .text.i2c_init
                0x0000000000000ab8        0xc .build/obj_ergodox_ez_default/i2c_master.o
                0x0000000000000ab8                i2c_init
 .text.i2c_start
                0x0000000000000ac4       0xb8 .build/obj_ergodox_ez_default/i2c_master.o
                0x0000000000000ac4                i2c_start
 .text.i2c_write
                0x0000000000000b7c       0x5e .build/obj_ergodox_ez_default/i2c_master.o
                0x0000000000000b7c                i2c_write
 .text.i2c_read_nack
                0x0000000000000bda       0x48 .build/obj_ergodox_ez_default/i2c_master.o
                0x0000000000000bda                i2c_read_nack
 .text.i2c_stop
                0x0000000000000c22        0x8 .build/obj_ergodox_ez_default/i2c_master.o
                0x0000000000000c22                i2c_stop
 .text.ergodox_right_led_1_on
                0x0000000000000c2a        0x6 .build/obj_ergodox_ez_default/keyboards/ergodox_ez/ergodox_ez.o
                0x0000000000000c2a                ergodox_right_led_1_on
 .text.ergodox_right_led_2_on
                0x0000000000000c30        0x6 .build/obj_ergodox_ez_default/keyboards/ergodox_ez/ergodox_ez.o
                0x0000000000000c30                ergodox_right_led_2_on
 .text.ergodox_right_led_3_on
                0x0000000000000c36        0x6 .build/obj_ergodox_ez_default/keyboards/ergodox_ez/ergodox_ez.o
                0x0000000000000c36                ergodox_right_led_3_on
 .text.ergodox_board_led_off
                0x0000000000000c3c        0x6 .build/obj_ergodox_ez_default/keyboards/ergodox_ez/ergodox_ez.o
                0x0000000000000c3c                ergodox_board_led_off
 .text.ergodox_right_led_1_off
                0x0000000000000c42        0x6 .build/obj_ergodox_ez_default/keyboards/ergodox_ez/ergodox_ez.o
                0x0000000000000c42                ergodox_right_led_1_off
 .text.ergodox_right_led_2_off
                0x0000000000000c48        0x6 .build/obj_ergodox_ez_default/keyboards/ergodox_ez/ergodox_ez.o
                0x0000000000000c48                ergodox_right_led_2_off
 .text.ergodox_right_led_3_off
                0x0000000000000c4e        0x6 .build/obj_ergodox_ez_default/keyboards/ergodox_ez/ergodox_ez.o
                0x0000000000000c4e                ergodox_right_led_3_off
 .text.ergodox_led_all_off
                0x0000000000000c54       0x10 .build/obj_ergodox_ez_default/keyboards/ergodox_ez/ergodox_ez.o
                0x0000000000000c54                ergodox_led_all_off
 .text.ergodox_led_all_set
                0x0000000000000c64       0x1c .build/obj_ergodox_ez_default/keyboards/ergodox_ez/ergodox_ez.o
                0x0000000000000c64                ergodox_led_all_set
 .text.ergodox_blink_all_leds
                0x0000000000000c80       0x80 .build/obj_ergodox_ez_default/keyboards/ergodox_ez/ergodox_ez.o
                0x0000000000000c80                ergodox_blink_all_leds
 .text.matrix_init_kb
                0x0000000000000d00       0x2c .build/obj_ergodox_ez_default/keyboards/ergodox_ez/ergodox_ez.o
                0x0000000000000d00                matrix_init_kb
 .text.init_mcp23018
                0x0000000000000d2c       0xee .build/obj_ergodox_ez_default/keyboards/ergodox_ez/ergodox_ez.o
                0x0000000000000d2c                init_mcp23018
 .text.process_record_user
                0x0000000000000e1a       0x3e .build/obj_ergodox_ez_default/keyboards/ergodox_ez/keymaps/default/keymap.o
                0x0000000000000e1a                process_record_user
 .text.matrix_init_user
                0x0000000000000e58        0x2 .build/obj_ergodox_ez_default/keyboards/ergodox_ez/keymaps/default/keymap.o
                0x0000000000000e58                matrix_init_user
 .text.layer_state_set_user
                0x0000000000000e5a       0x6a .build/obj_ergodox_ez_default/keyboards/ergodox_ez/keymaps/default/keymap.o
                0x0000000000000e5a                layer_state_set_user
 .text.do_code16
                0x0000000000000ec4       0x6c .build/obj_ergodox_ez_default/quantum/quantum.o
 .text.qk_register_weak_mods
                0x0000000000000f30       0x16 .build/obj_ergodox_ez_default/quantum/quantum.o
 .text.qk_register_mods
                0x0000000000000f46        0x4 .build/obj_ergodox_ez_default/quantum/quantum.o
 .text.qk_unregister_weak_mods
                0x0000000000000f4a       0x16 .build/obj_ergodox_ez_default/quantum/quantum.o
 .text.qk_unregister_mods
                0x0000000000000f60        0x4 .build/obj_ergodox_ez_default/quantum/quantum.o
 .text.register_code16
                0x0000000000000f64       0x2a .build/obj_ergodox_ez_default/quantum/quantum.o
                0x0000000000000f64                register_code16
 .text.unregister_code16
                0x0000000000000f8e       0x2a .build/obj_ergodox_ez_default/quantum/quantum.o
                0x0000000000000f8e                unregister_code16
 .text.tap_code16
                0x0000000000000fb8       0x14 .build/obj_ergodox_ez_default/quantum/quantum.o
                0x0000000000000fb8                tap_code16
 .text.process_action_kb
                0x0000000000000fcc        0x4 .build/obj_ergodox_ez_default/quantum/quantum.o
                0x0000000000000fcc                process_action_kb
 .text.process_record_kb
                0x0000000000000fd0        0x4 .build/obj_ergodox_ez_default/quantum/quantum.o
                0x0000000000000fd0                process_record_kb
 .text.get_event_keycode
                0x0000000000000fd4       0x62 .build/obj_ergodox_ez_default/quantum/quantum.o
                0x0000000000000fd4                get_event_keycode
 .text.get_record_keycode
                0x0000000000001036       0x10 .build/obj_ergodox_ez_default/quantum/quantum.o
                0x0000000000001036                get_record_keycode
 .text.send_char
                0x0000000000001046       0x5c .build/obj_ergodox_ez_default/quantum/quantum.o
                0x0000000000001046                send_char
 .text.send_string_with_delay_P
                0x00000000000010a2       0x74 .build/obj_ergodox_ez_default/quantum/quantum.o
                0x00000000000010a2                send_string_with_delay_P
 .text.send_string_P
                0x0000000000001116        0x6 .build/obj_ergodox_ez_default/quantum/quantum.o
                0x0000000000001116                send_string_P
 .text.matrix_init_quantum
                0x000000000000111c       0x14 .build/obj_ergodox_ez_default/quantum/quantum.o
                0x000000000000111c                matrix_init_quantum
 .text.matrix_scan_quantum
                0x0000000000001130        0x4 .build/obj_ergodox_ez_default/quantum/quantum.o
                0x0000000000001130                matrix_scan_quantum
 .text.hex_to_keycode
                0x0000000000001134       0x1c .build/obj_ergodox_ez_default/quantum/quantum.o
                0x0000000000001134                hex_to_keycode
 .text.led_set_user
                0x0000000000001150        0x2 .build/obj_ergodox_ez_default/quantum/quantum.o
                0x0000000000001150                led_set_user
 .text.led_set_kb
                0x0000000000001152        0x4 .build/obj_ergodox_ez_default/quantum/quantum.o
                0x0000000000001152                led_set_kb
 .text.led_set  0x0000000000001156        0x4 .build/obj_ergodox_ez_default/quantum/quantum.o
                0x0000000000001156                led_set
 .text.shutdown_user
                0x000000000000115a        0x2 .build/obj_ergodox_ez_default/quantum/quantum.o
                0x000000000000115a                shutdown_user
 .text.reset_keyboard
                0x000000000000115c       0x1e .build/obj_ergodox_ez_default/quantum/quantum.o
                0x000000000000115c                reset_keyboard
 .text.process_record_quantum
                0x000000000000117a      0x42c .build/obj_ergodox_ez_default/quantum/quantum.o
                0x000000000000117a                process_record_quantum
 .text.action_get_macro
                0x00000000000015a6        0x6 .build/obj_ergodox_ez_default/quantum/keymap_common.o
                0x00000000000015a6                action_get_macro
 .text.action_function
                0x00000000000015ac        0x2 .build/obj_ergodox_ez_default/quantum/keymap_common.o
                0x00000000000015ac                action_function
 .text.keymap_key_to_keycode
                0x00000000000015ae       0x28 .build/obj_ergodox_ez_default/quantum/keymap_common.o
                0x00000000000015ae                keymap_key_to_keycode
 .text.keymap_function_id_to_action
                0x00000000000015d6       0x10 .build/obj_ergodox_ez_default/quantum/keymap_common.o
                0x00000000000015d6                keymap_function_id_to_action
 .text.action_for_key
                0x00000000000015e6      0x38c .build/obj_ergodox_ez_default/quantum/keymap_common.o
                0x00000000000015e6                action_for_key
 .text.keycode_config
                0x0000000000001972       0xf6 .build/obj_ergodox_ez_default/quantum/keycode_config.o
                0x0000000000001972                keycode_config
 .text.mod_config
                0x0000000000001a68       0x46 .build/obj_ergodox_ez_default/quantum/keycode_config.o
                0x0000000000001a68                mod_config
 .text.debounce_init
                0x0000000000001aae       0x28 .build/obj_ergodox_ez_default/quantum/debounce/eager_pr.o
                0x0000000000001aae                debounce_init
 .text.update_debounce_counters
                0x0000000000001ad6       0x7c .build/obj_ergodox_ez_default/quantum/debounce/eager_pr.o
                0x0000000000001ad6                update_debounce_counters
 .text.transfer_matrix_values
                0x0000000000001b52       0x72 .build/obj_ergodox_ez_default/quantum/debounce/eager_pr.o
                0x0000000000001b52                transfer_matrix_values
 .text.debounce
                0x0000000000001bc4       0x70 .build/obj_ergodox_ez_default/quantum/debounce/eager_pr.o
                0x0000000000001bc4                debounce
 .text.process_unicode
                0x0000000000001c34       0x2a .build/obj_ergodox_ez_default/quantum/process_keycode/process_unicode.o
                0x0000000000001c34                process_unicode
 .text.unicode_input_mode_init
                0x0000000000001c5e       0x20 .build/obj_ergodox_ez_default/quantum/process_keycode/process_unicode_common.o
                0x0000000000001c5e                unicode_input_mode_init
 .text.persist_unicode_input_mode
                0x0000000000001c7e        0xc .build/obj_ergodox_ez_default/quantum/process_keycode/process_unicode_common.o
                0x0000000000001c7e                persist_unicode_input_mode
 .text.unicode_input_start
                0x0000000000001c8a       0x58 .build/obj_ergodox_ez_default/quantum/process_keycode/process_unicode_common.o
                0x0000000000001c8a                unicode_input_start
 .text.unicode_input_finish
                0x0000000000001ce2       0x30 .build/obj_ergodox_ez_default/quantum/process_keycode/process_unicode_common.o
                0x0000000000001ce2                unicode_input_finish
 .text.register_hex
                0x0000000000001d12       0x3a .build/obj_ergodox_ez_default/quantum/process_keycode/process_unicode_common.o
                0x0000000000001d12                register_hex
 .text.process_unicode_common
                0x0000000000001d4c       0x6a .build/obj_ergodox_ez_default/quantum/process_keycode/process_unicode_common.o
                0x0000000000001d4c                process_unicode_common
 .text.hsv_to_rgb
                0x0000000000001db6      0x12c .build/obj_ergodox_ez_default/quantum/color.o
                0x0000000000001db6                hsv_to_rgb
 .text.rgblight_effect_dummy
                0x0000000000001ee2        0x2 .build/obj_ergodox_ez_default/quantum/rgblight.o
 .text.sethsv   0x0000000000001ee4       0x20 .build/obj_ergodox_ez_default/quantum/rgblight.o
                0x0000000000001ee4                sethsv
 .text.rgblight_check_config
                0x0000000000001f04       0x1e .build/obj_ergodox_ez_default/quantum/rgblight.o
                0x0000000000001f04                rgblight_check_config
 .text.eeconfig_read_rgblight
                0x0000000000001f22        0x8 .build/obj_ergodox_ez_default/quantum/rgblight.o
                0x0000000000001f22                eeconfig_read_rgblight
 .text.eeconfig_update_rgblight
                0x0000000000001f2a       0x24 .build/obj_ergodox_ez_default/quantum/rgblight.o
                0x0000000000001f2a                eeconfig_update_rgblight
 .text.eeconfig_update_rgblight_default
                0x0000000000001f4e       0x1e .build/obj_ergodox_ez_default/quantum/rgblight.o
                0x0000000000001f4e                eeconfig_update_rgblight_default
 .text.rgblight_get_mode
                0x0000000000001f6c       0x10 .build/obj_ergodox_ez_default/quantum/rgblight.o
                0x0000000000001f6c                rgblight_get_mode
 .text.rgblight_increase_speed
                0x0000000000001f7c       0x22 .build/obj_ergodox_ez_default/quantum/rgblight.o
                0x0000000000001f7c                rgblight_increase_speed
 .text.rgblight_decrease_speed
                0x0000000000001f9e       0x22 .build/obj_ergodox_ez_default/quantum/rgblight.o
                0x0000000000001f9e                rgblight_decrease_speed
 .text.rgblight_set
                0x0000000000001fc0       0x36 .build/obj_ergodox_ez_default/quantum/rgblight.o
                0x0000000000001fc0                rgblight_set
 .text.rgblight_setrgb
                0x0000000000001ff6       0x22 .build/obj_ergodox_ez_default/quantum/rgblight.o
                0x0000000000001ff6                rgblight_setrgb
 .text.rgblight_sethsv_noeeprom_old
                0x0000000000002018       0x36 .build/obj_ergodox_ez_default/quantum/rgblight.o
                0x0000000000002018                rgblight_sethsv_noeeprom_old
 .text.rgblight_effect_breathing
                0x000000000000204e       0x28 .build/obj_ergodox_ez_default/quantum/rgblight.o
                0x000000000000204e                rgblight_effect_breathing
 .text.rgblight_effect_rainbow_mood
                0x0000000000002076       0x20 .build/obj_ergodox_ez_default/quantum/rgblight.o
                0x0000000000002076                rgblight_effect_rainbow_mood
 .text.rgblight_effect_rgbtest
                0x0000000000002096       0x80 .build/obj_ergodox_ez_default/quantum/rgblight.o
                0x0000000000002096                rgblight_effect_rgbtest
 .text.rgblight_sethsv_eeprom_helper
                0x0000000000002116      0x12c .build/obj_ergodox_ez_default/quantum/rgblight.o
                0x0000000000002116                rgblight_sethsv_eeprom_helper
 .text.rgblight_increase_hue_helper
                0x0000000000002242       0x14 .build/obj_ergodox_ez_default/quantum/rgblight.o
                0x0000000000002242                rgblight_increase_hue_helper
 .text.rgblight_increase_hue
                0x0000000000002256        0x6 .build/obj_ergodox_ez_default/quantum/rgblight.o
                0x0000000000002256                rgblight_increase_hue
 .text.rgblight_decrease_hue_helper
                0x000000000000225c       0x14 .build/obj_ergodox_ez_default/quantum/rgblight.o
                0x000000000000225c                rgblight_decrease_hue_helper
 .text.rgblight_decrease_hue
                0x0000000000002270        0x6 .build/obj_ergodox_ez_default/quantum/rgblight.o
                0x0000000000002270                rgblight_decrease_hue
 .text.rgblight_increase_sat_helper
                0x0000000000002276       0x18 .build/obj_ergodox_ez_default/quantum/rgblight.o
                0x0000000000002276                rgblight_increase_sat_helper
 .text.rgblight_increase_sat
                0x000000000000228e        0x6 .build/obj_ergodox_ez_default/quantum/rgblight.o
                0x000000000000228e                rgblight_increase_sat
 .text.rgblight_decrease_sat_helper
                0x0000000000002294       0x18 .build/obj_ergodox_ez_default/quantum/rgblight.o
                0x0000000000002294                rgblight_decrease_sat_helper
 .text.rgblight_decrease_sat
                0x00000000000022ac        0x6 .build/obj_ergodox_ez_default/quantum/rgblight.o
                0x00000000000022ac                rgblight_decrease_sat
 .text.rgblight_increase_val_helper
                0x00000000000022b2       0x18 .build/obj_ergodox_ez_default/quantum/rgblight.o
                0x00000000000022b2                rgblight_increase_val_helper
 .text.rgblight_increase_val
                0x00000000000022ca        0x6 .build/obj_ergodox_ez_default/quantum/rgblight.o
                0x00000000000022ca                rgblight_increase_val
 .text.rgblight_decrease_val_helper
                0x00000000000022d0       0x18 .build/obj_ergodox_ez_default/quantum/rgblight.o
                0x00000000000022d0                rgblight_decrease_val_helper
 .text.rgblight_decrease_val
                0x00000000000022e8        0x6 .build/obj_ergodox_ez_default/quantum/rgblight.o
                0x00000000000022e8                rgblight_decrease_val
 .text.rgblight_sethsv_noeeprom
                0x00000000000022ee        0x6 .build/obj_ergodox_ez_default/quantum/rgblight.o
                0x00000000000022ee                rgblight_sethsv_noeeprom
 .text.rgblight_effect_rainbow_swirl
                0x00000000000022f4       0x54 .build/obj_ergodox_ez_default/quantum/rgblight.o
                0x00000000000022f4                rgblight_effect_rainbow_swirl
 .text.rgblight_effect_snake
                0x0000000000002348       0xc2 .build/obj_ergodox_ez_default/quantum/rgblight.o
                0x0000000000002348                rgblight_effect_snake
 .text.rgblight_effect_knight
                0x000000000000240a       0x9c .build/obj_ergodox_ez_default/quantum/rgblight.o
                0x000000000000240a                rgblight_effect_knight
 .text.rgblight_effect_christmas
                0x00000000000024a6       0x68 .build/obj_ergodox_ez_default/quantum/rgblight.o
                0x00000000000024a6                rgblight_effect_christmas
 .text.rgblight_effect_alternating
                0x000000000000250e       0x72 .build/obj_ergodox_ez_default/quantum/rgblight.o
                0x000000000000250e                rgblight_effect_alternating
 .text.rgblight_disable
                0x0000000000002580       0x30 .build/obj_ergodox_ez_default/quantum/rgblight.o
                0x0000000000002580                rgblight_disable
 .text.rgblight_timer_enable
                0x00000000000025b0       0x2c .build/obj_ergodox_ez_default/quantum/rgblight.o
                0x00000000000025b0                rgblight_timer_enable
 .text.rgblight_mode_eeprom_helper
                0x00000000000025dc       0x74 .build/obj_ergodox_ez_default/quantum/rgblight.o
                0x00000000000025dc                rgblight_mode_eeprom_helper
 .text.rgblight_step_helper
                0x0000000000002650       0x16 .build/obj_ergodox_ez_default/quantum/rgblight.o
                0x0000000000002650                rgblight_step_helper
 .text.rgblight_step
                0x0000000000002666        0x6 .build/obj_ergodox_ez_default/quantum/rgblight.o
                0x0000000000002666                rgblight_step
 .text.rgblight_step_reverse_helper
                0x000000000000266c       0x14 .build/obj_ergodox_ez_default/quantum/rgblight.o
                0x000000000000266c                rgblight_step_reverse_helper
 .text.rgblight_step_reverse
                0x0000000000002680        0x6 .build/obj_ergodox_ez_default/quantum/rgblight.o
                0x0000000000002680                rgblight_step_reverse
 .text.rgblight_mode
                0x0000000000002686        0x6 .build/obj_ergodox_ez_default/quantum/rgblight.o
                0x0000000000002686                rgblight_mode
 .text.rgblight_enable
                0x000000000000268c       0x10 .build/obj_ergodox_ez_default/quantum/rgblight.o
                0x000000000000268c                rgblight_enable
 .text.rgblight_toggle
                0x000000000000269c        0xe .build/obj_ergodox_ez_default/quantum/rgblight.o
                0x000000000000269c                rgblight_toggle
 .text.rgblight_mode_noeeprom
                0x00000000000026aa        0x6 .build/obj_ergodox_ez_default/quantum/rgblight.o
                0x00000000000026aa                rgblight_mode_noeeprom
 .text.rgblight_init
                0x00000000000026b0       0x70 .build/obj_ergodox_ez_default/quantum/rgblight.o
                0x00000000000026b0                rgblight_init
 .text.rgblight_task
                0x0000000000002720      0x136 .build/obj_ergodox_ez_default/quantum/rgblight.o
                0x0000000000002720                rgblight_task
 .text.I2C_WriteBit
                0x0000000000002856       0x38 .build/obj_ergodox_ez_default/ws2812.o
                0x0000000000002856                I2C_WriteBit
 .text.I2C_Init
                0x000000000000288e       0x18 .build/obj_ergodox_ez_default/ws2812.o
                0x000000000000288e                I2C_Init
 .text.I2C_Start
                0x00000000000028a6       0x28 .build/obj_ergodox_ez_default/ws2812.o
                0x00000000000028a6                I2C_Start
 .text.I2C_Stop
                0x00000000000028ce       0x1a .build/obj_ergodox_ez_default/ws2812.o
                0x00000000000028ce                I2C_Stop
 .text.I2C_Write
                0x00000000000028e8       0x34 .build/obj_ergodox_ez_default/ws2812.o
                0x00000000000028e8                I2C_Write
 .text.ws2812_sendarray_mask
                0x000000000000291c       0x44 .build/obj_ergodox_ez_default/ws2812.o
                0x000000000000291c                ws2812_sendarray_mask
 .text.ws2812_setleds_rgbw
                0x0000000000002960       0x80 .build/obj_ergodox_ez_default/ws2812.o
                0x0000000000002960                ws2812_setleds_rgbw
 .text.perform_space_cadet
                0x00000000000029e0       0xda .build/obj_ergodox_ez_default/quantum/process_keycode/process_space_cadet.o
                0x00000000000029e0                perform_space_cadet
 .text.process_space_cadet
                0x0000000000002aba       0x78 .build/obj_ergodox_ez_default/quantum/process_keycode/process_space_cadet.o
                0x0000000000002aba                process_space_cadet
 .text.host_set_driver
                0x0000000000002b32        0xa .build/obj_ergodox_ez_default/common/host.o
                0x0000000000002b32                host_set_driver
 .text.host_keyboard_leds
                0x0000000000002b3c       0x18 .build/obj_ergodox_ez_default/common/host.o
                0x0000000000002b3c                host_keyboard_leds
 .text.host_keyboard_send
                0x0000000000002b54       0x34 .build/obj_ergodox_ez_default/common/host.o
                0x0000000000002b54                host_keyboard_send
 .text.host_mouse_send
                0x0000000000002b88       0x1c .build/obj_ergodox_ez_default/common/host.o
                0x0000000000002b88                host_mouse_send
 .text.host_system_send
                0x0000000000002ba4       0x2c .build/obj_ergodox_ez_default/common/host.o
                0x0000000000002ba4                host_system_send
 .text.host_consumer_send
                0x0000000000002bd0       0x2c .build/obj_ergodox_ez_default/common/host.o
                0x0000000000002bd0                host_consumer_send
 .text.disable_jtag
                0x0000000000002bfc        0xe .build/obj_ergodox_ez_default/common/keyboard.o
                0x0000000000002bfc                disable_jtag
 .text.keyboard_pre_init_user
                0x0000000000002c0a        0x2 .build/obj_ergodox_ez_default/common/keyboard.o
                0x0000000000002c0a                keyboard_pre_init_user
 .text.matrix_setup
                0x0000000000002c0c        0x2 .build/obj_ergodox_ez_default/common/keyboard.o
                0x0000000000002c0c                matrix_setup
 .text.keyboard_pre_init_kb
                0x0000000000002c0e        0x4 .build/obj_ergodox_ez_default/common/keyboard.o
                0x0000000000002c0e                keyboard_pre_init_kb
 .text.keyboard_post_init_user
                0x0000000000002c12        0x2 .build/obj_ergodox_ez_default/common/keyboard.o
                0x0000000000002c12                keyboard_post_init_user
 .text.keyboard_post_init_kb
                0x0000000000002c14        0x4 .build/obj_ergodox_ez_default/common/keyboard.o
                0x0000000000002c14                keyboard_post_init_kb
 .text.keyboard_setup
                0x0000000000002c18        0xc .build/obj_ergodox_ez_default/common/keyboard.o
                0x0000000000002c18                keyboard_setup
 .text.is_keyboard_master
                0x0000000000002c24        0x4 .build/obj_ergodox_ez_default/common/keyboard.o
                0x0000000000002c24                is_keyboard_master
 .text.keyboard_init
                0x0000000000002c28       0x14 .build/obj_ergodox_ez_default/common/keyboard.o
                0x0000000000002c28                keyboard_init
 .text.keyboard_task
                0x0000000000002c3c      0x154 .build/obj_ergodox_ez_default/common/keyboard.o
                0x0000000000002c3c                keyboard_task
 .text.process_hand_swap
                0x0000000000002d90       0x70 .build/obj_ergodox_ez_default/common/action.o
                0x0000000000002d90                process_hand_swap
 .text.action_exec
                0x0000000000002e00       0x70 .build/obj_ergodox_ez_default/common/action.o
                0x0000000000002e00                action_exec
 .text.process_record_tap_hint
                0x0000000000002e70       0x24 .build/obj_ergodox_ez_default/common/action.o
                0x0000000000002e70                process_record_tap_hint
 .text.register_code
                0x0000000000002e94      0x1da .build/obj_ergodox_ez_default/common/action.o
                0x0000000000002e94                register_code
 .text.unregister_code
                0x000000000000306e       0xac .build/obj_ergodox_ez_default/common/action.o
                0x000000000000306e                unregister_code
 .text.tap_code
                0x000000000000311a       0x10 .build/obj_ergodox_ez_default/common/action.o
                0x000000000000311a                tap_code
 .text.register_mods
                0x000000000000312a        0xe .build/obj_ergodox_ez_default/common/action.o
                0x000000000000312a                register_mods
 .text.unregister_mods
                0x0000000000003138        0xe .build/obj_ergodox_ez_default/common/action.o
                0x0000000000003138                unregister_mods
 .text.process_action
                0x0000000000003146      0x550 .build/obj_ergodox_ez_default/common/action.o
                0x0000000000003146                process_action
 .text.process_record
                0x0000000000003696       0x54 .build/obj_ergodox_ez_default/common/action.o
                0x0000000000003696                process_record
 .text.clear_keyboard_but_mods_and_keys
                0x00000000000036ea       0x24 .build/obj_ergodox_ez_default/common/action.o
                0x00000000000036ea                clear_keyboard_but_mods_and_keys
 .text.clear_keyboard_but_mods
                0x000000000000370e        0x8 .build/obj_ergodox_ez_default/common/action.o
                0x000000000000370e                clear_keyboard_but_mods
 .text.clear_keyboard
                0x0000000000003716        0x8 .build/obj_ergodox_ez_default/common/action.o
                0x0000000000003716                clear_keyboard
 .text.is_tap_action
                0x000000000000371e       0x3e .build/obj_ergodox_ez_default/common/action.o
                0x000000000000371e                is_tap_action
 .text.is_tap_key
                0x000000000000375c        0x8 .build/obj_ergodox_ez_default/common/action.o
                0x000000000000375c                is_tap_key
 .text.debug_event
                0x0000000000003764       0x1e .build/obj_ergodox_ez_default/common/action.o
                0x0000000000003764                debug_event
 .text.debug_record
                0x0000000000003782       0x20 .build/obj_ergodox_ez_default/common/action.o
                0x0000000000003782                debug_record
 .text.debug_waiting_buffer
                0x00000000000037a2       0x42 .build/obj_ergodox_ez_default/common/action_tapping.o
 .text.debug_tapping_key
                0x00000000000037e4       0x1c .build/obj_ergodox_ez_default/common/action_tapping.o
 .text.waiting_buffer_scan_tap
                0x0000000000003800       0xc8 .build/obj_ergodox_ez_default/common/action_tapping.o
 .text.process_tapping
                0x00000000000038c8      0x38e .build/obj_ergodox_ez_default/common/action_tapping.o
 .text.action_tapping_process
                0x0000000000003c56      0x134 .build/obj_ergodox_ez_default/common/action_tapping.o
                0x0000000000003c56                action_tapping_process
 .text.action_macro_play
                0x0000000000003d8a       0xf0 .build/obj_ergodox_ez_default/common/action_macro.o
                0x0000000000003d8a                action_macro_play
 .text.default_layer_state_set_user
                0x0000000000003e7a        0x2 .build/obj_ergodox_ez_default/common/action_layer.o
                0x0000000000003e7a                default_layer_state_set_user
 .text.default_layer_state_set_kb
                0x0000000000003e7c        0x4 .build/obj_ergodox_ez_default/common/action_layer.o
                0x0000000000003e7c                default_layer_state_set_kb
 .text.default_layer_state_set
                0x0000000000003e80       0x18 .build/obj_ergodox_ez_default/common/action_layer.o
 .text.default_layer_debug
                0x0000000000003e98        0x2 .build/obj_ergodox_ez_default/common/action_layer.o
                0x0000000000003e98                default_layer_debug
 .text.default_layer_set
                0x0000000000003e9a        0x4 .build/obj_ergodox_ez_default/common/action_layer.o
                0x0000000000003e9a                default_layer_set
 .text.default_layer_or
                0x0000000000003e9e       0x24 .build/obj_ergodox_ez_default/common/action_layer.o
                0x0000000000003e9e                default_layer_or
 .text.default_layer_and
                0x0000000000003ec2       0x24 .build/obj_ergodox_ez_default/common/action_layer.o
                0x0000000000003ec2                default_layer_and
 .text.default_layer_xor
                0x0000000000003ee6       0x24 .build/obj_ergodox_ez_default/common/action_layer.o
                0x0000000000003ee6                default_layer_xor
 .text.layer_state_set_kb
                0x0000000000003f0a        0x4 .build/obj_ergodox_ez_default/common/action_layer.o
                0x0000000000003f0a                layer_state_set_kb
 .text.layer_state_set
                0x0000000000003f0e       0x18 .build/obj_ergodox_ez_default/common/action_layer.o
                0x0000000000003f0e                layer_state_set
 .text.layer_clear
                0x0000000000003f26        0xa .build/obj_ergodox_ez_default/common/action_layer.o
                0x0000000000003f26                layer_clear
 .text.layer_move
                0x0000000000003f30       0x2a .build/obj_ergodox_ez_default/common/action_layer.o
                0x0000000000003f30                layer_move
 .text.layer_on
                0x0000000000003f5a       0x42 .build/obj_ergodox_ez_default/common/action_layer.o
                0x0000000000003f5a                layer_on
 .text.layer_off
                0x0000000000003f9c       0x46 .build/obj_ergodox_ez_default/common/action_layer.o
                0x0000000000003f9c                layer_off
 .text.layer_invert
                0x0000000000003fe2       0x42 .build/obj_ergodox_ez_default/common/action_layer.o
                0x0000000000003fe2                layer_invert
 .text.layer_or
                0x0000000000004024       0x24 .build/obj_ergodox_ez_default/common/action_layer.o
                0x0000000000004024                layer_or
 .text.layer_and
                0x0000000000004048       0x24 .build/obj_ergodox_ez_default/common/action_layer.o
                0x0000000000004048                layer_and
 .text.layer_xor
                0x000000000000406c       0x24 .build/obj_ergodox_ez_default/common/action_layer.o
                0x000000000000406c                layer_xor
 .text.layer_debug
                0x0000000000004090        0x2 .build/obj_ergodox_ez_default/common/action_layer.o
                0x0000000000004090                layer_debug
 .text.update_source_layers_cache
                0x0000000000004092       0x5c .build/obj_ergodox_ez_default/common/action_layer.o
                0x0000000000004092                update_source_layers_cache
 .text.read_source_layers_cache
                0x00000000000040ee       0x52 .build/obj_ergodox_ez_default/common/action_layer.o
                0x00000000000040ee                read_source_layers_cache
 .text.layer_switch_get_layer
                0x0000000000004140       0x84 .build/obj_ergodox_ez_default/common/action_layer.o
                0x0000000000004140                layer_switch_get_layer
 .text.layer_switch_get_action
                0x00000000000041c4       0x14 .build/obj_ergodox_ez_default/common/action_layer.o
                0x00000000000041c4                layer_switch_get_action
 .text.store_or_get_action
                0x00000000000041d8       0x48 .build/obj_ergodox_ez_default/common/action_layer.o
                0x00000000000041d8                store_or_get_action
 .text.add_key  0x0000000000004220        0xe .build/obj_ergodox_ez_default/common/action_util.o
                0x0000000000004220                add_key
 .text.del_key  0x000000000000422e        0xe .build/obj_ergodox_ez_default/common/action_util.o
                0x000000000000422e                del_key
 .text.clear_keys
                0x000000000000423c        0xc .build/obj_ergodox_ez_default/common/action_util.o
                0x000000000000423c                clear_keys
 .text.get_oneshot_layer
                0x0000000000004248        0xc .build/obj_ergodox_ez_default/common/action_util.o
                0x0000000000004248                get_oneshot_layer
 .text.get_oneshot_layer_state
                0x0000000000004254        0x8 .build/obj_ergodox_ez_default/common/action_util.o
                0x0000000000004254                get_oneshot_layer_state
 .text.is_oneshot_layer_active
                0x000000000000425c        0xe .build/obj_ergodox_ez_default/common/action_util.o
                0x000000000000425c                is_oneshot_layer_active
 .text.get_mods
                0x000000000000426a        0x6 .build/obj_ergodox_ez_default/common/action_util.o
                0x000000000000426a                get_mods
 .text.add_mods
                0x0000000000004270        0xc .build/obj_ergodox_ez_default/common/action_util.o
                0x0000000000004270                add_mods
 .text.del_mods
                0x000000000000427c        0xe .build/obj_ergodox_ez_default/common/action_util.o
                0x000000000000427c                del_mods
 .text.set_mods
                0x000000000000428a        0x6 .build/obj_ergodox_ez_default/common/action_util.o
                0x000000000000428a                set_mods
 .text.clear_mods
                0x0000000000004290        0x6 .build/obj_ergodox_ez_default/common/action_util.o
                0x0000000000004290                clear_mods
 .text.add_weak_mods
                0x0000000000004296        0xc .build/obj_ergodox_ez_default/common/action_util.o
                0x0000000000004296                add_weak_mods
 .text.del_weak_mods
                0x00000000000042a2        0xe .build/obj_ergodox_ez_default/common/action_util.o
                0x00000000000042a2                del_weak_mods
 .text.clear_weak_mods
                0x00000000000042b0        0x6 .build/obj_ergodox_ez_default/common/action_util.o
                0x00000000000042b0                clear_weak_mods
 .text.add_macro_mods
                0x00000000000042b6        0xc .build/obj_ergodox_ez_default/common/action_util.o
                0x00000000000042b6                add_macro_mods
 .text.del_macro_mods
                0x00000000000042c2        0xe .build/obj_ergodox_ez_default/common/action_util.o
                0x00000000000042c2                del_macro_mods
 .text.clear_macro_mods
                0x00000000000042d0        0x6 .build/obj_ergodox_ez_default/common/action_util.o
                0x00000000000042d0                clear_macro_mods
 .text.get_oneshot_mods
                0x00000000000042d6        0x6 .build/obj_ergodox_ez_default/common/action_util.o
                0x00000000000042d6                get_oneshot_mods
 .text.oneshot_mods_changed_user
                0x00000000000042dc        0x2 .build/obj_ergodox_ez_default/common/action_util.o
                0x00000000000042dc                oneshot_mods_changed_user
 .text.oneshot_mods_changed_kb
                0x00000000000042de        0x4 .build/obj_ergodox_ez_default/common/action_util.o
                0x00000000000042de                oneshot_mods_changed_kb
 .text.set_oneshot_mods
                0x00000000000042e2       0x12 .build/obj_ergodox_ez_default/common/action_util.o
                0x00000000000042e2                set_oneshot_mods
 .text.clear_oneshot_mods
                0x00000000000042f4       0x14 .build/obj_ergodox_ez_default/common/action_util.o
                0x00000000000042f4                clear_oneshot_mods
 .text.send_keyboard_report
                0x0000000000004308       0x66 .build/obj_ergodox_ez_default/common/action_util.o
                0x0000000000004308                send_keyboard_report
 .text.oneshot_layer_changed_user
                0x000000000000436e        0x2 .build/obj_ergodox_ez_default/common/action_util.o
                0x000000000000436e                oneshot_layer_changed_user
 .text.oneshot_layer_changed_kb
                0x0000000000004370        0x4 .build/obj_ergodox_ez_default/common/action_util.o
                0x0000000000004370                oneshot_layer_changed_kb
 .text.set_oneshot_layer
                0x0000000000004374       0x20 .build/obj_ergodox_ez_default/common/action_util.o
                0x0000000000004374                set_oneshot_layer
 .text.reset_oneshot_layer
                0x0000000000004394        0xa .build/obj_ergodox_ez_default/common/action_util.o
                0x0000000000004394                reset_oneshot_layer
 .text.clear_oneshot_layer_state
                0x000000000000439e       0x30 .build/obj_ergodox_ez_default/common/action_util.o
                0x000000000000439e                clear_oneshot_layer_state
 .text.biton32  0x00000000000043ce       0x9a .build/obj_ergodox_ez_default/common/util.o
                0x00000000000043ce                biton32
 .text.eeconfig_is_enabled
                0x0000000000004468       0x16 .build/obj_ergodox_ez_default/common/eeconfig.o
                0x0000000000004468                eeconfig_is_enabled
 .text.eeconfig_read_debug
                0x000000000000447e        0x8 .build/obj_ergodox_ez_default/common/eeconfig.o
                0x000000000000447e                eeconfig_read_debug
 .text.eeconfig_read_default_layer
                0x0000000000004486        0x8 .build/obj_ergodox_ez_default/common/eeconfig.o
                0x0000000000004486                eeconfig_read_default_layer
 .text.eeconfig_read_keymap
                0x000000000000448e        0x8 .build/obj_ergodox_ez_default/common/eeconfig.o
                0x000000000000448e                eeconfig_read_keymap
 .text.eeconfig_update_keymap
                0x0000000000004496        0xa .build/obj_ergodox_ez_default/common/eeconfig.o
                0x0000000000004496                eeconfig_update_keymap
 .text.eeconfig_update_kb
                0x00000000000044a0        0xc .build/obj_ergodox_ez_default/common/eeconfig.o
                0x00000000000044a0                eeconfig_update_kb
 .text.eeconfig_update_user
                0x00000000000044ac        0xc .build/obj_ergodox_ez_default/common/eeconfig.o
                0x00000000000044ac                eeconfig_update_user
 .text.eeconfig_init_user
                0x00000000000044b8        0xa .build/obj_ergodox_ez_default/common/eeconfig.o
                0x00000000000044b8                eeconfig_init_user
 .text.eeconfig_init_kb
                0x00000000000044c2        0xe .build/obj_ergodox_ez_default/common/eeconfig.o
                0x00000000000044c2                eeconfig_init_kb
 .text.eeconfig_init_quantum
                0x00000000000044d0       0x8c .build/obj_ergodox_ez_default/common/eeconfig.o
                0x00000000000044d0                eeconfig_init_quantum
 .text.eeconfig_init
                0x000000000000455c        0x4 .build/obj_ergodox_ez_default/common/eeconfig.o
                0x000000000000455c                eeconfig_init
 .text.has_anykey
                0x0000000000004560       0x28 .build/obj_ergodox_ez_default/common/report.o
                0x0000000000004560                has_anykey
 .text.add_key_byte
                0x0000000000004588       0x34 .build/obj_ergodox_ez_default/common/report.o
                0x0000000000004588                add_key_byte
 .text.del_key_byte
                0x00000000000045bc       0x1a .build/obj_ergodox_ez_default/common/report.o
                0x00000000000045bc                del_key_byte
 .text.add_key_bit
                0x00000000000045d6       0x28 .build/obj_ergodox_ez_default/common/report.o
                0x00000000000045d6                add_key_bit
 .text.del_key_bit
                0x00000000000045fe       0x2a .build/obj_ergodox_ez_default/common/report.o
                0x00000000000045fe                del_key_bit
 .text.add_key_to_report
                0x0000000000004628       0x16 .build/obj_ergodox_ez_default/common/report.o
                0x0000000000004628                add_key_to_report
 .text.del_key_from_report
                0x000000000000463e       0x16 .build/obj_ergodox_ez_default/common/report.o
                0x000000000000463e                del_key_from_report
 .text.clear_keys_from_report
                0x0000000000004654       0x24 .build/obj_ergodox_ez_default/common/report.o
                0x0000000000004654                clear_keys_from_report
 .text.suspend_power_down_user
                0x0000000000004678        0x2 .build/obj_ergodox_ez_default/common/avr/suspend.o
                0x0000000000004678                suspend_power_down_user
 .text.suspend_power_down_kb
                0x000000000000467a        0x4 .build/obj_ergodox_ez_default/common/avr/suspend.o
                0x000000000000467a                suspend_power_down_kb
 .text.suspend_power_down
                0x000000000000467e       0x60 .build/obj_ergodox_ez_default/common/avr/suspend.o
                0x000000000000467e                suspend_power_down
 .text.matrix_power_down
                0x00000000000046de        0x2 .build/obj_ergodox_ez_default/common/avr/suspend.o
                0x00000000000046de                matrix_power_down
 .text.suspend_wakeup_condition
                0x00000000000046e0       0x28 .build/obj_ergodox_ez_default/common/avr/suspend.o
                0x00000000000046e0                suspend_wakeup_condition
 .text.suspend_wakeup_init_user
                0x0000000000004708        0x2 .build/obj_ergodox_ez_default/common/avr/suspend.o
                0x0000000000004708                suspend_wakeup_init_user
 .text.suspend_wakeup_init_kb
                0x000000000000470a        0x4 .build/obj_ergodox_ez_default/common/avr/suspend.o
                0x000000000000470a                suspend_wakeup_init_kb
 .text.suspend_wakeup_init
                0x000000000000470e       0x10 .build/obj_ergodox_ez_default/common/avr/suspend.o
                0x000000000000470e                suspend_wakeup_init
 .text.__vector_12
                0x000000000000471e       0x4e .build/obj_ergodox_ez_default/common/avr/suspend.o
                0x000000000000471e                __vector_12
 .text.timer_init
                0x000000000000476c       0x12 .build/obj_ergodox_ez_default/common/avr/timer.o
                0x000000000000476c                timer_init
 .text.timer_read
                0x000000000000477e       0x18 .build/obj_ergodox_ez_default/common/avr/timer.o
                0x000000000000477e                timer_read
 .text.timer_elapsed
                0x0000000000004796       0x54 .build/obj_ergodox_ez_default/common/avr/timer.o
                0x0000000000004796                timer_elapsed
 .text.__vector_21
                0x00000000000047ea       0x48 .build/obj_ergodox_ez_default/common/avr/timer.o
                0x00000000000047ea                __vector_21
 .text.bootloader_jump
                0x0000000000004832       0x64 .build/obj_ergodox_ez_default/common/avr/bootloader.o
                0x0000000000004832                bootloader_jump
 .text.magic    0x0000000000004896       0x32 .build/obj_ergodox_ez_default/common/magic.o
                0x0000000000004896                magic
 .text.move_unit
                0x00000000000048c8       0x94 .build/obj_ergodox_ez_default/common/mousekey.o
 .text.wheel_unit
                0x000000000000495c       0x72 .build/obj_ergodox_ez_default/common/mousekey.o
 .text.mousekey_on
                0x00000000000049ce       0xd0 .build/obj_ergodox_ez_default/common/mousekey.o
                0x00000000000049ce                mousekey_on
 .text.mousekey_off
                0x0000000000004a9e       0xfe .build/obj_ergodox_ez_default/common/mousekey.o
                0x0000000000004a9e                mousekey_off
 .text.mousekey_send
                0x0000000000004b9c       0x16 .build/obj_ergodox_ez_default/common/mousekey.o
                0x0000000000004b9c                mousekey_send
 .text.mousekey_task
                0x0000000000004bb2      0x12e .build/obj_ergodox_ez_default/common/mousekey.o
                0x0000000000004bb2                mousekey_task
 .text.mousekey_clear
                0x0000000000004ce0       0x18 .build/obj_ergodox_ez_default/common/mousekey.o
                0x0000000000004ce0                mousekey_clear
 .text.mousekey_param_inc
                0x0000000000004cf8       0xec .build/obj_ergodox_ez_default/common/command.o
 .text.mousekey_param_dec
                0x0000000000004de4       0xa0 .build/obj_ergodox_ez_default/common/command.o
 .text.switch_default_layer
                0x0000000000004e84       0x2e .build/obj_ergodox_ez_default/common/command.o
 .text.command_common
                0x0000000000004eb2       0xd8 .build/obj_ergodox_ez_default/common/command.o
 .text.command_extra
                0x0000000000004f8a        0x4 .build/obj_ergodox_ez_default/common/command.o
                0x0000000000004f8a                command_extra
 .text.command_console_extra
                0x0000000000004f8e        0x4 .build/obj_ergodox_ez_default/common/command.o
                0x0000000000004f8e                command_console_extra
 .text.numkey2num
                0x0000000000004f92       0x16 .build/obj_ergodox_ez_default/common/command.o
                0x0000000000004f92                numkey2num
 .text.command_proc
                0x0000000000004fa8      0x120 .build/obj_ergodox_ez_default/common/command.o
                0x0000000000004fa8                command_proc
 .text.keyboard_leds
                0x00000000000050c8        0x6 .build/obj_ergodox_ez_default/lufa.o
 .text.send_consumer
                0x00000000000050ce       0x76 .build/obj_ergodox_ez_default/lufa.o
 .text.send_system
                0x0000000000005144       0x6c .build/obj_ergodox_ez_default/lufa.o
 .text.send_mouse
                0x00000000000051b0       0x56 .build/obj_ergodox_ez_default/lufa.o
 .text.send_keyboard
                0x0000000000005206       0x8c .build/obj_ergodox_ez_default/lufa.o
 .text.EVENT_USB_Device_Connect
                0x0000000000005292       0x1c .build/obj_ergodox_ez_default/lufa.o
                0x0000000000005292                EVENT_USB_Device_Connect
 .text.EVENT_USB_Device_Disconnect
                0x00000000000052ae        0x6 .build/obj_ergodox_ez_default/lufa.o
                0x00000000000052ae                EVENT_USB_Device_Disconnect
 .text.EVENT_USB_Device_Reset
                0x00000000000052b4        0x2 .build/obj_ergodox_ez_default/lufa.o
                0x00000000000052b4                EVENT_USB_Device_Reset
 .text.EVENT_USB_Device_Suspend
                0x00000000000052b6        0x2 .build/obj_ergodox_ez_default/lufa.o
                0x00000000000052b6                EVENT_USB_Device_Suspend
 .text.EVENT_USB_Device_WakeUp
                0x00000000000052b8        0x4 .build/obj_ergodox_ez_default/lufa.o
                0x00000000000052b8                EVENT_USB_Device_WakeUp
 .text.EVENT_USB_Device_ConfigurationChanged
                0x00000000000052bc       0x14 .build/obj_ergodox_ez_default/lufa.o
                0x00000000000052bc                EVENT_USB_Device_ConfigurationChanged
 .text.EVENT_USB_Device_ControlRequest
                0x00000000000052d0      0x16e .build/obj_ergodox_ez_default/lufa.o
                0x00000000000052d0                EVENT_USB_Device_ControlRequest
 .text.startup.main
                0x000000000000543e       0x7a .build/obj_ergodox_ez_default/lufa.o
                0x000000000000543e                main
 .text.CALLBACK_USB_GetDescriptor
                0x00000000000054b8        0x4 .build/obj_ergodox_ez_default/lufa.o
                0x00000000000054b8                CALLBACK_USB_GetDescriptor
 .text.get_usb_descriptor
                0x00000000000054bc       0xbc .build/obj_ergodox_ez_default/usb_descriptor.o
                0x00000000000054bc                get_usb_descriptor
 .text.set_output_user
                0x0000000000005578        0x2 .build/obj_ergodox_ez_default/outputselect.o
                0x0000000000005578                set_output_user
 .text.set_output
                0x000000000000557a       0x10 .build/obj_ergodox_ez_default/outputselect.o
                0x000000000000557a                set_output
 .text.auto_detect_output
                0x000000000000558a       0x10 .build/obj_ergodox_ez_default/outputselect.o
                0x000000000000558a                auto_detect_output
 .text.where_to_send
                0x000000000000559a        0xe .build/obj_ergodox_ez_default/outputselect.o
                0x000000000000559a                where_to_send
 .text.USB_Device_SendRemoteWakeup
                0x00000000000055a8       0x2c .build/obj_ergodox_ez_default/lib/lufa/LUFA/Drivers/USB/Core/AVR8/Device_AVR8.o
                0x00000000000055a8                USB_Device_SendRemoteWakeup
 .text.Endpoint_Write_Stream_LE
                0x00000000000055d4       0x9e .build/obj_ergodox_ez_default/lib/lufa/LUFA/Drivers/USB/Core/AVR8/EndpointStream_AVR8.o
                0x00000000000055d4                Endpoint_Write_Stream_LE
 .text.Endpoint_Write_Control_Stream_LE
                0x0000000000005672       0xbc .build/obj_ergodox_ez_default/lib/lufa/LUFA/Drivers/USB/Core/AVR8/EndpointStream_AVR8.o
                0x0000000000005672                Endpoint_Write_Control_Stream_LE
 .text.Endpoint_Write_Control_PStream_LE
                0x000000000000572e       0xbe .build/obj_ergodox_ez_default/lib/lufa/LUFA/Drivers/USB/Core/AVR8/EndpointStream_AVR8.o
                0x000000000000572e                Endpoint_Write_Control_PStream_LE
 .text.Endpoint_ConfigureEndpoint_Prv
                0x00000000000057ec       0x68 .build/obj_ergodox_ez_default/lib/lufa/LUFA/Drivers/USB/Core/AVR8/Endpoint_AVR8.o
                0x00000000000057ec                Endpoint_ConfigureEndpoint_Prv
 .text.Endpoint_ClearStatusStage
                0x0000000000005854       0x3e .build/obj_ergodox_ez_default/lib/lufa/LUFA/Drivers/USB/Core/AVR8/Endpoint_AVR8.o
                0x0000000000005854                Endpoint_ClearStatusStage
 .text.Endpoint_WaitUntilReady
                0x0000000000005892       0x62 .build/obj_ergodox_ez_default/lib/lufa/LUFA/Drivers/USB/Core/AVR8/Endpoint_AVR8.o
                0x0000000000005892                Endpoint_WaitUntilReady
 .text.USB_Disable
                0x00000000000058f4       0x34 .build/obj_ergodox_ez_default/lib/lufa/LUFA/Drivers/USB/Core/AVR8/USBController_AVR8.o
                0x00000000000058f4                USB_Disable
 .text.USB_ResetInterface
                0x0000000000005928       0x86 .build/obj_ergodox_ez_default/lib/lufa/LUFA/Drivers/USB/Core/AVR8/USBController_AVR8.o
                0x0000000000005928                USB_ResetInterface
 .text.USB_Init
                0x00000000000059ae       0x22 .build/obj_ergodox_ez_default/lib/lufa/LUFA/Drivers/USB/Core/AVR8/USBController_AVR8.o
                0x00000000000059ae                USB_Init
 .text.USB_INT_DisableAllInterrupts
                0x00000000000059d0       0x10 .build/obj_ergodox_ez_default/lib/lufa/LUFA/Drivers/USB/Core/AVR8/USBInterrupt_AVR8.o
                0x00000000000059d0                USB_INT_DisableAllInterrupts
 .text.USB_INT_ClearAllInterrupts
                0x00000000000059e0        0xa .build/obj_ergodox_ez_default/lib/lufa/LUFA/Drivers/USB/Core/AVR8/USBInterrupt_AVR8.o
                0x00000000000059e0                USB_INT_ClearAllInterrupts
 .text.__vector_10
                0x00000000000059ea      0x1a8 .build/obj_ergodox_ez_default/lib/lufa/LUFA/Drivers/USB/Core/AVR8/USBInterrupt_AVR8.o
                0x00000000000059ea                __vector_10
 .text.__vector_11
                0x0000000000005b92       0x88 .build/obj_ergodox_ez_default/lib/lufa/LUFA/Drivers/USB/Core/AVR8/USBInterrupt_AVR8.o
                0x0000000000005b92                __vector_11
 .text.USB_Device_ProcessControlRequest
                0x0000000000005c1a      0x2a4 .build/obj_ergodox_ez_default/lib/lufa/LUFA/Drivers/USB/Core/DeviceStandardReq.o
                0x0000000000005c1a                USB_Device_ProcessControlRequest
 .text.USB_Event_Stub
                0x0000000000005ebe        0x2 .build/obj_ergodox_ez_default/lib/lufa/LUFA/Drivers/USB/Core/Events.o
                0x0000000000005ebe                USB_Event_Stub
                0x0000000000005ebe                EVENT_USB_Device_StartOfFrame
 .text.USB_USBTask
                0x0000000000005ec0       0x36 .build/obj_ergodox_ez_default/lib/lufa/LUFA/Drivers/USB/Core/USBTask.o
                0x0000000000005ec0                USB_USBTask
 .text.libgcc.div
                0x0000000000005ef6       0x28 /usr/local/Cellar/avr-gcc/8.3.0/lib/avr-gcc/8/gcc/avr/8.3.0/avr5/libgcc.a(_udivmodhi4.o)
                0x0000000000005ef6                __udivmodhi4
 .text.libgcc.div
                0x0000000000005f1e       0x28 /usr/local/Cellar/avr-gcc/8.3.0/lib/avr-gcc/8/gcc/avr/8.3.0/avr5/libgcc.a(_divmodhi4.o)
                0x0000000000005f1e                __divmodhi4
                0x0000000000005f1e                _div
 .text.libgcc   0x0000000000005f46        0xc /usr/local/Cellar/avr-gcc/8.3.0/lib/avr-gcc/8/gcc/avr/8.3.0/avr5/libgcc.a(_tablejump2.o)
                0x0000000000005f46                __tablejump2__
 .text.avr-libc
                0x0000000000005f52      0x256 /usr/local/Cellar/avr-gcc/8.3.0/lib/avr-gcc/8/gcc/avr/8.3.0/../../../../../../avr/lib/avr5/libc.a(malloc.o)
                0x0000000000005f52                malloc
                0x0000000000006086                free
 .text.avr-libc
                0x00000000000061a8       0x1a /usr/local/Cellar/avr-gcc/8.3.0/lib/avr-gcc/8/gcc/avr/8.3.0/../../../../../../avr/lib/avr5/libc.a(memchr.o)
                0x00000000000061a8                memchr
 .text.avr-libc
                0x00000000000061c2       0x10 /usr/local/Cellar/avr-gcc/8.3.0/lib/avr-gcc/8/gcc/avr/8.3.0/../../../../../../avr/lib/avr5/libatmega32u4.a(eerd_byte.o)
                0x00000000000061c2                eeprom_read_byte
 .text.avr-libc
                0x00000000000061d2        0xc /usr/local/Cellar/avr-gcc/8.3.0/lib/avr-gcc/8/gcc/avr/8.3.0/../../../../../../avr/lib/avr5/libatmega32u4.a(eerd_dword.o)
                0x00000000000061d2                eeprom_read_dword
                0x00000000000061d2                eeprom_read_float
 .text.avr-libc
                0x00000000000061de        0xc /usr/local/Cellar/avr-gcc/8.3.0/lib/avr-gcc/8/gcc/avr/8.3.0/../../../../../../avr/lib/avr5/libatmega32u4.a(eerd_word.o)
                0x00000000000061de                eeprom_read_word
 .text.avr-libc
                0x00000000000061ea       0x24 /usr/local/Cellar/avr-gcc/8.3.0/lib/avr-gcc/8/gcc/avr/8.3.0/../../../../../../avr/lib/avr5/libatmega32u4.a(eeupd_byte.o)
                0x00000000000061ea                eeprom_update_byte
                0x00000000000061ec                eeprom_update_r18
 .text.avr-libc
                0x000000000000620e       0x18 /usr/local/Cellar/avr-gcc/8.3.0/lib/avr-gcc/8/gcc/avr/8.3.0/../../../../../../avr/lib/avr5/libatmega32u4.a(eeupd_dword.o)
                0x000000000000620e                eeprom_update_dword
                0x000000000000620e                eeprom_update_float
 .text.avr-libc
                0x0000000000006226        0xc /usr/local/Cellar/avr-gcc/8.3.0/lib/avr-gcc/8/gcc/avr/8.3.0/../../../../../../avr/lib/avr5/libatmega32u4.a(eeupd_word.o)
                0x0000000000006226                eeprom_update_word
 .text.avr-libc
                0x0000000000006232       0x20 /usr/local/Cellar/avr-gcc/8.3.0/lib/avr-gcc/8/gcc/avr/8.3.0/../../../../../../avr/lib/avr5/libatmega32u4.a(eerd_block.o)
                0x0000000000006232                eeprom_read_block
                0x0000000000006236                eeprom_read_blraw
                0x0000000000006252                . = ALIGN (0x2)
 *(.fini9)
 .fini9         0x0000000000006252        0x0 /usr/local/Cellar/avr-gcc/8.3.0/lib/avr-gcc/8/gcc/avr/8.3.0/avr5/libgcc.a(_exit.o)
                0x0000000000006252                exit
                0x0000000000006252                _exit
 *(.fini9)
 *(.fini8)
 *(.fini8)
 *(.fini7)
 *(.fini7)
 *(.fini6)
 *(.fini6)
 *(.fini5)
 *(.fini5)
 *(.fini4)
 *(.fini4)
 *(.fini3)
 *(.fini3)
 *(.fini2)
 *(.fini2)
 *(.fini1)
 *(.fini1)
 *(.fini0)
 .fini0         0x0000000000006252        0x4 /usr/local/Cellar/avr-gcc/8.3.0/lib/avr-gcc/8/gcc/avr/8.3.0/avr5/libgcc.a(_exit.o)
 *(.fini0)
 *(.hightext)
 *(.hightext*)
 *(.progmemx.*)
                0x0000000000006256                . = ALIGN (0x2)
 *(.jumptables)
 *(.jumptables*)
 .jumptables.gcc.layer_state_set_user
                0x0000000000006256       0x10 .build/obj_ergodox_ez_default/keyboards/ergodox_ez/keymaps/default/keymap.o
 .jumptables.gcc.process_record_quantum
                0x0000000000006266       0x24 .build/obj_ergodox_ez_default/quantum/quantum.o
 .jumptables.gcc.process_action
                0x000000000000628a       0x4a .build/obj_ergodox_ez_default/common/action.o
 .jumptables.gcc.is_tap_action
                0x00000000000062d4       0x1c .build/obj_ergodox_ez_default/common/action.o
 .jumptables.gcc.command_common
                0x00000000000062f0       0x7e .build/obj_ergodox_ez_default/common/command.o
 .jumptables.gcc.USB_Device_ProcessControlRequest
                0x000000000000636e       0x14 .build/obj_ergodox_ez_default/lib/lufa/LUFA/Drivers/USB/Core/DeviceStandardReq.o
                0x0000000000006382                _etext = .

.data           0x0000000000800100      0x100 load address 0x0000000000006382
                0x0000000000800100                PROVIDE (__data_start = .)
 *(.data)
 .data          0x0000000000800100        0x6 /usr/local/Cellar/avr-gcc/8.3.0/lib/avr-gcc/8/gcc/avr/8.3.0/../../../../../../avr/lib/avr5/libc.a(malloc.o)
                0x0000000000800100                __malloc_heap_end
                0x0000000000800102                __malloc_heap_start
                0x0000000000800104                __malloc_margin
 *(.data*)
 .data.mcp23018_status
                0x0000000000800106        0x2 .build/obj_ergodox_ez_default/keyboards/ergodox_ez/ergodox_ez.o
                0x0000000000800106                mcp23018_status
 .data.increment.3178
                0x0000000000800108        0x1 .build/obj_ergodox_ez_default/quantum/rgblight.o
 .data.high_bound.3177
                0x0000000000800109        0x1 .build/obj_ergodox_ez_default/quantum/rgblight.o
 .data.clipping_num_leds
                0x000000000080010a        0x1 .build/obj_ergodox_ez_default/quantum/rgblight.o
 .data.static_effect_table
                0x000000000080010b        0xb .build/obj_ergodox_ez_default/quantum/rgblight.o
 .data.keyboard_report
                0x0000000000800116        0x2 .build/obj_ergodox_ez_default/common/action_util.o
                0x0000000000800116                keyboard_report
 .data.mk_wheel_time_to_max
                0x0000000000800118        0x1 .build/obj_ergodox_ez_default/common/mousekey.o
                0x0000000000800118                mk_wheel_time_to_max
 .data.mk_wheel_max_speed
                0x0000000000800119        0x1 .build/obj_ergodox_ez_default/common/mousekey.o
                0x0000000000800119                mk_wheel_max_speed
 .data.mk_time_to_max
                0x000000000080011a        0x1 .build/obj_ergodox_ez_default/common/mousekey.o
                0x000000000080011a                mk_time_to_max
 .data.mk_max_speed
                0x000000000080011b        0x1 .build/obj_ergodox_ez_default/common/mousekey.o
                0x000000000080011b                mk_max_speed
 .data.mk_interval
                0x000000000080011c        0x1 .build/obj_ergodox_ez_default/common/mousekey.o
                0x000000000080011c                mk_interval
 .data.lufa_driver
                0x000000000080011d        0xa .build/obj_ergodox_ez_default/lufa.o
                0x000000000080011d                lufa_driver
 .data.keyboard_protocol
                0x0000000000800127        0x1 .build/obj_ergodox_ez_default/lufa.o
                0x0000000000800127                keyboard_protocol
 *(.gnu.linkonce.d*)
 *(.rodata)
 *(.rodata*)
 .rodata.hand_swap_config
                0x0000000000800128       0xa8 .build/obj_ergodox_ez_default/keyboards/ergodox_ez/ergodox_ez.o
                0x0000000000800128                hand_swap_config
 .rodata.mode_base_table
                0x00000000008001d0       0x25 .build/obj_ergodox_ez_default/quantum/rgblight.o
 .rodata.CSWTCH.34
                0x00000000008001f5        0xa .build/obj_ergodox_ez_default/common/command.o
 *(.gnu.linkonce.r*)
                0x0000000000800200                . = ALIGN (0x2)
 *fill*         0x00000000008001ff        0x1 
                0x0000000000800200                _edata = .
                0x0000000000800200                PROVIDE (__data_end = .)

.bss            0x0000000000800200      0x185
                0x0000000000800200                PROVIDE (__bss_start = .)
 *(.bss)
 *(.bss*)
 .bss.mcp23018_reset_loop
                0x0000000000800200        0x1 .build/obj_ergodox_ez_default/matrix.o
 .bss.matrix    0x0000000000800201        0xe .build/obj_ergodox_ez_default/matrix.o
 .bss.raw_matrix
                0x000000000080020f        0xe .build/obj_ergodox_ez_default/matrix.o
 .bss.i2c_initialized
                0x000000000080021d        0x1 .build/obj_ergodox_ez_default/keyboards/ergodox_ez/ergodox_ez.o
                0x000000000080021d                i2c_initialized
 .bss.grave_esc_was_shifted
                0x000000000080021e        0x1 .build/obj_ergodox_ez_default/quantum/quantum.o
 .bss.counters_need_update
                0x000000000080021f        0x1 .build/obj_ergodox_ez_default/quantum/debounce/eager_pr.o
 .bss.debounce_counters
                0x0000000000800220        0x2 .build/obj_ergodox_ez_default/quantum/debounce/eager_pr.o
 .bss.maxval.3199
                0x0000000000800222        0x1 .build/obj_ergodox_ez_default/quantum/rgblight.o
 .bss.low_bound.3176
                0x0000000000800223        0x1 .build/obj_ergodox_ez_default/quantum/rgblight.o
 .bss.pos.3161  0x0000000000800224        0x1 .build/obj_ergodox_ez_default/quantum/rgblight.o
 .bss.clipping_start_pos
                0x0000000000800225        0x1 .build/obj_ergodox_ez_default/quantum/rgblight.o
 .bss.animation_status
                0x0000000000800226        0x6 .build/obj_ergodox_ez_default/quantum/rgblight.o
                0x0000000000800226                animation_status
 .bss.is_rgblight_initialized
                0x000000000080022c        0x1 .build/obj_ergodox_ez_default/quantum/rgblight.o
                0x000000000080022c                is_rgblight_initialized
 .bss.rgblight_status
                0x000000000080022d        0x2 .build/obj_ergodox_ez_default/quantum/rgblight.o
                0x000000000080022d                rgblight_status
 .bss.sc_timer  0x000000000080022f        0x2 .build/obj_ergodox_ez_default/quantum/process_keycode/process_space_cadet.o
 .bss.sc_last   0x0000000000800231        0x1 .build/obj_ergodox_ez_default/quantum/process_keycode/process_space_cadet.o
 .bss.last_consumer_report
                0x0000000000800232        0x2 .build/obj_ergodox_ez_default/common/host.o
 .bss.last_system_report
                0x0000000000800234        0x2 .build/obj_ergodox_ez_default/common/host.o
 .bss.driver    0x0000000000800236        0x2 .build/obj_ergodox_ez_default/common/host.o
 .bss.led_status.5638
                0x0000000000800238        0x1 .build/obj_ergodox_ez_default/common/keyboard.o
 .bss.matrix_prev.5637
                0x0000000000800239        0xe .build/obj_ergodox_ez_default/common/keyboard.o
 .bss.swap_state.4990
                0x0000000000800247        0xe .build/obj_ergodox_ez_default/common/action.o
 .bss.disable_action_cache
                0x0000000000800255        0x1 .build/obj_ergodox_ez_default/common/action.o
                0x0000000000800255                disable_action_cache
 .bss.swap_held
                0x0000000000800256        0x1 .build/obj_ergodox_ez_default/common/action.o
                0x0000000000800256                swap_held
 .bss.swap_hands
                0x0000000000800257        0x1 .build/obj_ergodox_ez_default/common/action.o
                0x0000000000800257                swap_hands
 .bss.waiting_buffer_tail
                0x0000000000800258        0x1 .build/obj_ergodox_ez_default/common/action_tapping.o
 .bss.waiting_buffer_head
                0x0000000000800259        0x1 .build/obj_ergodox_ez_default/common/action_tapping.o
 .bss.waiting_buffer
                0x000000000080025a       0x30 .build/obj_ergodox_ez_default/common/action_tapping.o
 .bss.tapping_key
                0x000000000080028a        0x6 .build/obj_ergodox_ez_default/common/action_tapping.o
 .bss.source_layers_cache
                0x0000000000800290       0x37 .build/obj_ergodox_ez_default/common/action_layer.o
                0x0000000000800290                source_layers_cache
 .bss.layer_state
                0x00000000008002c7        0x4 .build/obj_ergodox_ez_default/common/action_layer.o
                0x00000000008002c7                layer_state
 .bss.default_layer_state
                0x00000000008002cb        0x4 .build/obj_ergodox_ez_default/common/action_layer.o
                0x00000000008002cb                default_layer_state
 .bss.oneshot_layer_data
                0x00000000008002cf        0x1 .build/obj_ergodox_ez_default/common/action_util.o
 .bss.oneshot_mods
                0x00000000008002d0        0x1 .build/obj_ergodox_ez_default/common/action_util.o
 .bss.__compound_literal.0
                0x00000000008002d1       0x20 .build/obj_ergodox_ez_default/common/action_util.o
 .bss.macro_mods
                0x00000000008002f1        0x1 .build/obj_ergodox_ez_default/common/action_util.o
 .bss.weak_mods
                0x00000000008002f2        0x1 .build/obj_ergodox_ez_default/common/action_util.o
 .bss.real_mods
                0x00000000008002f3        0x1 .build/obj_ergodox_ez_default/common/action_util.o
 .bss.debug_config
                0x00000000008002f4        0x1 .build/obj_ergodox_ez_default/common/debug.o
                0x00000000008002f4                debug_config
 .bss.wdt_timeout
                0x00000000008002f5        0x1 .build/obj_ergodox_ez_default/common/avr/suspend.o
 .bss.mk_delay  0x00000000008002f6        0x1 .build/obj_ergodox_ez_default/common/mousekey.o
                0x00000000008002f6                mk_delay
 .bss.last_timer
                0x00000000008002f7        0x2 .build/obj_ergodox_ez_default/common/mousekey.o
 .bss.mousekey_repeat
                0x00000000008002f9        0x1 .build/obj_ergodox_ez_default/common/mousekey.o
 .bss.mousekey_accel
                0x00000000008002fa        0x1 .build/obj_ergodox_ez_default/common/mousekey.o
 .bss.mouse_report
                0x00000000008002fb        0x6 .build/obj_ergodox_ez_default/common/mousekey.o
 .bss.mousekey_param
                0x0000000000800301        0x1 .build/obj_ergodox_ez_default/common/command.o
 .bss.command_state
                0x0000000000800302        0x1 .build/obj_ergodox_ez_default/common/command.o
                0x0000000000800302                command_state
 .bss.keyboard_report_sent
                0x0000000000800303       0x20 .build/obj_ergodox_ez_default/lufa.o
 .bss.keyboard_led_stats
                0x0000000000800323        0x1 .build/obj_ergodox_ez_default/lufa.o
 .bss.keyboard_idle
                0x0000000000800324        0x1 .build/obj_ergodox_ez_default/lufa.o
                0x0000000000800324                keyboard_idle
 .bss.desired_output
                0x0000000000800325        0x1 .build/obj_ergodox_ez_default/outputselect.o
                0x0000000000800325                desired_output
 *(COMMON)
 COMMON         0x0000000000800326        0x5 .build/obj_ergodox_ez_default/quantum/process_keycode/process_unicode_common.o
                0x0000000000800326                unicode_config
                0x000000000080032a                unicode_saved_mods
 COMMON         0x000000000080032b       0x41 .build/obj_ergodox_ez_default/quantum/rgblight.o
                0x000000000080032b                rgblight_config
                0x0000000000800330                led
 COMMON         0x000000000080036c        0x2 .build/obj_ergodox_ez_default/common/action.o
                0x000000000080036c                tp_buttons
 COMMON         0x000000000080036e        0x4 .build/obj_ergodox_ez_default/common/avr/timer.o
                0x000000000080036e                timer_count
 COMMON         0x0000000000800372        0x2 .build/obj_ergodox_ez_default/common/magic.o
                0x0000000000800372                keymap_config
 COMMON         0x0000000000800374        0x3 .build/obj_ergodox_ez_default/lib/lufa/LUFA/Drivers/USB/Core/DeviceStandardReq.o
                0x0000000000800374                USB_Device_ConfigurationNumber
                0x0000000000800375                USB_Device_CurrentlySelfPowered
                0x0000000000800376                USB_Device_RemoteWakeupEnabled
 COMMON         0x0000000000800377        0xa .build/obj_ergodox_ez_default/lib/lufa/LUFA/Drivers/USB/Core/USBTask.o
                0x0000000000800377                USB_IsInitialized
                0x0000000000800378                USB_DeviceState
                0x0000000000800379                USB_ControlRequest
 COMMON         0x0000000000800381        0x4 /usr/local/Cellar/avr-gcc/8.3.0/lib/avr-gcc/8/gcc/avr/8.3.0/../../../../../../avr/lib/avr5/libc.a(malloc.o)
                0x0000000000800381                __brkval
                0x0000000000800383                __flp
                0x0000000000800385                PROVIDE (__bss_end = .)
                0x0000000000006382                __data_load_start = LOADADDR (.data)
                0x0000000000006482                __data_load_end = (__data_load_start + SIZEOF (.data))

.noinit         0x0000000000800385        0x0
                [!provide]                        PROVIDE (__noinit_start = .)
 *(.noinit*)
                [!provide]                        PROVIDE (__noinit_end = .)
                0x0000000000800385                _end = .
                0x0000000000800385                PROVIDE (__heap_start = .)

.eeprom         0x0000000000810000        0x0
 *(.eeprom*)
                0x0000000000810000                __eeprom_end = .

.fuse
 *(.fuse)
 *(.lfuse)
 *(.hfuse)
 *(.efuse)

.lock
 *(.lock*)

.signature
 *(.signature*)

.stab
 *(.stab)

.stabstr        0x0000000000000000       0x9a
 *(.stabstr)
 .stabstr       0x0000000000000000       0x9a .build/obj_ergodox_ez_default/common/avr/xprintf.o

.stab.excl
 *(.stab.excl)

.stab.exclstr
 *(.stab.exclstr)

.stab.index
 *(.stab.index)

.stab.indexstr
 *(.stab.indexstr)

.comment        0x0000000000000000       0x11
 *(.comment)
 .comment       0x0000000000000000       0x11 .build/obj_ergodox_ez_default/matrix.o
                                         0x12 (size before relaxing)
 .comment       0x0000000000000011       0x12 .build/obj_ergodox_ez_default/i2c_master.o
 .comment       0x0000000000000011       0x12 .build/obj_ergodox_ez_default/keyboards/ergodox_ez/ergodox_ez.o
 .comment       0x0000000000000011       0x12 .build/obj_ergodox_ez_default/keyboards/ergodox_ez/keymaps/default/keymap.o
 .comment       0x0000000000000011       0x12 .build/obj_ergodox_ez_default/quantum/quantum.o
 .comment       0x0000000000000011       0x12 .build/obj_ergodox_ez_default/quantum/keymap_common.o
 .comment       0x0000000000000011       0x12 .build/obj_ergodox_ez_default/quantum/keycode_config.o
 .comment       0x0000000000000011       0x12 .build/obj_ergodox_ez_default/quantum/debounce/eager_pr.o
 .comment       0x0000000000000011       0x12 .build/obj_ergodox_ez_default/quantum/process_keycode/process_unicode.o
 .comment       0x0000000000000011       0x12 .build/obj_ergodox_ez_default/quantum/process_keycode/process_unicode_common.o
 .comment       0x0000000000000011       0x12 .build/obj_ergodox_ez_default/quantum/color.o
 .comment       0x0000000000000011       0x12 .build/obj_ergodox_ez_default/quantum/rgblight.o
 .comment       0x0000000000000011       0x12 .build/obj_ergodox_ez_default/ws2812.o
 .comment       0x0000000000000011       0x12 .build/obj_ergodox_ez_default/quantum/led_tables.o
 .comment       0x0000000000000011       0x12 .build/obj_ergodox_ez_default/quantum/process_keycode/process_space_cadet.o
 .comment       0x0000000000000011       0x12 .build/obj_ergodox_ez_default/common/host.o
 .comment       0x0000000000000011       0x12 .build/obj_ergodox_ez_default/common/keyboard.o
 .comment       0x0000000000000011       0x12 .build/obj_ergodox_ez_default/common/action.o
 .comment       0x0000000000000011       0x12 .build/obj_ergodox_ez_default/common/action_tapping.o
 .comment       0x0000000000000011       0x12 .build/obj_ergodox_ez_default/common/action_macro.o
 .comment       0x0000000000000011       0x12 .build/obj_ergodox_ez_default/common/action_layer.o
 .comment       0x0000000000000011       0x12 .build/obj_ergodox_ez_default/common/action_util.o
 .comment       0x0000000000000011       0x12 .build/obj_ergodox_ez_default/common/debug.o
 .comment       0x0000000000000011       0x12 .build/obj_ergodox_ez_default/common/util.o
 .comment       0x0000000000000011       0x12 .build/obj_ergodox_ez_default/common/eeconfig.o
 .comment       0x0000000000000011       0x12 .build/obj_ergodox_ez_default/common/report.o
 .comment       0x0000000000000011       0x12 .build/obj_ergodox_ez_default/common/avr/suspend.o
 .comment       0x0000000000000011       0x12 .build/obj_ergodox_ez_default/common/avr/timer.o
 .comment       0x0000000000000011       0x12 .build/obj_ergodox_ez_default/common/avr/bootloader.o
 .comment       0x0000000000000011       0x12 .build/obj_ergodox_ez_default/common/magic.o
 .comment       0x0000000000000011       0x12 .build/obj_ergodox_ez_default/common/mousekey.o
 .comment       0x0000000000000011       0x12 .build/obj_ergodox_ez_default/common/command.o
 .comment       0x0000000000000011       0x12 .build/obj_ergodox_ez_default/lufa.o
 .comment       0x0000000000000011       0x12 .build/obj_ergodox_ez_default/usb_descriptor.o
 .comment       0x0000000000000011       0x12 .build/obj_ergodox_ez_default/outputselect.o
 .comment       0x0000000000000011       0x12 .build/obj_ergodox_ez_default/lib/lufa/LUFA/Drivers/USB/Core/AVR8/Device_AVR8.o
 .comment       0x0000000000000011       0x12 .build/obj_ergodox_ez_default/lib/lufa/LUFA/Drivers/USB/Core/AVR8/EndpointStream_AVR8.o
 .comment       0x0000000000000011       0x12 .build/obj_ergodox_ez_default/lib/lufa/LUFA/Drivers/USB/Core/AVR8/Endpoint_AVR8.o
 .comment       0x0000000000000011       0x12 .build/obj_ergodox_ez_default/lib/lufa/LUFA/Drivers/USB/Core/AVR8/USBController_AVR8.o
 .comment       0x0000000000000011       0x12 .build/obj_ergodox_ez_default/lib/lufa/LUFA/Drivers/USB/Core/AVR8/USBInterrupt_AVR8.o
 .comment       0x0000000000000011       0x12 .build/obj_ergodox_ez_default/lib/lufa/LUFA/Drivers/USB/Core/DeviceStandardReq.o
 .comment       0x0000000000000011       0x12 .build/obj_ergodox_ez_default/lib/lufa/LUFA/Drivers/USB/Core/Events.o
 .comment       0x0000000000000011       0x12 .build/obj_ergodox_ez_default/lib/lufa/LUFA/Drivers/USB/Core/USBTask.o
 .comment       0x0000000000000011       0x12 /usr/local/Cellar/avr-gcc/8.3.0/lib/avr-gcc/8/gcc/avr/8.3.0/../../../../../../avr/lib/avr5/libc.a(malloc.o)

.note.gnu.avr.deviceinfo
                0x0000000000000000       0x40
 .note.gnu.avr.deviceinfo
                0x0000000000000000       0x40 /usr/local/Cellar/avr-gcc/8.3.0/lib/avr-gcc/8/gcc/avr/8.3.0/../../../../../../avr/lib/avr5/crtatmega32u4.o

.note.gnu.build-id
 *(.note.gnu.build-id)

.debug
 *(.debug)

.line
 *(.line)

.debug_srcinfo
 *(.debug_srcinfo)

.debug_sfnames
 *(.debug_sfnames)

.debug_aranges  0x0000000000000000     0x12a0
 *(.debug_aranges)
 .debug_aranges
                0x0000000000000000       0xa0 .build/obj_ergodox_ez_default/matrix.o
 .debug_aranges
                0x00000000000000a0       0x68 .build/obj_ergodox_ez_default/i2c_master.o
 .debug_aranges
                0x0000000000000108       0xb8 .build/obj_ergodox_ez_default/keyboards/ergodox_ez/ergodox_ez.o
 .debug_aranges
                0x00000000000001c0       0x30 .build/obj_ergodox_ez_default/keyboards/ergodox_ez/keymaps/default/keymap.o
 .debug_aranges
                0x00000000000001f0      0x130 .build/obj_ergodox_ez_default/quantum/quantum.o
 .debug_aranges
                0x0000000000000320       0x40 .build/obj_ergodox_ez_default/quantum/keymap_common.o
 .debug_aranges
                0x0000000000000360       0x28 .build/obj_ergodox_ez_default/quantum/keycode_config.o
 .debug_aranges
                0x0000000000000388       0x40 .build/obj_ergodox_ez_default/quantum/debounce/eager_pr.o
 .debug_aranges
                0x00000000000003c8       0x20 .build/obj_ergodox_ez_default/quantum/process_keycode/process_unicode.o
 .debug_aranges
                0x00000000000003e8       0x78 .build/obj_ergodox_ez_default/quantum/process_keycode/process_unicode_common.o
 .debug_aranges
                0x0000000000000460       0x20 .build/obj_ergodox_ez_default/quantum/color.o
 .debug_aranges
                0x0000000000000480      0x298 .build/obj_ergodox_ez_default/quantum/rgblight.o
 .debug_aranges
                0x0000000000000718       0x68 .build/obj_ergodox_ez_default/ws2812.o
 .debug_aranges
                0x0000000000000780       0x18 .build/obj_ergodox_ez_default/quantum/led_tables.o
 .debug_aranges
                0x0000000000000798       0x28 .build/obj_ergodox_ez_default/quantum/process_keycode/process_space_cadet.o
 .debug_aranges
                0x00000000000007c0       0x60 .build/obj_ergodox_ez_default/common/host.o
 .debug_aranges
                0x0000000000000820       0x60 .build/obj_ergodox_ez_default/common/keyboard.o
 .debug_aranges
                0x0000000000000880       0xb8 .build/obj_ergodox_ez_default/common/action.o
 .debug_aranges
                0x0000000000000938       0x48 .build/obj_ergodox_ez_default/common/action_tapping.o
 .debug_aranges
                0x0000000000000980       0x20 .build/obj_ergodox_ez_default/common/action_macro.o
 .debug_aranges
                0x00000000000009a0       0xe0 .build/obj_ergodox_ez_default/common/action_layer.o
 .debug_aranges
                0x0000000000000a80      0x140 .build/obj_ergodox_ez_default/common/action_util.o
 .debug_aranges
                0x0000000000000bc0       0x18 .build/obj_ergodox_ez_default/common/debug.o
 .debug_aranges
                0x0000000000000bd8       0x60 .build/obj_ergodox_ez_default/common/util.o
 .debug_aranges
                0x0000000000000c38       0xd8 .build/obj_ergodox_ez_default/common/eeconfig.o
 .debug_aranges
                0x0000000000000d10       0x60 .build/obj_ergodox_ez_default/common/report.o
 .debug_aranges
                0x0000000000000d70       0x58 .build/obj_ergodox_ez_default/common/avr/suspend.o
 .debug_aranges
                0x0000000000000dc8       0x50 .build/obj_ergodox_ez_default/common/avr/timer.o
 .debug_aranges
                0x0000000000000e18       0x28 .build/obj_ergodox_ez_default/common/avr/bootloader.o
 .debug_aranges
                0x0000000000000e40       0x20 .build/obj_ergodox_ez_default/common/magic.o
 .debug_aranges
                0x0000000000000e60       0x50 .build/obj_ergodox_ez_default/common/mousekey.o
 .debug_aranges
                0x0000000000000eb0       0x50 .build/obj_ergodox_ez_default/common/command.o
 .debug_aranges
                0x0000000000000f00       0x88 .build/obj_ergodox_ez_default/lufa.o
 .debug_aranges
                0x0000000000000f88       0x20 .build/obj_ergodox_ez_default/usb_descriptor.o
 .debug_aranges
                0x0000000000000fa8       0x38 .build/obj_ergodox_ez_default/outputselect.o
 .debug_aranges
                0x0000000000000fe0       0x20 .build/obj_ergodox_ez_default/lib/lufa/LUFA/Drivers/USB/Core/AVR8/Device_AVR8.o
 .debug_aranges
                0x0000000000001000       0xc8 .build/obj_ergodox_ez_default/lib/lufa/LUFA/Drivers/USB/Core/AVR8/EndpointStream_AVR8.o
 .debug_aranges
                0x00000000000010c8       0x40 .build/obj_ergodox_ez_default/lib/lufa/LUFA/Drivers/USB/Core/AVR8/Endpoint_AVR8.o
 .debug_aranges
                0x0000000000001108       0x30 .build/obj_ergodox_ez_default/lib/lufa/LUFA/Drivers/USB/Core/AVR8/USBController_AVR8.o
 .debug_aranges
                0x0000000000001138       0x38 .build/obj_ergodox_ez_default/lib/lufa/LUFA/Drivers/USB/Core/AVR8/USBInterrupt_AVR8.o
 .debug_aranges
                0x0000000000001170       0x20 .build/obj_ergodox_ez_default/lib/lufa/LUFA/Drivers/USB/Core/DeviceStandardReq.o
 .debug_aranges
                0x0000000000001190       0x30 .build/obj_ergodox_ez_default/lib/lufa/LUFA/Drivers/USB/Core/Events.o
 .debug_aranges
                0x00000000000011c0       0x20 .build/obj_ergodox_ez_default/lib/lufa/LUFA/Drivers/USB/Core/USBTask.o
 .debug_aranges
                0x00000000000011e0       0x20 /usr/local/Cellar/avr-gcc/8.3.0/lib/avr-gcc/8/gcc/avr/8.3.0/avr5/libgcc.a(_udivmodhi4.o)
 .debug_aranges
                0x0000000000001200       0x20 /usr/local/Cellar/avr-gcc/8.3.0/lib/avr-gcc/8/gcc/avr/8.3.0/avr5/libgcc.a(_divmodhi4.o)
 .debug_aranges
                0x0000000000001220       0x20 /usr/local/Cellar/avr-gcc/8.3.0/lib/avr-gcc/8/gcc/avr/8.3.0/avr5/libgcc.a(_exit.o)
 .debug_aranges
                0x0000000000001240       0x20 /usr/local/Cellar/avr-gcc/8.3.0/lib/avr-gcc/8/gcc/avr/8.3.0/avr5/libgcc.a(_tablejump2.o)
 .debug_aranges
                0x0000000000001260       0x20 /usr/local/Cellar/avr-gcc/8.3.0/lib/avr-gcc/8/gcc/avr/8.3.0/avr5/libgcc.a(_copy_data.o)
 .debug_aranges
                0x0000000000001280       0x20 /usr/local/Cellar/avr-gcc/8.3.0/lib/avr-gcc/8/gcc/avr/8.3.0/avr5/libgcc.a(_clear_bss.o)

.debug_pubnames
 *(.debug_pubnames)

.debug_info     0x0000000000000000    0x24339
 *(.debug_info .gnu.linkonce.wi.*)
 .debug_info    0x0000000000000000      0x9f4 /usr/local/Cellar/avr-gcc/8.3.0/lib/avr-gcc/8/gcc/avr/8.3.0/../../../../../../avr/lib/avr5/crtatmega32u4.o
 .debug_info    0x00000000000009f4      0xf3e .build/obj_ergodox_ez_default/matrix.o
 .debug_info    0x0000000000001932      0x718 .build/obj_ergodox_ez_default/i2c_master.o
 .debug_info    0x000000000000204a      0xfec .build/obj_ergodox_ez_default/keyboards/ergodox_ez/ergodox_ez.o
 .debug_info    0x0000000000003036     0x1b01 .build/obj_ergodox_ez_default/keyboards/ergodox_ez/keymaps/default/keymap.o
 .debug_info    0x0000000000004b37     0x2ec9 .build/obj_ergodox_ez_default/quantum/quantum.o
 .debug_info    0x0000000000007a00     0x1f7a .build/obj_ergodox_ez_default/quantum/keymap_common.o
 .debug_info    0x000000000000997a      0x618 .build/obj_ergodox_ez_default/quantum/keycode_config.o
 .debug_info    0x0000000000009f92      0xb20 .build/obj_ergodox_ez_default/quantum/debounce/eager_pr.o
 .debug_info    0x000000000000aab2     0x12e8 .build/obj_ergodox_ez_default/quantum/process_keycode/process_unicode.o
 .debug_info    0x000000000000bd9a     0x1d10 .build/obj_ergodox_ez_default/quantum/process_keycode/process_unicode_common.o
 .debug_info    0x000000000000daaa      0x282 .build/obj_ergodox_ez_default/quantum/color.o
 .debug_info    0x000000000000dd2c     0x2890 .build/obj_ergodox_ez_default/quantum/rgblight.o
 .debug_info    0x00000000000105bc      0x947 .build/obj_ergodox_ez_default/ws2812.o
 .debug_info    0x0000000000010f03       0xaf .build/obj_ergodox_ez_default/quantum/led_tables.o
 .debug_info    0x0000000000010fb2     0x1807 .build/obj_ergodox_ez_default/quantum/process_keycode/process_space_cadet.o
 .debug_info    0x00000000000127b9      0x789 .build/obj_ergodox_ez_default/common/host.o
 .debug_info    0x0000000000012f42      0xadc .build/obj_ergodox_ez_default/common/keyboard.o
 .debug_info    0x0000000000013a1e     0x20f6 .build/obj_ergodox_ez_default/common/action.o
 .debug_info    0x0000000000015b14     0x100b .build/obj_ergodox_ez_default/common/action_tapping.o
 .debug_info    0x0000000000016b1f      0xbb0 .build/obj_ergodox_ez_default/common/action_macro.o
 .debug_info    0x00000000000176cf      0xd20 .build/obj_ergodox_ez_default/common/action_layer.o
 .debug_info    0x00000000000183ef      0xdc8 .build/obj_ergodox_ez_default/common/action_util.o
 .debug_info    0x00000000000191b7      0x110 .build/obj_ergodox_ez_default/common/debug.o
 .debug_info    0x00000000000192c7      0x2f9 .build/obj_ergodox_ez_default/common/util.o
 .debug_info    0x00000000000195c0      0x7b3 .build/obj_ergodox_ez_default/common/eeconfig.o
 .debug_info    0x0000000000019d73      0x7d4 .build/obj_ergodox_ez_default/common/report.o
 .debug_info    0x000000000001a547      0x7f0 .build/obj_ergodox_ez_default/common/avr/suspend.o
 .debug_info    0x000000000001ad37      0x43e .build/obj_ergodox_ez_default/common/avr/timer.o
 .debug_info    0x000000000001b175      0x31d .build/obj_ergodox_ez_default/common/avr/bootloader.o
 .debug_info    0x000000000001b492      0x579 .build/obj_ergodox_ez_default/common/magic.o
 .debug_info    0x000000000001ba0b      0x764 .build/obj_ergodox_ez_default/common/mousekey.o
 .debug_info    0x000000000001c16f     0x1135 .build/obj_ergodox_ez_default/common/command.o
 .debug_info    0x000000000001d2a4     0x191b .build/obj_ergodox_ez_default/lufa.o
 .debug_info    0x000000000001ebbf      0x9c3 .build/obj_ergodox_ez_default/usb_descriptor.o
 .debug_info    0x000000000001f582      0x581 .build/obj_ergodox_ez_default/outputselect.o
 .debug_info    0x000000000001fb03      0x1c0 .build/obj_ergodox_ez_default/lib/lufa/LUFA/Drivers/USB/Core/AVR8/Device_AVR8.o
 .debug_info    0x000000000001fcc3     0x1da4 .build/obj_ergodox_ez_default/lib/lufa/LUFA/Drivers/USB/Core/AVR8/EndpointStream_AVR8.o
 .debug_info    0x0000000000021a67      0x75d .build/obj_ergodox_ez_default/lib/lufa/LUFA/Drivers/USB/Core/AVR8/Endpoint_AVR8.o
 .debug_info    0x00000000000221c4      0x606 .build/obj_ergodox_ez_default/lib/lufa/LUFA/Drivers/USB/Core/AVR8/USBController_AVR8.o
 .debug_info    0x00000000000227ca      0xa43 .build/obj_ergodox_ez_default/lib/lufa/LUFA/Drivers/USB/Core/AVR8/USBInterrupt_AVR8.o
 .debug_info    0x000000000002320d      0xc64 .build/obj_ergodox_ez_default/lib/lufa/LUFA/Drivers/USB/Core/DeviceStandardReq.o
 .debug_info    0x0000000000023e71       0xe9 .build/obj_ergodox_ez_default/lib/lufa/LUFA/Drivers/USB/Core/Events.o
 .debug_info    0x0000000000023f5a      0x2fb .build/obj_ergodox_ez_default/lib/lufa/LUFA/Drivers/USB/Core/USBTask.o
 .debug_info    0x0000000000024255       0x26 /usr/local/Cellar/avr-gcc/8.3.0/lib/avr-gcc/8/gcc/avr/8.3.0/avr5/libgcc.a(_udivmodhi4.o)
 .debug_info    0x000000000002427b       0x26 /usr/local/Cellar/avr-gcc/8.3.0/lib/avr-gcc/8/gcc/avr/8.3.0/avr5/libgcc.a(_divmodhi4.o)
 .debug_info    0x00000000000242a1       0x26 /usr/local/Cellar/avr-gcc/8.3.0/lib/avr-gcc/8/gcc/avr/8.3.0/avr5/libgcc.a(_exit.o)
 .debug_info    0x00000000000242c7       0x26 /usr/local/Cellar/avr-gcc/8.3.0/lib/avr-gcc/8/gcc/avr/8.3.0/avr5/libgcc.a(_tablejump2.o)
 .debug_info    0x00000000000242ed       0x26 /usr/local/Cellar/avr-gcc/8.3.0/lib/avr-gcc/8/gcc/avr/8.3.0/avr5/libgcc.a(_copy_data.o)
 .debug_info    0x0000000000024313       0x26 /usr/local/Cellar/avr-gcc/8.3.0/lib/avr-gcc/8/gcc/avr/8.3.0/avr5/libgcc.a(_clear_bss.o)

.debug_abbrev   0x0000000000000000     0x7aeb
 *(.debug_abbrev)
 .debug_abbrev  0x0000000000000000      0x96a /usr/local/Cellar/avr-gcc/8.3.0/lib/avr-gcc/8/gcc/avr/8.3.0/../../../../../../avr/lib/avr5/crtatmega32u4.o
 .debug_abbrev  0x000000000000096a      0x448 .build/obj_ergodox_ez_default/matrix.o
 .debug_abbrev  0x0000000000000db2      0x16d .build/obj_ergodox_ez_default/i2c_master.o
 .debug_abbrev  0x0000000000000f1f      0x38f .build/obj_ergodox_ez_default/keyboards/ergodox_ez/ergodox_ez.o
 .debug_abbrev  0x00000000000012ae      0x2f9 .build/obj_ergodox_ez_default/keyboards/ergodox_ez/keymaps/default/keymap.o
 .debug_abbrev  0x00000000000015a7      0x5bd .build/obj_ergodox_ez_default/quantum/quantum.o
 .debug_abbrev  0x0000000000001b64      0x338 .build/obj_ergodox_ez_default/quantum/keymap_common.o
 .debug_abbrev  0x0000000000001e9c      0x119 .build/obj_ergodox_ez_default/quantum/keycode_config.o
 .debug_abbrev  0x0000000000001fb5      0x2dd .build/obj_ergodox_ez_default/quantum/debounce/eager_pr.o
 .debug_abbrev  0x0000000000002292      0x251 .build/obj_ergodox_ez_default/quantum/process_keycode/process_unicode.o
 .debug_abbrev  0x00000000000024e3      0x459 .build/obj_ergodox_ez_default/quantum/process_keycode/process_unicode_common.o
 .debug_abbrev  0x000000000000293c      0x11e .build/obj_ergodox_ez_default/quantum/color.o
 .debug_abbrev  0x0000000000002a5a      0x661 .build/obj_ergodox_ez_default/quantum/rgblight.o
 .debug_abbrev  0x00000000000030bb      0x2ad .build/obj_ergodox_ez_default/ws2812.o
 .debug_abbrev  0x0000000000003368       0x6c .build/obj_ergodox_ez_default/quantum/led_tables.o
 .debug_abbrev  0x00000000000033d4      0x29c .build/obj_ergodox_ez_default/quantum/process_keycode/process_space_cadet.o
 .debug_abbrev  0x0000000000003670      0x248 .build/obj_ergodox_ez_default/common/host.o
 .debug_abbrev  0x00000000000038b8      0x349 .build/obj_ergodox_ez_default/common/keyboard.o
 .debug_abbrev  0x0000000000003c01      0x48a .build/obj_ergodox_ez_default/common/action.o
 .debug_abbrev  0x000000000000408b      0x366 .build/obj_ergodox_ez_default/common/action_tapping.o
 .debug_abbrev  0x00000000000043f1      0x284 .build/obj_ergodox_ez_default/common/action_macro.o
 .debug_abbrev  0x0000000000004675      0x305 .build/obj_ergodox_ez_default/common/action_layer.o
 .debug_abbrev  0x000000000000497a      0x37c .build/obj_ergodox_ez_default/common/action_util.o
 .debug_abbrev  0x0000000000004cf6       0xa2 .build/obj_ergodox_ez_default/common/debug.o
 .debug_abbrev  0x0000000000004d98       0xdd .build/obj_ergodox_ez_default/common/util.o
 .debug_abbrev  0x0000000000004e75       0xf0 .build/obj_ergodox_ez_default/common/eeconfig.o
 .debug_abbrev  0x0000000000004f65      0x25b .build/obj_ergodox_ez_default/common/report.o
 .debug_abbrev  0x00000000000051c0      0x328 .build/obj_ergodox_ez_default/common/avr/suspend.o
 .debug_abbrev  0x00000000000054e8      0x1ba .build/obj_ergodox_ez_default/common/avr/timer.o
 .debug_abbrev  0x00000000000056a2      0x1c0 .build/obj_ergodox_ez_default/common/avr/bootloader.o
 .debug_abbrev  0x0000000000005862      0x1b4 .build/obj_ergodox_ez_default/common/magic.o
 .debug_abbrev  0x0000000000005a16      0x2c7 .build/obj_ergodox_ez_default/common/mousekey.o
 .debug_abbrev  0x0000000000005cdd      0x443 .build/obj_ergodox_ez_default/common/command.o
 .debug_abbrev  0x0000000000006120      0x557 .build/obj_ergodox_ez_default/lufa.o
 .debug_abbrev  0x0000000000006677      0x207 .build/obj_ergodox_ez_default/usb_descriptor.o
 .debug_abbrev  0x000000000000687e      0x236 .build/obj_ergodox_ez_default/outputselect.o
 .debug_abbrev  0x0000000000006ab4       0xcb .build/obj_ergodox_ez_default/lib/lufa/LUFA/Drivers/USB/Core/AVR8/Device_AVR8.o
 .debug_abbrev  0x0000000000006b7f      0x23b .build/obj_ergodox_ez_default/lib/lufa/LUFA/Drivers/USB/Core/AVR8/EndpointStream_AVR8.o
 .debug_abbrev  0x0000000000006dba      0x29d .build/obj_ergodox_ez_default/lib/lufa/LUFA/Drivers/USB/Core/AVR8/Endpoint_AVR8.o
 .debug_abbrev  0x0000000000007057      0x1f5 .build/obj_ergodox_ez_default/lib/lufa/LUFA/Drivers/USB/Core/AVR8/USBController_AVR8.o
 .debug_abbrev  0x000000000000724c      0x2a5 .build/obj_ergodox_ez_default/lib/lufa/LUFA/Drivers/USB/Core/AVR8/USBInterrupt_AVR8.o
 .debug_abbrev  0x00000000000074f1      0x346 .build/obj_ergodox_ez_default/lib/lufa/LUFA/Drivers/USB/Core/DeviceStandardReq.o
 .debug_abbrev  0x0000000000007837       0x89 .build/obj_ergodox_ez_default/lib/lufa/LUFA/Drivers/USB/Core/Events.o
 .debug_abbrev  0x00000000000078c0      0x1b3 .build/obj_ergodox_ez_default/lib/lufa/LUFA/Drivers/USB/Core/USBTask.o
 .debug_abbrev  0x0000000000007a73       0x14 /usr/local/Cellar/avr-gcc/8.3.0/lib/avr-gcc/8/gcc/avr/8.3.0/avr5/libgcc.a(_udivmodhi4.o)
 .debug_abbrev  0x0000000000007a87       0x14 /usr/local/Cellar/avr-gcc/8.3.0/lib/avr-gcc/8/gcc/avr/8.3.0/avr5/libgcc.a(_divmodhi4.o)
 .debug_abbrev  0x0000000000007a9b       0x14 /usr/local/Cellar/avr-gcc/8.3.0/lib/avr-gcc/8/gcc/avr/8.3.0/avr5/libgcc.a(_exit.o)
 .debug_abbrev  0x0000000000007aaf       0x14 /usr/local/Cellar/avr-gcc/8.3.0/lib/avr-gcc/8/gcc/avr/8.3.0/avr5/libgcc.a(_tablejump2.o)
 .debug_abbrev  0x0000000000007ac3       0x14 /usr/local/Cellar/avr-gcc/8.3.0/lib/avr-gcc/8/gcc/avr/8.3.0/avr5/libgcc.a(_copy_data.o)
 .debug_abbrev  0x0000000000007ad7       0x14 /usr/local/Cellar/avr-gcc/8.3.0/lib/avr-gcc/8/gcc/avr/8.3.0/avr5/libgcc.a(_clear_bss.o)

.debug_line     0x0000000000000000    0x19db3
 *(.debug_line .debug_line.* .debug_line_end)
 .debug_line    0x0000000000000000       0x1d /usr/local/Cellar/avr-gcc/8.3.0/lib/avr-gcc/8/gcc/avr/8.3.0/../../../../../../avr/lib/avr5/crtatmega32u4.o
 .debug_line    0x000000000000001d      0xc68 .build/obj_ergodox_ez_default/matrix.o
 .debug_line    0x0000000000000c85      0xa64 .build/obj_ergodox_ez_default/i2c_master.o
 .debug_line    0x00000000000016e9      0xbdc .build/obj_ergodox_ez_default/keyboards/ergodox_ez/ergodox_ez.o
 .debug_line    0x00000000000022c5      0x473 .build/obj_ergodox_ez_default/keyboards/ergodox_ez/keymaps/default/keymap.o
 .debug_line    0x0000000000002738     0x1a69 .build/obj_ergodox_ez_default/quantum/quantum.o
 .debug_line    0x00000000000041a1      0x8c3 .build/obj_ergodox_ez_default/quantum/keymap_common.o
 .debug_line    0x0000000000004a64      0x400 .build/obj_ergodox_ez_default/quantum/keycode_config.o
 .debug_line    0x0000000000004e64      0x5fd .build/obj_ergodox_ez_default/quantum/debounce/eager_pr.o
 .debug_line    0x0000000000005461      0x2eb .build/obj_ergodox_ez_default/quantum/process_keycode/process_unicode.o
 .debug_line    0x000000000000574c      0x8f7 .build/obj_ergodox_ez_default/quantum/process_keycode/process_unicode_common.o
 .debug_line    0x0000000000006043      0x2c8 .build/obj_ergodox_ez_default/quantum/color.o
 .debug_line    0x000000000000630b     0x2772 .build/obj_ergodox_ez_default/quantum/rgblight.o
 .debug_line    0x0000000000008a7d      0x97f .build/obj_ergodox_ez_default/ws2812.o
 .debug_line    0x00000000000093fc       0x7d .build/obj_ergodox_ez_default/quantum/led_tables.o
 .debug_line    0x0000000000009479      0x549 .build/obj_ergodox_ez_default/quantum/process_keycode/process_space_cadet.o
 .debug_line    0x00000000000099c2      0x3ef .build/obj_ergodox_ez_default/common/host.o
 .debug_line    0x0000000000009db1      0x587 .build/obj_ergodox_ez_default/common/keyboard.o
 .debug_line    0x000000000000a338     0x1860 .build/obj_ergodox_ez_default/common/action.o
 .debug_line    0x000000000000bb98      0xd28 .build/obj_ergodox_ez_default/common/action_tapping.o
 .debug_line    0x000000000000c8c0      0x4d5 .build/obj_ergodox_ez_default/common/action_macro.o
 .debug_line    0x000000000000cd95      0x91a .build/obj_ergodox_ez_default/common/action_layer.o
 .debug_line    0x000000000000d6af      0x9c1 .build/obj_ergodox_ez_default/common/action_util.o
 .debug_line    0x000000000000e070       0x7b .build/obj_ergodox_ez_default/common/debug.o
 .debug_line    0x000000000000e0eb      0x6ee .build/obj_ergodox_ez_default/common/util.o
 .debug_line    0x000000000000e7d9      0x460 .build/obj_ergodox_ez_default/common/eeconfig.o
 .debug_line    0x000000000000ec39      0x5e1 .build/obj_ergodox_ez_default/common/report.o
 .debug_line    0x000000000000f21a      0x491 .build/obj_ergodox_ez_default/common/avr/suspend.o
 .debug_line    0x000000000000f6ab      0x4c9 .build/obj_ergodox_ez_default/common/avr/timer.o
 .debug_line    0x000000000000fb74      0x3b1 .build/obj_ergodox_ez_default/common/avr/bootloader.o
 .debug_line    0x000000000000ff25      0x212 .build/obj_ergodox_ez_default/common/magic.o
 .debug_line    0x0000000000010137      0xf58 .build/obj_ergodox_ez_default/common/mousekey.o
 .debug_line    0x000000000001108f      0xc88 .build/obj_ergodox_ez_default/common/command.o
 .debug_line    0x0000000000011d17     0x131f .build/obj_ergodox_ez_default/lufa.o
 .debug_line    0x0000000000013036      0x3ae .build/obj_ergodox_ez_default/usb_descriptor.o
 .debug_line    0x00000000000133e4      0x25d .build/obj_ergodox_ez_default/outputselect.o
 .debug_line    0x0000000000013641      0x240 .build/obj_ergodox_ez_default/lib/lufa/LUFA/Drivers/USB/Core/AVR8/Device_AVR8.o
 .debug_line    0x0000000000013881     0x33a5 .build/obj_ergodox_ez_default/lib/lufa/LUFA/Drivers/USB/Core/AVR8/EndpointStream_AVR8.o
 .debug_line    0x0000000000016c26      0x99a .build/obj_ergodox_ez_default/lib/lufa/LUFA/Drivers/USB/Core/AVR8/Endpoint_AVR8.o
 .debug_line    0x00000000000175c0      0x691 .build/obj_ergodox_ez_default/lib/lufa/LUFA/Drivers/USB/Core/AVR8/USBController_AVR8.o
 .debug_line    0x0000000000017c51      0xd33 .build/obj_ergodox_ez_default/lib/lufa/LUFA/Drivers/USB/Core/AVR8/USBInterrupt_AVR8.o
 .debug_line    0x0000000000018984      0xd5d .build/obj_ergodox_ez_default/lib/lufa/LUFA/Drivers/USB/Core/DeviceStandardReq.o
 .debug_line    0x00000000000196e1       0xde .build/obj_ergodox_ez_default/lib/lufa/LUFA/Drivers/USB/Core/Events.o
 .debug_line    0x00000000000197bf      0x26a .build/obj_ergodox_ez_default/lib/lufa/LUFA/Drivers/USB/Core/USBTask.o
 .debug_line    0x0000000000019a29       0xcd /usr/local/Cellar/avr-gcc/8.3.0/lib/avr-gcc/8/gcc/avr/8.3.0/avr5/libgcc.a(_udivmodhi4.o)
 .debug_line    0x0000000000019af6       0xc7 /usr/local/Cellar/avr-gcc/8.3.0/lib/avr-gcc/8/gcc/avr/8.3.0/avr5/libgcc.a(_divmodhi4.o)
 .debug_line    0x0000000000019bbd       0x61 /usr/local/Cellar/avr-gcc/8.3.0/lib/avr-gcc/8/gcc/avr/8.3.0/avr5/libgcc.a(_exit.o)
 .debug_line    0x0000000000019c1e       0x79 /usr/local/Cellar/avr-gcc/8.3.0/lib/avr-gcc/8/gcc/avr/8.3.0/avr5/libgcc.a(_tablejump2.o)
 .debug_line    0x0000000000019c97       0x97 /usr/local/Cellar/avr-gcc/8.3.0/lib/avr-gcc/8/gcc/avr/8.3.0/avr5/libgcc.a(_copy_data.o)
 .debug_line    0x0000000000019d2e       0x85 /usr/local/Cellar/avr-gcc/8.3.0/lib/avr-gcc/8/gcc/avr/8.3.0/avr5/libgcc.a(_clear_bss.o)

.debug_frame    0x0000000000000000     0x2e6c
 *(.debug_frame)
 .debug_frame   0x0000000000000000      0x17c .build/obj_ergodox_ez_default/matrix.o
 .debug_frame   0x000000000000017c      0x1e0 .build/obj_ergodox_ez_default/i2c_master.o
 .debug_frame   0x000000000000035c      0x154 .build/obj_ergodox_ez_default/keyboards/ergodox_ez/ergodox_ez.o
 .debug_frame   0x00000000000004b0       0x5c .build/obj_ergodox_ez_default/keyboards/ergodox_ez/keymaps/default/keymap.o
 .debug_frame   0x000000000000050c      0x3f0 .build/obj_ergodox_ez_default/quantum/quantum.o
 .debug_frame   0x00000000000008fc       0x70 .build/obj_ergodox_ez_default/quantum/keymap_common.o
 .debug_frame   0x000000000000096c       0x34 .build/obj_ergodox_ez_default/quantum/keycode_config.o
 .debug_frame   0x00000000000009a0       0xf8 .build/obj_ergodox_ez_default/quantum/debounce/eager_pr.o
 .debug_frame   0x0000000000000a98       0x30 .build/obj_ergodox_ez_default/quantum/process_keycode/process_unicode.o
 .debug_frame   0x0000000000000ac8      0x15c .build/obj_ergodox_ez_default/quantum/process_keycode/process_unicode_common.o
 .debug_frame   0x0000000000000c24       0x54 .build/obj_ergodox_ez_default/quantum/color.o
 .debug_frame   0x0000000000000c78      0x730 .build/obj_ergodox_ez_default/quantum/rgblight.o
 .debug_frame   0x00000000000013a8       0xfc .build/obj_ergodox_ez_default/ws2812.o
 .debug_frame   0x00000000000014a4       0x4c .build/obj_ergodox_ez_default/quantum/process_keycode/process_space_cadet.o
 .debug_frame   0x00000000000014f0       0xa4 .build/obj_ergodox_ez_default/common/host.o
 .debug_frame   0x0000000000001594      0x100 .build/obj_ergodox_ez_default/common/keyboard.o
 .debug_frame   0x0000000000001694      0x20c .build/obj_ergodox_ez_default/common/action.o
 .debug_frame   0x00000000000018a0       0xf0 .build/obj_ergodox_ez_default/common/action_tapping.o
 .debug_frame   0x0000000000001990       0x48 .build/obj_ergodox_ez_default/common/action_macro.o
 .debug_frame   0x00000000000019d8      0x294 .build/obj_ergodox_ez_default/common/action_layer.o
 .debug_frame   0x0000000000001c6c      0x284 .build/obj_ergodox_ez_default/common/action_util.o
 .debug_frame   0x0000000000001ef0      0x110 .build/obj_ergodox_ez_default/common/util.o
 .debug_frame   0x0000000000002000      0x194 .build/obj_ergodox_ez_default/common/eeconfig.o
 .debug_frame   0x0000000000002194       0xb0 .build/obj_ergodox_ez_default/common/report.o
 .debug_frame   0x0000000000002244       0xe0 .build/obj_ergodox_ez_default/common/avr/suspend.o
 .debug_frame   0x0000000000002324       0xbc .build/obj_ergodox_ez_default/common/avr/timer.o
 .debug_frame   0x00000000000023e0       0x34 .build/obj_ergodox_ez_default/common/avr/bootloader.o
 .debug_frame   0x0000000000002414       0x24 .build/obj_ergodox_ez_default/common/magic.o
 .debug_frame   0x0000000000002438       0x98 .build/obj_ergodox_ez_default/common/mousekey.o
 .debug_frame   0x00000000000024d0       0xa8 .build/obj_ergodox_ez_default/common/command.o
 .debug_frame   0x0000000000002578      0x150 .build/obj_ergodox_ez_default/lufa.o
 .debug_frame   0x00000000000026c8       0x24 .build/obj_ergodox_ez_default/usb_descriptor.o
 .debug_frame   0x00000000000026ec       0x5c .build/obj_ergodox_ez_default/outputselect.o
 .debug_frame   0x0000000000002748       0x24 .build/obj_ergodox_ez_default/lib/lufa/LUFA/Drivers/USB/Core/AVR8/Device_AVR8.o
 .debug_frame   0x000000000000276c      0x474 .build/obj_ergodox_ez_default/lib/lufa/LUFA/Drivers/USB/Core/AVR8/EndpointStream_AVR8.o
 .debug_frame   0x0000000000002be0       0x7c .build/obj_ergodox_ez_default/lib/lufa/LUFA/Drivers/USB/Core/AVR8/Endpoint_AVR8.o
 .debug_frame   0x0000000000002c5c       0x5c .build/obj_ergodox_ez_default/lib/lufa/LUFA/Drivers/USB/Core/AVR8/USBController_AVR8.o
 .debug_frame   0x0000000000002cb8      0x108 .build/obj_ergodox_ez_default/lib/lufa/LUFA/Drivers/USB/Core/AVR8/USBInterrupt_AVR8.o
 .debug_frame   0x0000000000002dc0       0x3c .build/obj_ergodox_ez_default/lib/lufa/LUFA/Drivers/USB/Core/DeviceStandardReq.o
 .debug_frame   0x0000000000002dfc       0x44 .build/obj_ergodox_ez_default/lib/lufa/LUFA/Drivers/USB/Core/Events.o
 .debug_frame   0x0000000000002e40       0x2c .build/obj_ergodox_ez_default/lib/lufa/LUFA/Drivers/USB/Core/USBTask.o

.debug_str      0x0000000000000000     0x6d31
 *(.debug_str)
 .debug_str     0x0000000000000000      0x371 /usr/local/Cellar/avr-gcc/8.3.0/lib/avr-gcc/8/gcc/avr/8.3.0/../../../../../../avr/lib/avr5/crtatmega32u4.o
 .debug_str     0x0000000000000371      0x7f4 .build/obj_ergodox_ez_default/matrix.o
                                        0x8ae (size before relaxing)
 .debug_str     0x0000000000000b65       0x9c .build/obj_ergodox_ez_default/i2c_master.o
                                        0x29d (size before relaxing)
 .debug_str     0x0000000000000c01      0x1f0 .build/obj_ergodox_ez_default/keyboards/ergodox_ez/ergodox_ez.o
                                        0x8e3 (size before relaxing)
 .debug_str     0x0000000000000df1     0x17b1 .build/obj_ergodox_ez_default/keyboards/ergodox_ez/keymaps/default/keymap.o
                                       0x1f3e (size before relaxing)
 .debug_str     0x00000000000025a2      0xa20 .build/obj_ergodox_ez_default/quantum/quantum.o
                                       0x2563 (size before relaxing)
 .debug_str     0x0000000000002fc2      0x32c .build/obj_ergodox_ez_default/quantum/keymap_common.o
                                       0x20fe (size before relaxing)
 .debug_str     0x00000000000032ee       0x19 .build/obj_ergodox_ez_default/quantum/keycode_config.o
                                        0x878 (size before relaxing)
 .debug_str     0x0000000000003307       0xc9 .build/obj_ergodox_ez_default/quantum/debounce/eager_pr.o
                                        0x775 (size before relaxing)
 .debug_str     0x00000000000033d0       0x70 .build/obj_ergodox_ez_default/quantum/process_keycode/process_unicode.o
                                       0x1490 (size before relaxing)
 .debug_str     0x0000000000003440      0x163 .build/obj_ergodox_ez_default/quantum/process_keycode/process_unicode_common.o
                                       0x1c58 (size before relaxing)
 .debug_str     0x00000000000035a3       0x4e .build/obj_ergodox_ez_default/quantum/color.o
                                        0x1f0 (size before relaxing)
 .debug_str     0x00000000000035f1      0x863 .build/obj_ergodox_ez_default/quantum/rgblight.o
                                       0x11e0 (size before relaxing)
 .debug_str     0x0000000000003e54       0xe2 .build/obj_ergodox_ez_default/ws2812.o
                                        0x31f (size before relaxing)
 .debug_str     0x0000000000003f36       0x15 .build/obj_ergodox_ez_default/quantum/led_tables.o
                                        0x1be (size before relaxing)
 .debug_str     0x0000000000003f4b       0x62 .build/obj_ergodox_ez_default/quantum/process_keycode/process_space_cadet.o
                                       0x1a92 (size before relaxing)
 .debug_str     0x0000000000003fad      0x113 .build/obj_ergodox_ez_default/common/host.o
                                        0x54a (size before relaxing)
 .debug_str     0x00000000000040c0      0x1b3 .build/obj_ergodox_ez_default/common/keyboard.o
                                        0x7d2 (size before relaxing)
 .debug_str     0x0000000000004273      0x3f1 .build/obj_ergodox_ez_default/common/action.o
                                       0x1650 (size before relaxing)
 .debug_str     0x0000000000004664       0xf7 .build/obj_ergodox_ez_default/common/action_tapping.o
                                        0xbe9 (size before relaxing)
 .debug_str     0x000000000000475b       0x74 .build/obj_ergodox_ez_default/common/action_macro.o
                                        0xa62 (size before relaxing)
 .debug_str     0x00000000000047cf       0xd3 .build/obj_ergodox_ez_default/common/action_layer.o
                                        0x5d2 (size before relaxing)
 .debug_str     0x00000000000048a2      0x211 .build/obj_ergodox_ez_default/common/action_util.o
                                        0x888 (size before relaxing)
 .debug_str     0x0000000000004ab3       0x18 .build/obj_ergodox_ez_default/common/debug.o
                                        0x1e7 (size before relaxing)
 .debug_str     0x0000000000004acb       0x47 .build/obj_ergodox_ez_default/common/util.o
                                        0x1fd (size before relaxing)
 .debug_str     0x0000000000004b12      0x1b8 .build/obj_ergodox_ez_default/common/eeconfig.o
                                        0x432 (size before relaxing)
 .debug_str     0x0000000000004cca       0x5f .build/obj_ergodox_ez_default/common/report.o
                                        0x4ad (size before relaxing)
 .debug_str     0x0000000000004d29      0x1be .build/obj_ergodox_ez_default/common/avr/suspend.o
                                        0x5f5 (size before relaxing)
 .debug_str     0x0000000000004ee7       0x84 .build/obj_ergodox_ez_default/common/avr/timer.o
                                        0x252 (size before relaxing)
 .debug_str     0x0000000000004f6b       0x50 .build/obj_ergodox_ez_default/common/avr/bootloader.o
                                        0x35c (size before relaxing)
 .debug_str     0x0000000000004fbb       0x18 .build/obj_ergodox_ez_default/common/magic.o
                                        0x4c8 (size before relaxing)
 .debug_str     0x0000000000004fd3       0x7b .build/obj_ergodox_ez_default/common/mousekey.o
                                        0x571 (size before relaxing)
 .debug_str     0x000000000000504e      0x141 .build/obj_ergodox_ez_default/common/command.o
                                        0xe98 (size before relaxing)
 .debug_str     0x000000000000518f      0x522 .build/obj_ergodox_ez_default/lufa.o
                                        0xe0e (size before relaxing)
 .debug_str     0x00000000000056b1      0x6df .build/obj_ergodox_ez_default/usb_descriptor.o
                                        0xa93 (size before relaxing)
 .debug_str     0x0000000000005d90       0x58 .build/obj_ergodox_ez_default/outputselect.o
                                        0x4f1 (size before relaxing)
 .debug_str     0x0000000000005de8       0x5e .build/obj_ergodox_ez_default/lib/lufa/LUFA/Drivers/USB/Core/AVR8/Device_AVR8.o
                                        0x2e5 (size before relaxing)
 .debug_str     0x0000000000005e46      0x4a3 .build/obj_ergodox_ez_default/lib/lufa/LUFA/Drivers/USB/Core/AVR8/EndpointStream_AVR8.o
                                        0x8d9 (size before relaxing)
 .debug_str     0x00000000000062e9      0x254 .build/obj_ergodox_ez_default/lib/lufa/LUFA/Drivers/USB/Core/AVR8/Endpoint_AVR8.o
                                        0x699 (size before relaxing)
 .debug_str     0x000000000000653d      0x181 .build/obj_ergodox_ez_default/lib/lufa/LUFA/Drivers/USB/Core/AVR8/USBController_AVR8.o
                                        0x5bd (size before relaxing)
 .debug_str     0x00000000000066be      0x146 .build/obj_ergodox_ez_default/lib/lufa/LUFA/Drivers/USB/Core/AVR8/USBInterrupt_AVR8.o
                                        0x68d (size before relaxing)
 .debug_str     0x0000000000006804      0x40d .build/obj_ergodox_ez_default/lib/lufa/LUFA/Drivers/USB/Core/DeviceStandardReq.o
                                        0x9ed (size before relaxing)
 .debug_str     0x0000000000006c11       0x59 .build/obj_ergodox_ez_default/lib/lufa/LUFA/Drivers/USB/Core/Events.o
                                        0x1e0 (size before relaxing)
 .debug_str     0x0000000000006c6a       0x45 .build/obj_ergodox_ez_default/lib/lufa/LUFA/Drivers/USB/Core/USBTask.o
                                        0x3ec (size before relaxing)
 .debug_str     0x0000000000006caf       0x82 /usr/local/Cellar/avr-gcc/8.3.0/lib/avr-gcc/8/gcc/avr/8.3.0/avr5/libgcc.a(_udivmodhi4.o)
 .debug_str     0x0000000000006d31       0x82 /usr/local/Cellar/avr-gcc/8.3.0/lib/avr-gcc/8/gcc/avr/8.3.0/avr5/libgcc.a(_divmodhi4.o)
 .debug_str     0x0000000000006d31       0x82 /usr/local/Cellar/avr-gcc/8.3.0/lib/avr-gcc/8/gcc/avr/8.3.0/avr5/libgcc.a(_exit.o)
 .debug_str     0x0000000000006d31       0x82 /usr/local/Cellar/avr-gcc/8.3.0/lib/avr-gcc/8/gcc/avr/8.3.0/avr5/libgcc.a(_tablejump2.o)
 .debug_str     0x0000000000006d31       0x82 /usr/local/Cellar/avr-gcc/8.3.0/lib/avr-gcc/8/gcc/avr/8.3.0/avr5/libgcc.a(_copy_data.o)
 .debug_str     0x0000000000006d31       0x82 /usr/local/Cellar/avr-gcc/8.3.0/lib/avr-gcc/8/gcc/avr/8.3.0/avr5/libgcc.a(_clear_bss.o)

.debug_loc      0x0000000000000000     0xf046
 *(.debug_loc)
 .debug_loc     0x0000000000000000      0x448 .build/obj_ergodox_ez_default/matrix.o
 .debug_loc     0x0000000000000448      0xcb6 .build/obj_ergodox_ez_default/i2c_master.o
 .debug_loc     0x00000000000010fe      0x26c .build/obj_ergodox_ez_default/keyboards/ergodox_ez/ergodox_ez.o
 .debug_loc     0x000000000000136a      0x1d4 .build/obj_ergodox_ez_default/keyboards/ergodox_ez/keymaps/default/keymap.o
 .debug_loc     0x000000000000153e     0x14d3 .build/obj_ergodox_ez_default/quantum/quantum.o
 .debug_loc     0x0000000000002a11      0x82a .build/obj_ergodox_ez_default/quantum/keymap_common.o
 .debug_loc     0x000000000000323b      0x1bf .build/obj_ergodox_ez_default/quantum/keycode_config.o
 .debug_loc     0x00000000000033fa      0x5f5 .build/obj_ergodox_ez_default/quantum/debounce/eager_pr.o
 .debug_loc     0x00000000000039ef       0x95 .build/obj_ergodox_ez_default/quantum/process_keycode/process_unicode.o
 .debug_loc     0x0000000000003a84      0x4d1 .build/obj_ergodox_ez_default/quantum/process_keycode/process_unicode_common.o
 .debug_loc     0x0000000000003f55      0x257 .build/obj_ergodox_ez_default/quantum/color.o
 .debug_loc     0x00000000000041ac     0x21f8 .build/obj_ergodox_ez_default/quantum/rgblight.o
 .debug_loc     0x00000000000063a4      0x88f .build/obj_ergodox_ez_default/ws2812.o
 .debug_loc     0x0000000000006c33      0x40f .build/obj_ergodox_ez_default/quantum/process_keycode/process_space_cadet.o
 .debug_loc     0x0000000000007042       0xf0 .build/obj_ergodox_ez_default/common/host.o
 .debug_loc     0x0000000000007132      0x1b1 .build/obj_ergodox_ez_default/common/keyboard.o
 .debug_loc     0x00000000000072e3      0xbb5 .build/obj_ergodox_ez_default/common/action.o
 .debug_loc     0x0000000000007e98      0x6a5 .build/obj_ergodox_ez_default/common/action_tapping.o
 .debug_loc     0x000000000000853d      0x583 .build/obj_ergodox_ez_default/common/action_macro.o
 .debug_loc     0x0000000000008ac0      0x92e .build/obj_ergodox_ez_default/common/action_layer.o
 .debug_loc     0x00000000000093ee      0x2b6 .build/obj_ergodox_ez_default/common/action_util.o
 .debug_loc     0x00000000000096a4      0x58d .build/obj_ergodox_ez_default/common/util.o
 .debug_loc     0x0000000000009c31      0x18a .build/obj_ergodox_ez_default/common/eeconfig.o
 .debug_loc     0x0000000000009dbb      0x41b .build/obj_ergodox_ez_default/common/report.o
 .debug_loc     0x000000000000a1d6       0xdf .build/obj_ergodox_ez_default/common/avr/suspend.o
 .debug_loc     0x000000000000a2b5      0x35b .build/obj_ergodox_ez_default/common/avr/timer.o
 .debug_loc     0x000000000000a610       0x4e .build/obj_ergodox_ez_default/common/avr/bootloader.o
 .debug_loc     0x000000000000a65e       0x30 .build/obj_ergodox_ez_default/common/magic.o
 .debug_loc     0x000000000000a68e      0x499 .build/obj_ergodox_ez_default/common/mousekey.o
 .debug_loc     0x000000000000ab27      0x531 .build/obj_ergodox_ez_default/common/command.o
 .debug_loc     0x000000000000b058      0x7ad .build/obj_ergodox_ez_default/lufa.o
 .debug_loc     0x000000000000b805      0x28b .build/obj_ergodox_ez_default/usb_descriptor.o
 .debug_loc     0x000000000000ba90       0x55 .build/obj_ergodox_ez_default/outputselect.o
 .debug_loc     0x000000000000bae5     0x274e .build/obj_ergodox_ez_default/lib/lufa/LUFA/Drivers/USB/Core/AVR8/EndpointStream_AVR8.o
 .debug_loc     0x000000000000e233      0x4a0 .build/obj_ergodox_ez_default/lib/lufa/LUFA/Drivers/USB/Core/AVR8/Endpoint_AVR8.o
 .debug_loc     0x000000000000e6d3       0xf9 .build/obj_ergodox_ez_default/lib/lufa/LUFA/Drivers/USB/Core/AVR8/USBController_AVR8.o
 .debug_loc     0x000000000000e7cc      0x492 .build/obj_ergodox_ez_default/lib/lufa/LUFA/Drivers/USB/Core/AVR8/USBInterrupt_AVR8.o
 .debug_loc     0x000000000000ec5e      0x386 .build/obj_ergodox_ez_default/lib/lufa/LUFA/Drivers/USB/Core/DeviceStandardReq.o
 .debug_loc     0x000000000000efe4       0x62 .build/obj_ergodox_ez_default/lib/lufa/LUFA/Drivers/USB/Core/USBTask.o

.debug_macinfo
 *(.debug_macinfo)

.debug_weaknames
 *(.debug_weaknames)

.debug_funcnames
 *(.debug_funcnames)

.debug_typenames
 *(.debug_typenames)

.debug_varnames
 *(.debug_varnames)

.debug_pubtypes
 *(.debug_pubtypes)

.debug_ranges   0x0000000000000000     0x1960
 *(.debug_ranges)
 .debug_ranges  0x0000000000000000      0x108 .build/obj_ergodox_ez_default/matrix.o
 .debug_ranges  0x0000000000000108       0xb8 .build/obj_ergodox_ez_default/i2c_master.o
 .debug_ranges  0x00000000000001c0       0xa8 .build/obj_ergodox_ez_default/keyboards/ergodox_ez/ergodox_ez.o
 .debug_ranges  0x0000000000000268       0x20 .build/obj_ergodox_ez_default/keyboards/ergodox_ez/keymaps/default/keymap.o
 .debug_ranges  0x0000000000000288      0x198 .build/obj_ergodox_ez_default/quantum/quantum.o
 .debug_ranges  0x0000000000000420       0x30 .build/obj_ergodox_ez_default/quantum/keymap_common.o
 .debug_ranges  0x0000000000000450       0x18 .build/obj_ergodox_ez_default/quantum/keycode_config.o
 .debug_ranges  0x0000000000000468       0x78 .build/obj_ergodox_ez_default/quantum/debounce/eager_pr.o
 .debug_ranges  0x00000000000004e0       0x10 .build/obj_ergodox_ez_default/quantum/process_keycode/process_unicode.o
 .debug_ranges  0x00000000000004f0       0xd0 .build/obj_ergodox_ez_default/quantum/process_keycode/process_unicode_common.o
 .debug_ranges  0x00000000000005c0       0x10 .build/obj_ergodox_ez_default/quantum/color.o
 .debug_ranges  0x00000000000005d0      0x460 .build/obj_ergodox_ez_default/quantum/rgblight.o
 .debug_ranges  0x0000000000000a30       0x70 .build/obj_ergodox_ez_default/ws2812.o
 .debug_ranges  0x0000000000000aa0       0x18 .build/obj_ergodox_ez_default/quantum/process_keycode/process_space_cadet.o
 .debug_ranges  0x0000000000000ab8       0x50 .build/obj_ergodox_ez_default/common/host.o
 .debug_ranges  0x0000000000000b08       0xa8 .build/obj_ergodox_ez_default/common/keyboard.o
 .debug_ranges  0x0000000000000bb0       0xe0 .build/obj_ergodox_ez_default/common/action.o
 .debug_ranges  0x0000000000000c90       0xf0 .build/obj_ergodox_ez_default/common/action_tapping.o
 .debug_ranges  0x0000000000000d80       0x28 .build/obj_ergodox_ez_default/common/action_macro.o
 .debug_ranges  0x0000000000000da8      0x128 .build/obj_ergodox_ez_default/common/action_layer.o
 .debug_ranges  0x0000000000000ed0      0x130 .build/obj_ergodox_ez_default/common/action_util.o
 .debug_ranges  0x0000000000001000       0x50 .build/obj_ergodox_ez_default/common/util.o
 .debug_ranges  0x0000000000001050       0xc8 .build/obj_ergodox_ez_default/common/eeconfig.o
 .debug_ranges  0x0000000000001118       0x50 .build/obj_ergodox_ez_default/common/report.o
 .debug_ranges  0x0000000000001168       0x90 .build/obj_ergodox_ez_default/common/avr/suspend.o
 .debug_ranges  0x00000000000011f8       0x40 .build/obj_ergodox_ez_default/common/avr/timer.o
 .debug_ranges  0x0000000000001238       0x18 .build/obj_ergodox_ez_default/common/avr/bootloader.o
 .debug_ranges  0x0000000000001250       0x10 .build/obj_ergodox_ez_default/common/magic.o
 .debug_ranges  0x0000000000001260       0x40 .build/obj_ergodox_ez_default/common/mousekey.o
 .debug_ranges  0x00000000000012a0       0x78 .build/obj_ergodox_ez_default/common/command.o
 .debug_ranges  0x0000000000001318      0x138 .build/obj_ergodox_ez_default/lufa.o
 .debug_ranges  0x0000000000001450       0x28 .build/obj_ergodox_ez_default/usb_descriptor.o
 .debug_ranges  0x0000000000001478       0x28 .build/obj_ergodox_ez_default/outputselect.o
 .debug_ranges  0x00000000000014a0       0x10 .build/obj_ergodox_ez_default/lib/lufa/LUFA/Drivers/USB/Core/AVR8/Device_AVR8.o
 .debug_ranges  0x00000000000014b0      0x1f8 .build/obj_ergodox_ez_default/lib/lufa/LUFA/Drivers/USB/Core/AVR8/EndpointStream_AVR8.o
 .debug_ranges  0x00000000000016a8       0xd8 .build/obj_ergodox_ez_default/lib/lufa/LUFA/Drivers/USB/Core/AVR8/Endpoint_AVR8.o
 .debug_ranges  0x0000000000001780       0x50 .build/obj_ergodox_ez_default/lib/lufa/LUFA/Drivers/USB/Core/AVR8/USBController_AVR8.o
 .debug_ranges  0x00000000000017d0       0x70 .build/obj_ergodox_ez_default/lib/lufa/LUFA/Drivers/USB/Core/AVR8/USBInterrupt_AVR8.o
 .debug_ranges  0x0000000000001840       0xf0 .build/obj_ergodox_ez_default/lib/lufa/LUFA/Drivers/USB/Core/DeviceStandardReq.o
 .debug_ranges  0x0000000000001930       0x20 .build/obj_ergodox_ez_default/lib/lufa/LUFA/Drivers/USB/Core/Events.o
 .debug_ranges  0x0000000000001950       0x10 .build/obj_ergodox_ez_default/lib/lufa/LUFA/Drivers/USB/Core/USBTask.o

.debug_macro
 *(.debug_macro)

.debug_addr
 *(.debug_addr)
OUTPUT(.build/ergodox_ez_default.elf elf32-avr)
LOAD linker stubs

Cross Reference Table

Symbol                                            File
CALLBACK_HIDParser_FilterHIDReportItem            .build/obj_ergodox_ez_default/lib/lufa/LUFA/Drivers/USB/Class/Common/HIDParser.o
CALLBACK_USB_GetDescriptor                        .build/obj_ergodox_ez_default/lufa.o
                                                  .build/obj_ergodox_ez_default/lib/lufa/LUFA/Drivers/USB/Core/DeviceStandardReq.o
CIE1931_CURVE                                     .build/obj_ergodox_ez_default/quantum/led_tables.o
                                                  .build/obj_ergodox_ez_default/quantum/color.o
ConfigurationDescriptor                           .build/obj_ergodox_ez_default/usb_descriptor.o
DeviceDescriptor                                  .build/obj_ergodox_ez_default/usb_descriptor.o
EVENT_USB_Device_ConfigurationChanged             .build/obj_ergodox_ez_default/lufa.o
                                                  .build/obj_ergodox_ez_default/lib/lufa/LUFA/Drivers/USB/Core/DeviceStandardReq.o
EVENT_USB_Device_Connect                          .build/obj_ergodox_ez_default/lufa.o
                                                  .build/obj_ergodox_ez_default/lib/lufa/LUFA/Drivers/USB/Core/AVR8/USBInterrupt_AVR8.o
EVENT_USB_Device_ControlRequest                   .build/obj_ergodox_ez_default/lufa.o
                                                  .build/obj_ergodox_ez_default/lib/lufa/LUFA/Drivers/USB/Core/DeviceStandardReq.o
EVENT_USB_Device_Disconnect                       .build/obj_ergodox_ez_default/lufa.o
                                                  .build/obj_ergodox_ez_default/lib/lufa/LUFA/Drivers/USB/Core/AVR8/USBInterrupt_AVR8.o
EVENT_USB_Device_Reset                            .build/obj_ergodox_ez_default/lufa.o
                                                  .build/obj_ergodox_ez_default/lib/lufa/LUFA/Drivers/USB/Core/AVR8/USBInterrupt_AVR8.o
EVENT_USB_Device_StartOfFrame                     .build/obj_ergodox_ez_default/lib/lufa/LUFA/Drivers/USB/Core/Events.o
                                                  .build/obj_ergodox_ez_default/lib/lufa/LUFA/Drivers/USB/Core/AVR8/USBInterrupt_AVR8.o
EVENT_USB_Device_Suspend                          .build/obj_ergodox_ez_default/lufa.o
                                                  .build/obj_ergodox_ez_default/lib/lufa/LUFA/Drivers/USB/Core/AVR8/USBInterrupt_AVR8.o
EVENT_USB_Device_WakeUp                           .build/obj_ergodox_ez_default/lufa.o
                                                  .build/obj_ergodox_ez_default/lib/lufa/LUFA/Drivers/USB/Core/AVR8/USBInterrupt_AVR8.o
Endpoint_ClearEndpoints                           .build/obj_ergodox_ez_default/lib/lufa/LUFA/Drivers/USB/Core/AVR8/Endpoint_AVR8.o
Endpoint_ClearStatusStage                         .build/obj_ergodox_ez_default/lib/lufa/LUFA/Drivers/USB/Core/AVR8/Endpoint_AVR8.o
                                                  .build/obj_ergodox_ez_default/lib/lufa/LUFA/Drivers/USB/Core/DeviceStandardReq.o
                                                  .build/obj_ergodox_ez_default/lufa.o
Endpoint_ConfigureEndpointTable                   .build/obj_ergodox_ez_default/lib/lufa/LUFA/Drivers/USB/Core/AVR8/Endpoint_AVR8.o
Endpoint_ConfigureEndpoint_Prv                    .build/obj_ergodox_ez_default/lib/lufa/LUFA/Drivers/USB/Core/AVR8/Endpoint_AVR8.o
                                                  .build/obj_ergodox_ez_default/lib/lufa/LUFA/Drivers/USB/Core/AVR8/USBInterrupt_AVR8.o
                                                  .build/obj_ergodox_ez_default/lib/lufa/LUFA/Drivers/USB/Core/AVR8/USBController_AVR8.o
                                                  .build/obj_ergodox_ez_default/lufa.o
Endpoint_Discard_Stream                           .build/obj_ergodox_ez_default/lib/lufa/LUFA/Drivers/USB/Core/AVR8/EndpointStream_AVR8.o
Endpoint_Null_Stream                              .build/obj_ergodox_ez_default/lib/lufa/LUFA/Drivers/USB/Core/AVR8/EndpointStream_AVR8.o
Endpoint_Read_Control_EStream_BE                  .build/obj_ergodox_ez_default/lib/lufa/LUFA/Drivers/USB/Core/AVR8/EndpointStream_AVR8.o
Endpoint_Read_Control_EStream_LE                  .build/obj_ergodox_ez_default/lib/lufa/LUFA/Drivers/USB/Core/AVR8/EndpointStream_AVR8.o
Endpoint_Read_Control_Stream_BE                   .build/obj_ergodox_ez_default/lib/lufa/LUFA/Drivers/USB/Core/AVR8/EndpointStream_AVR8.o
Endpoint_Read_Control_Stream_LE                   .build/obj_ergodox_ez_default/lib/lufa/LUFA/Drivers/USB/Core/AVR8/EndpointStream_AVR8.o
Endpoint_Read_EStream_BE                          .build/obj_ergodox_ez_default/lib/lufa/LUFA/Drivers/USB/Core/AVR8/EndpointStream_AVR8.o
Endpoint_Read_EStream_LE                          .build/obj_ergodox_ez_default/lib/lufa/LUFA/Drivers/USB/Core/AVR8/EndpointStream_AVR8.o
Endpoint_Read_Stream_BE                           .build/obj_ergodox_ez_default/lib/lufa/LUFA/Drivers/USB/Core/AVR8/EndpointStream_AVR8.o
Endpoint_Read_Stream_LE                           .build/obj_ergodox_ez_default/lib/lufa/LUFA/Drivers/USB/Core/AVR8/EndpointStream_AVR8.o
Endpoint_WaitUntilReady                           .build/obj_ergodox_ez_default/lib/lufa/LUFA/Drivers/USB/Core/AVR8/Endpoint_AVR8.o
                                                  .build/obj_ergodox_ez_default/lib/lufa/LUFA/Drivers/USB/Core/AVR8/EndpointStream_AVR8.o
Endpoint_Write_Control_EStream_BE                 .build/obj_ergodox_ez_default/lib/lufa/LUFA/Drivers/USB/Core/AVR8/EndpointStream_AVR8.o
Endpoint_Write_Control_EStream_LE                 .build/obj_ergodox_ez_default/lib/lufa/LUFA/Drivers/USB/Core/AVR8/EndpointStream_AVR8.o
Endpoint_Write_Control_PStream_BE                 .build/obj_ergodox_ez_default/lib/lufa/LUFA/Drivers/USB/Core/AVR8/EndpointStream_AVR8.o
Endpoint_Write_Control_PStream_LE                 .build/obj_ergodox_ez_default/lib/lufa/LUFA/Drivers/USB/Core/AVR8/EndpointStream_AVR8.o
                                                  .build/obj_ergodox_ez_default/lib/lufa/LUFA/Drivers/USB/Core/DeviceStandardReq.o
Endpoint_Write_Control_Stream_BE                  .build/obj_ergodox_ez_default/lib/lufa/LUFA/Drivers/USB/Core/AVR8/EndpointStream_AVR8.o
Endpoint_Write_Control_Stream_LE                  .build/obj_ergodox_ez_default/lib/lufa/LUFA/Drivers/USB/Core/AVR8/EndpointStream_AVR8.o
                                                  .build/obj_ergodox_ez_default/lib/lufa/LUFA/Drivers/USB/Core/DeviceStandardReq.o
                                                  .build/obj_ergodox_ez_default/lufa.o
Endpoint_Write_EStream_BE                         .build/obj_ergodox_ez_default/lib/lufa/LUFA/Drivers/USB/Core/AVR8/EndpointStream_AVR8.o
Endpoint_Write_EStream_LE                         .build/obj_ergodox_ez_default/lib/lufa/LUFA/Drivers/USB/Core/AVR8/EndpointStream_AVR8.o
Endpoint_Write_PStream_BE                         .build/obj_ergodox_ez_default/lib/lufa/LUFA/Drivers/USB/Core/AVR8/EndpointStream_AVR8.o
Endpoint_Write_PStream_LE                         .build/obj_ergodox_ez_default/lib/lufa/LUFA/Drivers/USB/Core/AVR8/EndpointStream_AVR8.o
Endpoint_Write_Stream_BE                          .build/obj_ergodox_ez_default/lib/lufa/LUFA/Drivers/USB/Core/AVR8/EndpointStream_AVR8.o
Endpoint_Write_Stream_LE                          .build/obj_ergodox_ez_default/lib/lufa/LUFA/Drivers/USB/Core/AVR8/EndpointStream_AVR8.o
                                                  .build/obj_ergodox_ez_default/lufa.o
I2C_Init                                          .build/obj_ergodox_ez_default/ws2812.o
I2C_Start                                         .build/obj_ergodox_ez_default/ws2812.o
I2C_Stop                                          .build/obj_ergodox_ez_default/ws2812.o
I2C_Write                                         .build/obj_ergodox_ez_default/ws2812.o
I2C_WriteBit                                      .build/obj_ergodox_ez_default/ws2812.o
KeyboardReport                                    .build/obj_ergodox_ez_default/usb_descriptor.o
LED_BREATHING_TABLE                               .build/obj_ergodox_ez_default/quantum/led_tables.o
LanguageString                                    .build/obj_ergodox_ez_default/usb_descriptor.o
ManufacturerString                                .build/obj_ergodox_ez_default/usb_descriptor.o
ProductString                                     .build/obj_ergodox_ez_default/usb_descriptor.o
RGBLED_BREATHING_INTERVALS                        .build/obj_ergodox_ez_default/quantum/rgblight.o
RGBLED_GRADIENT_RANGES                            .build/obj_ergodox_ez_default/quantum/rgblight.o
RGBLED_KNIGHT_INTERVALS                           .build/obj_ergodox_ez_default/quantum/rgblight.o
RGBLED_RAINBOW_MOOD_INTERVALS                     .build/obj_ergodox_ez_default/quantum/rgblight.o
RGBLED_RAINBOW_SWIRL_INTERVALS                    .build/obj_ergodox_ez_default/quantum/rgblight.o
RGBLED_RGBTEST_INTERVALS                          .build/obj_ergodox_ez_default/quantum/rgblight.o
RGBLED_SNAKE_INTERVALS                            .build/obj_ergodox_ez_default/quantum/rgblight.o
SerialNumberString                                .build/obj_ergodox_ez_default/usb_descriptor.o
SharedReport                                      .build/obj_ergodox_ez_default/usb_descriptor.o
USB_ControlRequest                                .build/obj_ergodox_ez_default/lib/lufa/LUFA/Drivers/USB/Core/USBTask.o
                                                  .build/obj_ergodox_ez_default/lib/lufa/LUFA/Drivers/USB/Core/DeviceStandardReq.o
                                                  .build/obj_ergodox_ez_default/lib/lufa/LUFA/Drivers/USB/Core/AVR8/Endpoint_AVR8.o
                                                  .build/obj_ergodox_ez_default/lib/lufa/LUFA/Drivers/USB/Core/AVR8/EndpointStream_AVR8.o
                                                  .build/obj_ergodox_ez_default/lufa.o
USB_DeviceState                                   .build/obj_ergodox_ez_default/lib/lufa/LUFA/Drivers/USB/Core/USBTask.o
                                                  .build/obj_ergodox_ez_default/lib/lufa/LUFA/Drivers/USB/Core/DeviceStandardReq.o
                                                  .build/obj_ergodox_ez_default/lib/lufa/LUFA/Drivers/USB/Core/AVR8/USBInterrupt_AVR8.o
                                                  .build/obj_ergodox_ez_default/lib/lufa/LUFA/Drivers/USB/Core/AVR8/USBController_AVR8.o
                                                  .build/obj_ergodox_ez_default/lib/lufa/LUFA/Drivers/USB/Core/AVR8/Endpoint_AVR8.o
                                                  .build/obj_ergodox_ez_default/lib/lufa/LUFA/Drivers/USB/Core/AVR8/EndpointStream_AVR8.o
                                                  .build/obj_ergodox_ez_default/outputselect.o
                                                  .build/obj_ergodox_ez_default/lufa.o
                                                  .build/obj_ergodox_ez_default/common/avr/suspend.o
USB_Device_ConfigurationNumber                    .build/obj_ergodox_ez_default/lib/lufa/LUFA/Drivers/USB/Core/DeviceStandardReq.o
                                                  .build/obj_ergodox_ez_default/lib/lufa/LUFA/Drivers/USB/Core/AVR8/USBInterrupt_AVR8.o
                                                  .build/obj_ergodox_ez_default/lib/lufa/LUFA/Drivers/USB/Core/AVR8/USBController_AVR8.o
USB_Device_CurrentlySelfPowered                   .build/obj_ergodox_ez_default/lib/lufa/LUFA/Drivers/USB/Core/DeviceStandardReq.o
                                                  .build/obj_ergodox_ez_default/lib/lufa/LUFA/Drivers/USB/Core/AVR8/USBController_AVR8.o
USB_Device_ProcessControlRequest                  .build/obj_ergodox_ez_default/lib/lufa/LUFA/Drivers/USB/Core/DeviceStandardReq.o
                                                  .build/obj_ergodox_ez_default/lib/lufa/LUFA/Drivers/USB/Core/USBTask.o
                                                  .build/obj_ergodox_ez_default/lib/lufa/LUFA/Drivers/USB/Core/AVR8/USBInterrupt_AVR8.o
USB_Device_RemoteWakeupEnabled                    .build/obj_ergodox_ez_default/lib/lufa/LUFA/Drivers/USB/Core/DeviceStandardReq.o
                                                  .build/obj_ergodox_ez_default/lib/lufa/LUFA/Drivers/USB/Core/AVR8/USBController_AVR8.o
                                                  .build/obj_ergodox_ez_default/lufa.o
USB_Device_SendRemoteWakeup                       .build/obj_ergodox_ez_default/lib/lufa/LUFA/Drivers/USB/Core/AVR8/Device_AVR8.o
                                                  .build/obj_ergodox_ez_default/lufa.o
USB_Disable                                       .build/obj_ergodox_ez_default/lib/lufa/LUFA/Drivers/USB/Core/AVR8/USBController_AVR8.o
                                                  .build/obj_ergodox_ez_default/lufa.o
USB_Event_Stub                                    .build/obj_ergodox_ez_default/lib/lufa/LUFA/Drivers/USB/Core/Events.o
USB_Event_Stub_2                                  .build/obj_ergodox_ez_default/lib/lufa/LUFA/Drivers/USB/Core/Events.o
USB_Event_Stub_3                                  .build/obj_ergodox_ez_default/lib/lufa/LUFA/Drivers/USB/Core/Events.o
USB_GetHIDReportItemInfo                          .build/obj_ergodox_ez_default/lib/lufa/LUFA/Drivers/USB/Class/Common/HIDParser.o
USB_GetHIDReportSize                              .build/obj_ergodox_ez_default/lib/lufa/LUFA/Drivers/USB/Class/Common/HIDParser.o
USB_GetNextDescriptorComp                         .build/obj_ergodox_ez_default/lib/lufa/LUFA/Drivers/USB/Core/ConfigDescriptors.o
USB_GetNextDescriptorOfType                       .build/obj_ergodox_ez_default/lib/lufa/LUFA/Drivers/USB/Core/ConfigDescriptors.o
USB_GetNextDescriptorOfTypeAfter                  .build/obj_ergodox_ez_default/lib/lufa/LUFA/Drivers/USB/Core/ConfigDescriptors.o
USB_GetNextDescriptorOfTypeBefore                 .build/obj_ergodox_ez_default/lib/lufa/LUFA/Drivers/USB/Core/ConfigDescriptors.o
USB_INT_ClearAllInterrupts                        .build/obj_ergodox_ez_default/lib/lufa/LUFA/Drivers/USB/Core/AVR8/USBInterrupt_AVR8.o
                                                  .build/obj_ergodox_ez_default/lib/lufa/LUFA/Drivers/USB/Core/AVR8/USBController_AVR8.o
USB_INT_DisableAllInterrupts                      .build/obj_ergodox_ez_default/lib/lufa/LUFA/Drivers/USB/Core/AVR8/USBInterrupt_AVR8.o
                                                  .build/obj_ergodox_ez_default/lib/lufa/LUFA/Drivers/USB/Core/AVR8/USBController_AVR8.o
USB_Init                                          .build/obj_ergodox_ez_default/lib/lufa/LUFA/Drivers/USB/Core/AVR8/USBController_AVR8.o
                                                  .build/obj_ergodox_ez_default/lufa.o
USB_IsInitialized                                 .build/obj_ergodox_ez_default/lib/lufa/LUFA/Drivers/USB/Core/USBTask.o
                                                  .build/obj_ergodox_ez_default/lib/lufa/LUFA/Drivers/USB/Core/AVR8/USBController_AVR8.o
                                                  .build/obj_ergodox_ez_default/lufa.o
USB_ProcessHIDReport                              .build/obj_ergodox_ez_default/lib/lufa/LUFA/Drivers/USB/Class/Common/HIDParser.o
USB_ResetInterface                                .build/obj_ergodox_ez_default/lib/lufa/LUFA/Drivers/USB/Core/AVR8/USBController_AVR8.o
USB_SetHIDReportItemInfo                          .build/obj_ergodox_ez_default/lib/lufa/LUFA/Drivers/USB/Class/Common/HIDParser.o
USB_USBTask                                       .build/obj_ergodox_ez_default/lib/lufa/LUFA/Drivers/USB/Core/USBTask.o
                                                  .build/obj_ergodox_ez_default/lufa.o
__bad_interrupt                                   /usr/local/Cellar/avr-gcc/8.3.0/lib/avr-gcc/8/gcc/avr/8.3.0/../../../../../../avr/lib/avr5/crtatmega32u4.o
__brkval                                          /usr/local/Cellar/avr-gcc/8.3.0/lib/avr-gcc/8/gcc/avr/8.3.0/../../../../../../avr/lib/avr5/libc.a(malloc.o)
__bss_end                                         /usr/local/Cellar/avr-gcc/8.3.0/lib/avr-gcc/8/gcc/avr/8.3.0/avr5/libgcc.a(_clear_bss.o)
__bss_start                                       /usr/local/Cellar/avr-gcc/8.3.0/lib/avr-gcc/8/gcc/avr/8.3.0/avr5/libgcc.a(_clear_bss.o)
__data_end                                        /usr/local/Cellar/avr-gcc/8.3.0/lib/avr-gcc/8/gcc/avr/8.3.0/avr5/libgcc.a(_copy_data.o)
__data_load_start                                 /usr/local/Cellar/avr-gcc/8.3.0/lib/avr-gcc/8/gcc/avr/8.3.0/avr5/libgcc.a(_copy_data.o)
__data_start                                      /usr/local/Cellar/avr-gcc/8.3.0/lib/avr-gcc/8/gcc/avr/8.3.0/avr5/libgcc.a(_copy_data.o)
__divmodhi4                                       /usr/local/Cellar/avr-gcc/8.3.0/lib/avr-gcc/8/gcc/avr/8.3.0/avr5/libgcc.a(_divmodhi4.o)
                                                  .build/obj_ergodox_ez_default/common/mousekey.o
                                                  .build/obj_ergodox_ez_default/quantum/rgblight.o
__do_clear_bss                                    /usr/local/Cellar/avr-gcc/8.3.0/lib/avr-gcc/8/gcc/avr/8.3.0/avr5/libgcc.a(_clear_bss.o)
                                                  /usr/local/Cellar/avr-gcc/8.3.0/lib/avr-gcc/8/gcc/avr/8.3.0/../../../../../../avr/lib/avr5/libc.a(malloc.o)
                                                  .build/obj_ergodox_ez_default/lib/lufa/LUFA/Drivers/USB/Core/USBTask.o
                                                  .build/obj_ergodox_ez_default/lib/lufa/LUFA/Drivers/USB/Core/DeviceStandardReq.o
                                                  .build/obj_ergodox_ez_default/outputselect.o
                                                  .build/obj_ergodox_ez_default/lufa.o
                                                  .build/obj_ergodox_ez_default/common/command.o
                                                  .build/obj_ergodox_ez_default/common/mousekey.o
                                                  .build/obj_ergodox_ez_default/common/magic.o
                                                  .build/obj_ergodox_ez_default/common/avr/timer.o
                                                  .build/obj_ergodox_ez_default/common/avr/suspend.o
                                                  .build/obj_ergodox_ez_default/common/debug.o
                                                  .build/obj_ergodox_ez_default/common/action_util.o
                                                  .build/obj_ergodox_ez_default/common/action_layer.o
                                                  .build/obj_ergodox_ez_default/common/action_tapping.o
                                                  .build/obj_ergodox_ez_default/common/action.o
                                                  .build/obj_ergodox_ez_default/common/keyboard.o
                                                  .build/obj_ergodox_ez_default/common/host.o
                                                  .build/obj_ergodox_ez_default/quantum/process_keycode/process_space_cadet.o
                                                  .build/obj_ergodox_ez_default/quantum/rgblight.o
                                                  .build/obj_ergodox_ez_default/quantum/process_keycode/process_unicode_common.o
                                                  .build/obj_ergodox_ez_default/quantum/debounce/eager_pr.o
                                                  .build/obj_ergodox_ez_default/quantum/quantum.o
                                                  .build/obj_ergodox_ez_default/keyboards/ergodox_ez/ergodox_ez.o
                                                  .build/obj_ergodox_ez_default/matrix.o
__do_copy_data                                    /usr/local/Cellar/avr-gcc/8.3.0/lib/avr-gcc/8/gcc/avr/8.3.0/avr5/libgcc.a(_copy_data.o)
                                                  /usr/local/Cellar/avr-gcc/8.3.0/lib/avr-gcc/8/gcc/avr/8.3.0/../../../../../../avr/lib/avr5/libc.a(malloc.o)
                                                  .build/obj_ergodox_ez_default/lufa.o
                                                  .build/obj_ergodox_ez_default/common/command.o
                                                  .build/obj_ergodox_ez_default/common/mousekey.o
                                                  .build/obj_ergodox_ez_default/common/action_util.o
                                                  .build/obj_ergodox_ez_default/quantum/rgblight.o
                                                  .build/obj_ergodox_ez_default/quantum/process_keycode/process_unicode_common.o
                                                  .build/obj_ergodox_ez_default/keyboards/ergodox_ez/ergodox_ez.o
__flp                                             /usr/local/Cellar/avr-gcc/8.3.0/lib/avr-gcc/8/gcc/avr/8.3.0/../../../../../../avr/lib/avr5/libc.a(malloc.o)
__heap_end                                        /usr/local/Cellar/avr-gcc/8.3.0/lib/avr-gcc/8/gcc/avr/8.3.0/../../../../../../avr/lib/avr5/crtatmega32u4.o
                                                  /usr/local/Cellar/avr-gcc/8.3.0/lib/avr-gcc/8/gcc/avr/8.3.0/../../../../../../avr/lib/avr5/libc.a(malloc.o)
__heap_start                                      /usr/local/Cellar/avr-gcc/8.3.0/lib/avr-gcc/8/gcc/avr/8.3.0/../../../../../../avr/lib/avr5/libc.a(malloc.o)
__init                                            /usr/local/Cellar/avr-gcc/8.3.0/lib/avr-gcc/8/gcc/avr/8.3.0/../../../../../../avr/lib/avr5/crtatmega32u4.o
__malloc_heap_end                                 /usr/local/Cellar/avr-gcc/8.3.0/lib/avr-gcc/8/gcc/avr/8.3.0/../../../../../../avr/lib/avr5/libc.a(malloc.o)
__malloc_heap_start                               /usr/local/Cellar/avr-gcc/8.3.0/lib/avr-gcc/8/gcc/avr/8.3.0/../../../../../../avr/lib/avr5/libc.a(malloc.o)
__malloc_margin                                   /usr/local/Cellar/avr-gcc/8.3.0/lib/avr-gcc/8/gcc/avr/8.3.0/../../../../../../avr/lib/avr5/libc.a(malloc.o)
__stack                                           /usr/local/Cellar/avr-gcc/8.3.0/lib/avr-gcc/8/gcc/avr/8.3.0/../../../../../../avr/lib/avr5/crtatmega32u4.o
__tablejump2__                                    /usr/local/Cellar/avr-gcc/8.3.0/lib/avr-gcc/8/gcc/avr/8.3.0/avr5/libgcc.a(_tablejump2.o)
                                                  .build/obj_ergodox_ez_default/lib/lufa/LUFA/Drivers/USB/Core/DeviceStandardReq.o
                                                  .build/obj_ergodox_ez_default/common/command.o
                                                  .build/obj_ergodox_ez_default/common/action.o
                                                  .build/obj_ergodox_ez_default/quantum/quantum.o
                                                  .build/obj_ergodox_ez_default/keyboards/ergodox_ez/keymaps/default/keymap.o
__udivmodhi4                                      /usr/local/Cellar/avr-gcc/8.3.0/lib/avr-gcc/8/gcc/avr/8.3.0/avr5/libgcc.a(_udivmodhi4.o)
                                                  /usr/local/Cellar/avr-gcc/8.3.0/lib/avr-gcc/8/gcc/avr/8.3.0/avr5/libgcc.a(_divmodhi4.o)
                                                  .build/obj_ergodox_ez_default/quantum/rgblight.o
                                                  .build/obj_ergodox_ez_default/quantum/color.o
                                                  .build/obj_ergodox_ez_default/quantum/debounce/eager_pr.o
__vector_1                                        /usr/local/Cellar/avr-gcc/8.3.0/lib/avr-gcc/8/gcc/avr/8.3.0/../../../../../../avr/lib/avr5/crtatmega32u4.o
__vector_10                                       .build/obj_ergodox_ez_default/lib/lufa/LUFA/Drivers/USB/Core/AVR8/USBInterrupt_AVR8.o
                                                  /usr/local/Cellar/avr-gcc/8.3.0/lib/avr-gcc/8/gcc/avr/8.3.0/../../../../../../avr/lib/avr5/crtatmega32u4.o
__vector_11                                       .build/obj_ergodox_ez_default/lib/lufa/LUFA/Drivers/USB/Core/AVR8/USBInterrupt_AVR8.o
                                                  /usr/local/Cellar/avr-gcc/8.3.0/lib/avr-gcc/8/gcc/avr/8.3.0/../../../../../../avr/lib/avr5/crtatmega32u4.o
__vector_12                                       .build/obj_ergodox_ez_default/common/avr/suspend.o
                                                  /usr/local/Cellar/avr-gcc/8.3.0/lib/avr-gcc/8/gcc/avr/8.3.0/../../../../../../avr/lib/avr5/crtatmega32u4.o
__vector_13                                       /usr/local/Cellar/avr-gcc/8.3.0/lib/avr-gcc/8/gcc/avr/8.3.0/../../../../../../avr/lib/avr5/crtatmega32u4.o
__vector_14                                       /usr/local/Cellar/avr-gcc/8.3.0/lib/avr-gcc/8/gcc/avr/8.3.0/../../../../../../avr/lib/avr5/crtatmega32u4.o
__vector_15                                       /usr/local/Cellar/avr-gcc/8.3.0/lib/avr-gcc/8/gcc/avr/8.3.0/../../../../../../avr/lib/avr5/crtatmega32u4.o
__vector_16                                       /usr/local/Cellar/avr-gcc/8.3.0/lib/avr-gcc/8/gcc/avr/8.3.0/../../../../../../avr/lib/avr5/crtatmega32u4.o
__vector_17                                       /usr/local/Cellar/avr-gcc/8.3.0/lib/avr-gcc/8/gcc/avr/8.3.0/../../../../../../avr/lib/avr5/crtatmega32u4.o
__vector_18                                       /usr/local/Cellar/avr-gcc/8.3.0/lib/avr-gcc/8/gcc/avr/8.3.0/../../../../../../avr/lib/avr5/crtatmega32u4.o
__vector_19                                       /usr/local/Cellar/avr-gcc/8.3.0/lib/avr-gcc/8/gcc/avr/8.3.0/../../../../../../avr/lib/avr5/crtatmega32u4.o
__vector_2                                        /usr/local/Cellar/avr-gcc/8.3.0/lib/avr-gcc/8/gcc/avr/8.3.0/../../../../../../avr/lib/avr5/crtatmega32u4.o
__vector_20                                       /usr/local/Cellar/avr-gcc/8.3.0/lib/avr-gcc/8/gcc/avr/8.3.0/../../../../../../avr/lib/avr5/crtatmega32u4.o
__vector_21                                       .build/obj_ergodox_ez_default/common/avr/timer.o
                                                  /usr/local/Cellar/avr-gcc/8.3.0/lib/avr-gcc/8/gcc/avr/8.3.0/../../../../../../avr/lib/avr5/crtatmega32u4.o
__vector_22                                       /usr/local/Cellar/avr-gcc/8.3.0/lib/avr-gcc/8/gcc/avr/8.3.0/../../../../../../avr/lib/avr5/crtatmega32u4.o
__vector_23                                       /usr/local/Cellar/avr-gcc/8.3.0/lib/avr-gcc/8/gcc/avr/8.3.0/../../../../../../avr/lib/avr5/crtatmega32u4.o
__vector_24                                       /usr/local/Cellar/avr-gcc/8.3.0/lib/avr-gcc/8/gcc/avr/8.3.0/../../../../../../avr/lib/avr5/crtatmega32u4.o
__vector_25                                       /usr/local/Cellar/avr-gcc/8.3.0/lib/avr-gcc/8/gcc/avr/8.3.0/../../../../../../avr/lib/avr5/crtatmega32u4.o
__vector_26                                       /usr/local/Cellar/avr-gcc/8.3.0/lib/avr-gcc/8/gcc/avr/8.3.0/../../../../../../avr/lib/avr5/crtatmega32u4.o
__vector_27                                       /usr/local/Cellar/avr-gcc/8.3.0/lib/avr-gcc/8/gcc/avr/8.3.0/../../../../../../avr/lib/avr5/crtatmega32u4.o
__vector_28                                       /usr/local/Cellar/avr-gcc/8.3.0/lib/avr-gcc/8/gcc/avr/8.3.0/../../../../../../avr/lib/avr5/crtatmega32u4.o
__vector_29                                       /usr/local/Cellar/avr-gcc/8.3.0/lib/avr-gcc/8/gcc/avr/8.3.0/../../../../../../avr/lib/avr5/crtatmega32u4.o
__vector_3                                        /usr/local/Cellar/avr-gcc/8.3.0/lib/avr-gcc/8/gcc/avr/8.3.0/../../../../../../avr/lib/avr5/crtatmega32u4.o
__vector_30                                       /usr/local/Cellar/avr-gcc/8.3.0/lib/avr-gcc/8/gcc/avr/8.3.0/../../../../../../avr/lib/avr5/crtatmega32u4.o
__vector_31                                       /usr/local/Cellar/avr-gcc/8.3.0/lib/avr-gcc/8/gcc/avr/8.3.0/../../../../../../avr/lib/avr5/crtatmega32u4.o
__vector_32                                       /usr/local/Cellar/avr-gcc/8.3.0/lib/avr-gcc/8/gcc/avr/8.3.0/../../../../../../avr/lib/avr5/crtatmega32u4.o
__vector_33                                       /usr/local/Cellar/avr-gcc/8.3.0/lib/avr-gcc/8/gcc/avr/8.3.0/../../../../../../avr/lib/avr5/crtatmega32u4.o
__vector_34                                       /usr/local/Cellar/avr-gcc/8.3.0/lib/avr-gcc/8/gcc/avr/8.3.0/../../../../../../avr/lib/avr5/crtatmega32u4.o
__vector_35                                       /usr/local/Cellar/avr-gcc/8.3.0/lib/avr-gcc/8/gcc/avr/8.3.0/../../../../../../avr/lib/avr5/crtatmega32u4.o
__vector_36                                       /usr/local/Cellar/avr-gcc/8.3.0/lib/avr-gcc/8/gcc/avr/8.3.0/../../../../../../avr/lib/avr5/crtatmega32u4.o
__vector_37                                       /usr/local/Cellar/avr-gcc/8.3.0/lib/avr-gcc/8/gcc/avr/8.3.0/../../../../../../avr/lib/avr5/crtatmega32u4.o
__vector_38                                       /usr/local/Cellar/avr-gcc/8.3.0/lib/avr-gcc/8/gcc/avr/8.3.0/../../../../../../avr/lib/avr5/crtatmega32u4.o
__vector_39                                       /usr/local/Cellar/avr-gcc/8.3.0/lib/avr-gcc/8/gcc/avr/8.3.0/../../../../../../avr/lib/avr5/crtatmega32u4.o
__vector_4                                        /usr/local/Cellar/avr-gcc/8.3.0/lib/avr-gcc/8/gcc/avr/8.3.0/../../../../../../avr/lib/avr5/crtatmega32u4.o
__vector_40                                       /usr/local/Cellar/avr-gcc/8.3.0/lib/avr-gcc/8/gcc/avr/8.3.0/../../../../../../avr/lib/avr5/crtatmega32u4.o
__vector_41                                       /usr/local/Cellar/avr-gcc/8.3.0/lib/avr-gcc/8/gcc/avr/8.3.0/../../../../../../avr/lib/avr5/crtatmega32u4.o
__vector_42                                       /usr/local/Cellar/avr-gcc/8.3.0/lib/avr-gcc/8/gcc/avr/8.3.0/../../../../../../avr/lib/avr5/crtatmega32u4.o
__vector_5                                        /usr/local/Cellar/avr-gcc/8.3.0/lib/avr-gcc/8/gcc/avr/8.3.0/../../../../../../avr/lib/avr5/crtatmega32u4.o
__vector_6                                        /usr/local/Cellar/avr-gcc/8.3.0/lib/avr-gcc/8/gcc/avr/8.3.0/../../../../../../avr/lib/avr5/crtatmega32u4.o
__vector_7                                        /usr/local/Cellar/avr-gcc/8.3.0/lib/avr-gcc/8/gcc/avr/8.3.0/../../../../../../avr/lib/avr5/crtatmega32u4.o
__vector_8                                        /usr/local/Cellar/avr-gcc/8.3.0/lib/avr-gcc/8/gcc/avr/8.3.0/../../../../../../avr/lib/avr5/crtatmega32u4.o
__vector_9                                        /usr/local/Cellar/avr-gcc/8.3.0/lib/avr-gcc/8/gcc/avr/8.3.0/../../../../../../avr/lib/avr5/crtatmega32u4.o
__vector_default                                  /usr/local/Cellar/avr-gcc/8.3.0/lib/avr-gcc/8/gcc/avr/8.3.0/../../../../../../avr/lib/avr5/crtatmega32u4.o
__vectors                                         /usr/local/Cellar/avr-gcc/8.3.0/lib/avr-gcc/8/gcc/avr/8.3.0/../../../../../../avr/lib/avr5/crtatmega32u4.o
__xprintf                                         .build/obj_ergodox_ez_default/common/avr/xprintf.o
_div                                              /usr/local/Cellar/avr-gcc/8.3.0/lib/avr-gcc/8/gcc/avr/8.3.0/avr5/libgcc.a(_divmodhi4.o)
_exit                                             /usr/local/Cellar/avr-gcc/8.3.0/lib/avr-gcc/8/gcc/avr/8.3.0/avr5/libgcc.a(_exit.o)
action_exec                                       .build/obj_ergodox_ez_default/common/action.o
                                                  .build/obj_ergodox_ez_default/common/keyboard.o
action_for_key                                    .build/obj_ergodox_ez_default/quantum/keymap_common.o
                                                  .build/obj_ergodox_ez_default/common/action_layer.o
action_function                                   .build/obj_ergodox_ez_default/quantum/keymap_common.o
                                                  .build/obj_ergodox_ez_default/common/action.o
action_get_macro                                  .build/obj_ergodox_ez_default/quantum/keymap_common.o
                                                  .build/obj_ergodox_ez_default/common/action.o
action_macro_play                                 .build/obj_ergodox_ez_default/common/action_macro.o
                                                  .build/obj_ergodox_ez_default/common/action.o
action_tapping_process                            .build/obj_ergodox_ez_default/common/action_tapping.o
                                                  .build/obj_ergodox_ez_default/common/action.o
add_key                                           .build/obj_ergodox_ez_default/common/action_util.o
                                                  .build/obj_ergodox_ez_default/common/action.o
                                                  .build/obj_ergodox_ez_default/quantum/quantum.o
add_key_bit                                       .build/obj_ergodox_ez_default/common/report.o
add_key_byte                                      .build/obj_ergodox_ez_default/common/report.o
add_key_to_report                                 .build/obj_ergodox_ez_default/common/report.o
                                                  .build/obj_ergodox_ez_default/common/action_util.o
add_macro_mods                                    .build/obj_ergodox_ez_default/common/action_util.o
                                                  .build/obj_ergodox_ez_default/common/action_macro.o
add_mods                                          .build/obj_ergodox_ez_default/common/action_util.o
                                                  .build/obj_ergodox_ez_default/common/action.o
add_weak_mods                                     .build/obj_ergodox_ez_default/common/action_util.o
                                                  .build/obj_ergodox_ez_default/common/action.o
                                                  .build/obj_ergodox_ez_default/quantum/quantum.o
animation_status                                  .build/obj_ergodox_ez_default/quantum/rgblight.o
api_send_unicode                                  .build/obj_ergodox_ez_default/quantum/quantum.o
ascii_to_altgr_lut                                .build/obj_ergodox_ez_default/quantum/quantum.o
ascii_to_keycode_lut                              .build/obj_ergodox_ez_default/quantum/quantum.o
ascii_to_shift_lut                                .build/obj_ergodox_ez_default/quantum/quantum.o
auto_detect_output                                .build/obj_ergodox_ez_default/outputselect.o
backlight_init_ports                              .build/obj_ergodox_ez_default/quantum/quantum.o
backlight_set                                     .build/obj_ergodox_ez_default/quantum/quantum.o
biton                                             .build/obj_ergodox_ez_default/common/util.o
                                                  .build/obj_ergodox_ez_default/common/report.o
biton16                                           .build/obj_ergodox_ez_default/common/util.o
biton32                                           .build/obj_ergodox_ez_default/common/util.o
                                                  .build/obj_ergodox_ez_default/keyboards/ergodox_ez/keymaps/default/keymap.o
bitpop                                            .build/obj_ergodox_ez_default/common/util.o
                                                  .build/obj_ergodox_ez_default/common/action_util.o
bitpop16                                          .build/obj_ergodox_ez_default/common/util.o
                                                  .build/obj_ergodox_ez_default/matrix.o
bitpop32                                          .build/obj_ergodox_ez_default/common/util.o
bitrev                                            .build/obj_ergodox_ez_default/common/util.o
bitrev16                                          .build/obj_ergodox_ez_default/common/util.o
bitrev32                                          .build/obj_ergodox_ez_default/common/util.o
bootloader_jump                                   .build/obj_ergodox_ez_default/common/avr/bootloader.o
                                                  .build/obj_ergodox_ez_default/common/command.o
                                                  .build/obj_ergodox_ez_default/quantum/quantum.o
bootloader_jump_after_watchdog_reset              .build/obj_ergodox_ez_default/common/avr/bootloader.o
bootmagic_lite                                    .build/obj_ergodox_ez_default/quantum/quantum.o
clear_keyboard                                    .build/obj_ergodox_ez_default/common/action.o
                                                  .build/obj_ergodox_ez_default/lufa.o
                                                  .build/obj_ergodox_ez_default/common/command.o
                                                  .build/obj_ergodox_ez_default/common/avr/suspend.o
                                                  .build/obj_ergodox_ez_default/common/action_tapping.o
                                                  .build/obj_ergodox_ez_default/quantum/quantum.o
clear_keyboard_but_mods                           .build/obj_ergodox_ez_default/common/action.o
clear_keyboard_but_mods_and_keys                  .build/obj_ergodox_ez_default/common/action.o
                                                  .build/obj_ergodox_ez_default/common/action_layer.o
clear_keys                                        .build/obj_ergodox_ez_default/common/action_util.o
                                                  .build/obj_ergodox_ez_default/common/action.o
clear_keys_from_report                            .build/obj_ergodox_ez_default/common/report.o
                                                  .build/obj_ergodox_ez_default/common/action_util.o
clear_macro_mods                                  .build/obj_ergodox_ez_default/common/action_util.o
                                                  .build/obj_ergodox_ez_default/common/action.o
clear_mods                                        .build/obj_ergodox_ez_default/common/action_util.o
                                                  .build/obj_ergodox_ez_default/common/action.o
                                                  .build/obj_ergodox_ez_default/quantum/process_keycode/process_unicode_common.o
clear_oneshot_layer_state                         .build/obj_ergodox_ez_default/common/action_util.o
                                                  .build/obj_ergodox_ez_default/common/action.o
clear_oneshot_locked_mods                         .build/obj_ergodox_ez_default/common/action_util.o
clear_oneshot_mods                                .build/obj_ergodox_ez_default/common/action_util.o
                                                  .build/obj_ergodox_ez_default/common/action.o
clear_weak_mods                                   .build/obj_ergodox_ez_default/common/action_util.o
                                                  .build/obj_ergodox_ez_default/common/action.o
command_console_extra                             .build/obj_ergodox_ez_default/common/command.o
command_extra                                     .build/obj_ergodox_ez_default/common/command.o
command_proc                                      .build/obj_ergodox_ez_default/common/command.o
                                                  .build/obj_ergodox_ez_default/common/action.o
command_state                                     .build/obj_ergodox_ez_default/common/command.o
cycle_unicode_input_mode                          .build/obj_ergodox_ez_default/quantum/process_keycode/process_unicode_common.o
debounce                                          .build/obj_ergodox_ez_default/quantum/debounce/eager_pr.o
                                                  .build/obj_ergodox_ez_default/matrix.o
debounce_active                                   .build/obj_ergodox_ez_default/quantum/debounce/eager_pr.o
debounce_init                                     .build/obj_ergodox_ez_default/quantum/debounce/eager_pr.o
                                                  .build/obj_ergodox_ez_default/matrix.o
debug_action                                      .build/obj_ergodox_ez_default/common/action.o
debug_config                                      .build/obj_ergodox_ez_default/common/debug.o
                                                  .build/obj_ergodox_ez_default/common/command.o
                                                  .build/obj_ergodox_ez_default/common/magic.o
                                                  .build/obj_ergodox_ez_default/common/keyboard.o
                                                  .build/obj_ergodox_ez_default/quantum/rgblight.o
                                                  .build/obj_ergodox_ez_default/quantum/quantum.o
debug_event                                       .build/obj_ergodox_ez_default/common/action.o
                                                  .build/obj_ergodox_ez_default/common/action_tapping.o
debug_record                                      .build/obj_ergodox_ez_default/common/action.o
                                                  .build/obj_ergodox_ez_default/common/action_tapping.o
default_layer_and                                 .build/obj_ergodox_ez_default/common/action_layer.o
                                                  .build/obj_ergodox_ez_default/common/action.o
default_layer_debug                               .build/obj_ergodox_ez_default/common/action_layer.o
                                                  .build/obj_ergodox_ez_default/common/action.o
default_layer_or                                  .build/obj_ergodox_ez_default/common/action_layer.o
                                                  .build/obj_ergodox_ez_default/common/action.o
default_layer_set                                 .build/obj_ergodox_ez_default/common/action_layer.o
                                                  .build/obj_ergodox_ez_default/common/command.o
                                                  .build/obj_ergodox_ez_default/common/magic.o
                                                  .build/obj_ergodox_ez_default/quantum/quantum.o
default_layer_state                               .build/obj_ergodox_ez_default/common/action_layer.o
                                                  .build/obj_ergodox_ez_default/common/eeconfig.o
default_layer_state_set_kb                        .build/obj_ergodox_ez_default/common/action_layer.o
default_layer_state_set_user                      .build/obj_ergodox_ez_default/common/action_layer.o
default_layer_xor                                 .build/obj_ergodox_ez_default/common/action_layer.o
                                                  .build/obj_ergodox_ez_default/common/action.o
del_key                                           .build/obj_ergodox_ez_default/common/action_util.o
                                                  .build/obj_ergodox_ez_default/common/action.o
                                                  .build/obj_ergodox_ez_default/quantum/quantum.o
del_key_bit                                       .build/obj_ergodox_ez_default/common/report.o
del_key_byte                                      .build/obj_ergodox_ez_default/common/report.o
del_key_from_report                               .build/obj_ergodox_ez_default/common/report.o
                                                  .build/obj_ergodox_ez_default/common/action_util.o
del_macro_mods                                    .build/obj_ergodox_ez_default/common/action_util.o
                                                  .build/obj_ergodox_ez_default/common/action_macro.o
del_mods                                          .build/obj_ergodox_ez_default/common/action_util.o
                                                  .build/obj_ergodox_ez_default/common/action.o
del_weak_mods                                     .build/obj_ergodox_ez_default/common/action_util.o
                                                  .build/obj_ergodox_ez_default/common/action.o
                                                  .build/obj_ergodox_ez_default/quantum/quantum.o
desired_output                                    .build/obj_ergodox_ez_default/outputselect.o
disable_action_cache                              .build/obj_ergodox_ez_default/common/action.o
                                                  .build/obj_ergodox_ez_default/common/action_layer.o
                                                  .build/obj_ergodox_ez_default/quantum/quantum.o
disable_jtag                                      .build/obj_ergodox_ez_default/common/keyboard.o
eeconfig_debug_rgblight                           .build/obj_ergodox_ez_default/quantum/rgblight.o
eeconfig_disable                                  .build/obj_ergodox_ez_default/common/eeconfig.o
                                                  .build/obj_ergodox_ez_default/quantum/quantum.o
eeconfig_enable                                   .build/obj_ergodox_ez_default/common/eeconfig.o
eeconfig_init                                     .build/obj_ergodox_ez_default/common/eeconfig.o
                                                  .build/obj_ergodox_ez_default/common/command.o
                                                  .build/obj_ergodox_ez_default/common/magic.o
                                                  .build/obj_ergodox_ez_default/quantum/rgblight.o
                                                  .build/obj_ergodox_ez_default/quantum/quantum.o
                                                  .build/obj_ergodox_ez_default/keyboards/ergodox_ez/keymaps/default/keymap.o
eeconfig_init_kb                                  .build/obj_ergodox_ez_default/common/eeconfig.o
eeconfig_init_quantum                             .build/obj_ergodox_ez_default/common/eeconfig.o
eeconfig_init_user                                .build/obj_ergodox_ez_default/common/eeconfig.o
eeconfig_is_disabled                              .build/obj_ergodox_ez_default/common/eeconfig.o
eeconfig_is_enabled                               .build/obj_ergodox_ez_default/common/eeconfig.o
                                                  .build/obj_ergodox_ez_default/common/magic.o
                                                  .build/obj_ergodox_ez_default/quantum/rgblight.o
                                                  .build/obj_ergodox_ez_default/quantum/quantum.o
eeconfig_read_audio                               .build/obj_ergodox_ez_default/common/eeconfig.o
eeconfig_read_backlight                           .build/obj_ergodox_ez_default/common/eeconfig.o
eeconfig_read_debug                               .build/obj_ergodox_ez_default/common/eeconfig.o
                                                  .build/obj_ergodox_ez_default/common/magic.o
eeconfig_read_default_layer                       .build/obj_ergodox_ez_default/common/eeconfig.o
                                                  .build/obj_ergodox_ez_default/common/magic.o
eeconfig_read_haptic                              .build/obj_ergodox_ez_default/common/eeconfig.o
eeconfig_read_kb                                  .build/obj_ergodox_ez_default/common/eeconfig.o
eeconfig_read_keymap                              .build/obj_ergodox_ez_default/common/eeconfig.o
                                                  .build/obj_ergodox_ez_default/common/magic.o
                                                  .build/obj_ergodox_ez_default/quantum/quantum.o
eeconfig_read_rgblight                            .build/obj_ergodox_ez_default/quantum/rgblight.o
eeconfig_read_user                                .build/obj_ergodox_ez_default/common/eeconfig.o
eeconfig_update_audio                             .build/obj_ergodox_ez_default/common/eeconfig.o
eeconfig_update_backlight                         .build/obj_ergodox_ez_default/common/eeconfig.o
eeconfig_update_debug                             .build/obj_ergodox_ez_default/common/eeconfig.o
eeconfig_update_default_layer                     .build/obj_ergodox_ez_default/common/eeconfig.o
                                                  .build/obj_ergodox_ez_default/quantum/quantum.o
eeconfig_update_haptic                            .build/obj_ergodox_ez_default/common/eeconfig.o
eeconfig_update_kb                                .build/obj_ergodox_ez_default/common/eeconfig.o
eeconfig_update_keymap                            .build/obj_ergodox_ez_default/common/eeconfig.o
                                                  .build/obj_ergodox_ez_default/quantum/quantum.o
eeconfig_update_rgblight                          .build/obj_ergodox_ez_default/quantum/rgblight.o
eeconfig_update_rgblight_default                  .build/obj_ergodox_ez_default/quantum/rgblight.o
eeconfig_update_user                              .build/obj_ergodox_ez_default/common/eeconfig.o
eeprom_read_block                                 /usr/local/Cellar/avr-gcc/8.3.0/lib/avr-gcc/8/gcc/avr/8.3.0/../../../../../../avr/lib/avr5/libatmega32u4.a(eerd_block.o)
eeprom_read_blraw                                 /usr/local/Cellar/avr-gcc/8.3.0/lib/avr-gcc/8/gcc/avr/8.3.0/../../../../../../avr/lib/avr5/libatmega32u4.a(eerd_block.o)
                                                  /usr/local/Cellar/avr-gcc/8.3.0/lib/avr-gcc/8/gcc/avr/8.3.0/../../../../../../avr/lib/avr5/libatmega32u4.a(eerd_word.o)
                                                  /usr/local/Cellar/avr-gcc/8.3.0/lib/avr-gcc/8/gcc/avr/8.3.0/../../../../../../avr/lib/avr5/libatmega32u4.a(eerd_dword.o)
eeprom_read_byte                                  /usr/local/Cellar/avr-gcc/8.3.0/lib/avr-gcc/8/gcc/avr/8.3.0/../../../../../../avr/lib/avr5/libatmega32u4.a(eerd_byte.o)
                                                  .build/obj_ergodox_ez_default/lib/lufa/LUFA/Drivers/USB/Core/AVR8/EndpointStream_AVR8.o
                                                  .build/obj_ergodox_ez_default/common/eeconfig.o
                                                  .build/obj_ergodox_ez_default/quantum/process_keycode/process_unicode_common.o
eeprom_read_dword                                 /usr/local/Cellar/avr-gcc/8.3.0/lib/avr-gcc/8/gcc/avr/8.3.0/../../../../../../avr/lib/avr5/libatmega32u4.a(eerd_dword.o)
                                                  .build/obj_ergodox_ez_default/common/eeconfig.o
                                                  .build/obj_ergodox_ez_default/quantum/rgblight.o
eeprom_read_float                                 /usr/local/Cellar/avr-gcc/8.3.0/lib/avr-gcc/8/gcc/avr/8.3.0/../../../../../../avr/lib/avr5/libatmega32u4.a(eerd_dword.o)
eeprom_read_word                                  /usr/local/Cellar/avr-gcc/8.3.0/lib/avr-gcc/8/gcc/avr/8.3.0/../../../../../../avr/lib/avr5/libatmega32u4.a(eerd_word.o)
                                                  .build/obj_ergodox_ez_default/common/eeconfig.o
eeprom_update_byte                                /usr/local/Cellar/avr-gcc/8.3.0/lib/avr-gcc/8/gcc/avr/8.3.0/../../../../../../avr/lib/avr5/libatmega32u4.a(eeupd_byte.o)
                                                  /usr/local/Cellar/avr-gcc/8.3.0/lib/avr-gcc/8/gcc/avr/8.3.0/../../../../../../avr/lib/avr5/libatmega32u4.a(eeupd_word.o)
                                                  /usr/local/Cellar/avr-gcc/8.3.0/lib/avr-gcc/8/gcc/avr/8.3.0/../../../../../../avr/lib/avr5/libatmega32u4.a(eeupd_dword.o)
                                                  .build/obj_ergodox_ez_default/lib/lufa/LUFA/Drivers/USB/Core/AVR8/EndpointStream_AVR8.o
                                                  .build/obj_ergodox_ez_default/common/eeconfig.o
                                                  .build/obj_ergodox_ez_default/quantum/process_keycode/process_unicode_common.o
eeprom_update_dword                               /usr/local/Cellar/avr-gcc/8.3.0/lib/avr-gcc/8/gcc/avr/8.3.0/../../../../../../avr/lib/avr5/libatmega32u4.a(eeupd_dword.o)
                                                  .build/obj_ergodox_ez_default/common/eeconfig.o
                                                  .build/obj_ergodox_ez_default/quantum/rgblight.o
eeprom_update_float                               /usr/local/Cellar/avr-gcc/8.3.0/lib/avr-gcc/8/gcc/avr/8.3.0/../../../../../../avr/lib/avr5/libatmega32u4.a(eeupd_dword.o)
eeprom_update_r18                                 /usr/local/Cellar/avr-gcc/8.3.0/lib/avr-gcc/8/gcc/avr/8.3.0/../../../../../../avr/lib/avr5/libatmega32u4.a(eeupd_byte.o)
                                                  /usr/local/Cellar/avr-gcc/8.3.0/lib/avr-gcc/8/gcc/avr/8.3.0/../../../../../../avr/lib/avr5/libatmega32u4.a(eeupd_word.o)
                                                  /usr/local/Cellar/avr-gcc/8.3.0/lib/avr-gcc/8/gcc/avr/8.3.0/../../../../../../avr/lib/avr5/libatmega32u4.a(eeupd_dword.o)
eeprom_update_word                                /usr/local/Cellar/avr-gcc/8.3.0/lib/avr-gcc/8/gcc/avr/8.3.0/../../../../../../avr/lib/avr5/libatmega32u4.a(eeupd_word.o)
                                                  .build/obj_ergodox_ez_default/common/eeconfig.o
ergodox_blink_all_leds                            .build/obj_ergodox_ez_default/keyboards/ergodox_ez/ergodox_ez.o
                                                  .build/obj_ergodox_ez_default/matrix.o
ergodox_board_led_off                             .build/obj_ergodox_ez_default/keyboards/ergodox_ez/ergodox_ez.o
                                                  .build/obj_ergodox_ez_default/keyboards/ergodox_ez/keymaps/default/keymap.o
ergodox_board_led_on                              .build/obj_ergodox_ez_default/keyboards/ergodox_ez/ergodox_ez.o
ergodox_led_all_off                               .build/obj_ergodox_ez_default/keyboards/ergodox_ez/ergodox_ez.o
ergodox_led_all_on                                .build/obj_ergodox_ez_default/keyboards/ergodox_ez/ergodox_ez.o
ergodox_led_all_set                               .build/obj_ergodox_ez_default/keyboards/ergodox_ez/ergodox_ez.o
ergodox_right_led_1_off                           .build/obj_ergodox_ez_default/keyboards/ergodox_ez/ergodox_ez.o
                                                  .build/obj_ergodox_ez_default/keyboards/ergodox_ez/keymaps/default/keymap.o
ergodox_right_led_1_on                            .build/obj_ergodox_ez_default/keyboards/ergodox_ez/ergodox_ez.o
                                                  .build/obj_ergodox_ez_default/keyboards/ergodox_ez/keymaps/default/keymap.o
ergodox_right_led_1_set                           .build/obj_ergodox_ez_default/keyboards/ergodox_ez/ergodox_ez.o
ergodox_right_led_2_off                           .build/obj_ergodox_ez_default/keyboards/ergodox_ez/ergodox_ez.o
                                                  .build/obj_ergodox_ez_default/keyboards/ergodox_ez/keymaps/default/keymap.o
ergodox_right_led_2_on                            .build/obj_ergodox_ez_default/keyboards/ergodox_ez/ergodox_ez.o
                                                  .build/obj_ergodox_ez_default/keyboards/ergodox_ez/keymaps/default/keymap.o
ergodox_right_led_2_set                           .build/obj_ergodox_ez_default/keyboards/ergodox_ez/ergodox_ez.o
ergodox_right_led_3_off                           .build/obj_ergodox_ez_default/keyboards/ergodox_ez/ergodox_ez.o
                                                  .build/obj_ergodox_ez_default/keyboards/ergodox_ez/keymaps/default/keymap.o
ergodox_right_led_3_on                            .build/obj_ergodox_ez_default/keyboards/ergodox_ez/ergodox_ez.o
                                                  .build/obj_ergodox_ez_default/keyboards/ergodox_ez/keymaps/default/keymap.o
ergodox_right_led_3_set                           .build/obj_ergodox_ez_default/keyboards/ergodox_ez/ergodox_ez.o
ergodox_right_led_off                             .build/obj_ergodox_ez_default/keyboards/ergodox_ez/ergodox_ez.o
ergodox_right_led_on                              .build/obj_ergodox_ez_default/keyboards/ergodox_ez/ergodox_ez.o
ergodox_right_led_set                             .build/obj_ergodox_ez_default/keyboards/ergodox_ez/ergodox_ez.o
exit                                              /usr/local/Cellar/avr-gcc/8.3.0/lib/avr-gcc/8/gcc/avr/8.3.0/avr5/libgcc.a(_exit.o)
                                                  /usr/local/Cellar/avr-gcc/8.3.0/lib/avr-gcc/8/gcc/avr/8.3.0/../../../../../../avr/lib/avr5/crtatmega32u4.o
fn_actions                                        .build/obj_ergodox_ez_default/quantum/keymap_common.o
free                                              /usr/local/Cellar/avr-gcc/8.3.0/lib/avr-gcc/8/gcc/avr/8.3.0/../../../../../../avr/lib/avr5/libc.a(malloc.o)
get_event_keycode                                 .build/obj_ergodox_ez_default/quantum/quantum.o
get_first_key                                     .build/obj_ergodox_ez_default/common/report.o
get_macro_mods                                    .build/obj_ergodox_ez_default/common/action_util.o
get_mods                                          .build/obj_ergodox_ez_default/common/action_util.o
                                                  .build/obj_ergodox_ez_default/common/command.o
                                                  .build/obj_ergodox_ez_default/quantum/process_keycode/process_unicode_common.o
                                                  .build/obj_ergodox_ez_default/quantum/quantum.o
get_oneshot_layer                                 .build/obj_ergodox_ez_default/common/action_util.o
                                                  .build/obj_ergodox_ez_default/common/action.o
get_oneshot_layer_state                           .build/obj_ergodox_ez_default/common/action_util.o
                                                  .build/obj_ergodox_ez_default/common/action.o
get_oneshot_locked_mods                           .build/obj_ergodox_ez_default/common/action_util.o
get_oneshot_mods                                  .build/obj_ergodox_ez_default/common/action_util.o
                                                  .build/obj_ergodox_ez_default/common/action.o
get_record_keycode                                .build/obj_ergodox_ez_default/quantum/quantum.o
get_tapping_term                                  .build/obj_ergodox_ez_default/common/action_tapping.o
get_unicode_input_mode                            .build/obj_ergodox_ez_default/quantum/process_keycode/process_unicode_common.o
get_usb_descriptor                                .build/obj_ergodox_ez_default/usb_descriptor.o
                                                  .build/obj_ergodox_ez_default/lufa.o
get_weak_mods                                     .build/obj_ergodox_ez_default/common/action_util.o
hand_swap_config                                  .build/obj_ergodox_ez_default/keyboards/ergodox_ez/ergodox_ez.o
                                                  .build/obj_ergodox_ez_default/common/action.o
has_anykey                                        .build/obj_ergodox_ez_default/common/report.o
                                                  .build/obj_ergodox_ez_default/common/action_util.o
has_anymod                                        .build/obj_ergodox_ez_default/common/action_util.o
has_oneshot_mods_timed_out                        .build/obj_ergodox_ez_default/common/action_util.o
hex_to_keycode                                    .build/obj_ergodox_ez_default/quantum/quantum.o
host_consumer_send                                .build/obj_ergodox_ez_default/common/host.o
                                                  .build/obj_ergodox_ez_default/common/action.o
host_get_driver                                   .build/obj_ergodox_ez_default/common/host.o
host_keyboard_leds                                .build/obj_ergodox_ez_default/common/host.o
                                                  .build/obj_ergodox_ez_default/common/avr/suspend.o
                                                  .build/obj_ergodox_ez_default/common/action.o
                                                  .build/obj_ergodox_ez_default/common/keyboard.o
host_keyboard_send                                .build/obj_ergodox_ez_default/common/host.o
                                                  .build/obj_ergodox_ez_default/common/action_util.o
host_last_consumer_report                         .build/obj_ergodox_ez_default/common/host.o
host_last_system_report                           .build/obj_ergodox_ez_default/common/host.o
host_mouse_send                                   .build/obj_ergodox_ez_default/common/host.o
                                                  .build/obj_ergodox_ez_default/common/mousekey.o
host_set_driver                                   .build/obj_ergodox_ez_default/common/host.o
                                                  .build/obj_ergodox_ez_default/lufa.o
host_system_send                                  .build/obj_ergodox_ez_default/common/host.o
                                                  .build/obj_ergodox_ez_default/common/action.o
hsv_to_rgb                                        .build/obj_ergodox_ez_default/quantum/color.o
                                                  .build/obj_ergodox_ez_default/quantum/rgblight.o
i2c_init                                          .build/obj_ergodox_ez_default/i2c_master.o
                                                  .build/obj_ergodox_ez_default/keyboards/ergodox_ez/ergodox_ez.o
i2c_initialized                                   .build/obj_ergodox_ez_default/keyboards/ergodox_ez/ergodox_ez.o
i2c_readReg                                       .build/obj_ergodox_ez_default/i2c_master.o
i2c_read_ack                                      .build/obj_ergodox_ez_default/i2c_master.o
i2c_read_nack                                     .build/obj_ergodox_ez_default/i2c_master.o
                                                  .build/obj_ergodox_ez_default/matrix.o
i2c_receive                                       .build/obj_ergodox_ez_default/i2c_master.o
i2c_start                                         .build/obj_ergodox_ez_default/i2c_master.o
                                                  .build/obj_ergodox_ez_default/keyboards/ergodox_ez/ergodox_ez.o
                                                  .build/obj_ergodox_ez_default/matrix.o
i2c_stop                                          .build/obj_ergodox_ez_default/i2c_master.o
                                                  .build/obj_ergodox_ez_default/keyboards/ergodox_ez/ergodox_ez.o
                                                  .build/obj_ergodox_ez_default/matrix.o
i2c_transmit                                      .build/obj_ergodox_ez_default/i2c_master.o
i2c_write                                         .build/obj_ergodox_ez_default/i2c_master.o
                                                  .build/obj_ergodox_ez_default/keyboards/ergodox_ez/ergodox_ez.o
                                                  .build/obj_ergodox_ez_default/matrix.o
i2c_writeReg                                      .build/obj_ergodox_ez_default/i2c_master.o
init_mcp23018                                     .build/obj_ergodox_ez_default/keyboards/ergodox_ez/ergodox_ez.o
                                                  .build/obj_ergodox_ez_default/matrix.o
is_keyboard_master                                .build/obj_ergodox_ez_default/common/keyboard.o
is_oneshot_layer_active                           .build/obj_ergodox_ez_default/common/action_util.o
                                                  .build/obj_ergodox_ez_default/common/action.o
is_rgblight_initialized                           .build/obj_ergodox_ez_default/quantum/rgblight.o
is_tap_action                                     .build/obj_ergodox_ez_default/common/action.o
is_tap_key                                        .build/obj_ergodox_ez_default/common/action.o
                                                  .build/obj_ergodox_ez_default/common/action_tapping.o
keyboard_idle                                     .build/obj_ergodox_ez_default/lufa.o
keyboard_init                                     .build/obj_ergodox_ez_default/common/keyboard.o
                                                  .build/obj_ergodox_ez_default/lufa.o
keyboard_post_init_kb                             .build/obj_ergodox_ez_default/common/keyboard.o
keyboard_post_init_user                           .build/obj_ergodox_ez_default/common/keyboard.o
keyboard_pre_init_kb                              .build/obj_ergodox_ez_default/common/keyboard.o
keyboard_pre_init_user                            .build/obj_ergodox_ez_default/common/keyboard.o
keyboard_protocol                                 .build/obj_ergodox_ez_default/lufa.o
                                                  .build/obj_ergodox_ez_default/common/report.o
                                                  .build/obj_ergodox_ez_default/common/host.o
keyboard_report                                   .build/obj_ergodox_ez_default/common/action_util.o
keyboard_set_leds                                 .build/obj_ergodox_ez_default/common/keyboard.o
keyboard_setup                                    .build/obj_ergodox_ez_default/common/keyboard.o
                                                  .build/obj_ergodox_ez_default/lufa.o
keyboard_task                                     .build/obj_ergodox_ez_default/common/keyboard.o
                                                  .build/obj_ergodox_ez_default/lufa.o
keycode_config                                    .build/obj_ergodox_ez_default/quantum/keycode_config.o
                                                  .build/obj_ergodox_ez_default/quantum/keymap_common.o
keymap_config                                     .build/obj_ergodox_ez_default/common/magic.o
                                                  .build/obj_ergodox_ez_default/lufa.o
                                                  .build/obj_ergodox_ez_default/common/command.o
                                                  .build/obj_ergodox_ez_default/common/report.o
                                                  .build/obj_ergodox_ez_default/common/host.o
                                                  .build/obj_ergodox_ez_default/quantum/keycode_config.o
                                                  .build/obj_ergodox_ez_default/quantum/quantum.o
keymap_function_id_to_action                      .build/obj_ergodox_ez_default/quantum/keymap_common.o
keymap_key_to_keycode                             .build/obj_ergodox_ez_default/quantum/keymap_common.o
                                                  .build/obj_ergodox_ez_default/quantum/quantum.o
keymaps                                           .build/obj_ergodox_ez_default/keyboards/ergodox_ez/keymaps/default/keymap.o
                                                  .build/obj_ergodox_ez_default/quantum/keymap_common.o
layer_and                                         .build/obj_ergodox_ez_default/common/action_layer.o
                                                  .build/obj_ergodox_ez_default/common/action.o
layer_clear                                       .build/obj_ergodox_ez_default/common/action_layer.o
                                                  .build/obj_ergodox_ez_default/common/action.o
layer_debug                                       .build/obj_ergodox_ez_default/common/action_layer.o
                                                  .build/obj_ergodox_ez_default/common/action.o
layer_invert                                      .build/obj_ergodox_ez_default/common/action_layer.o
                                                  .build/obj_ergodox_ez_default/common/action.o
layer_move                                        .build/obj_ergodox_ez_default/common/action_layer.o
                                                  .build/obj_ergodox_ez_default/common/action.o
layer_off                                         .build/obj_ergodox_ez_default/common/action_layer.o
                                                  .build/obj_ergodox_ez_default/common/action_util.o
                                                  .build/obj_ergodox_ez_default/common/action.o
layer_on                                          .build/obj_ergodox_ez_default/common/action_layer.o
                                                  .build/obj_ergodox_ez_default/common/action_util.o
                                                  .build/obj_ergodox_ez_default/common/action.o
layer_or                                          .build/obj_ergodox_ez_default/common/action_layer.o
                                                  .build/obj_ergodox_ez_default/common/action.o
layer_state                                       .build/obj_ergodox_ez_default/common/action_layer.o
                                                  .build/obj_ergodox_ez_default/quantum/quantum.o
layer_state_cmp                                   .build/obj_ergodox_ez_default/common/action_layer.o
layer_state_is                                    .build/obj_ergodox_ez_default/common/action_layer.o
layer_state_set                                   .build/obj_ergodox_ez_default/common/action_layer.o
                                                  .build/obj_ergodox_ez_default/quantum/quantum.o
layer_state_set_kb                                .build/obj_ergodox_ez_default/common/action_layer.o
layer_state_set_user                              .build/obj_ergodox_ez_default/keyboards/ergodox_ez/keymaps/default/keymap.o
layer_switch_get_action                           .build/obj_ergodox_ez_default/common/action_layer.o
                                                  .build/obj_ergodox_ez_default/common/action_tapping.o
                                                  .build/obj_ergodox_ez_default/common/action.o
layer_switch_get_layer                            .build/obj_ergodox_ez_default/common/action_layer.o
                                                  .build/obj_ergodox_ez_default/quantum/quantum.o
layer_xor                                         .build/obj_ergodox_ez_default/common/action_layer.o
                                                  .build/obj_ergodox_ez_default/common/action.o
led                                               .build/obj_ergodox_ez_default/quantum/rgblight.o
led_init_ports                                    .build/obj_ergodox_ez_default/quantum/quantum.o
led_set                                           .build/obj_ergodox_ez_default/quantum/quantum.o
                                                  .build/obj_ergodox_ez_default/common/avr/suspend.o
                                                  .build/obj_ergodox_ez_default/common/action.o
                                                  .build/obj_ergodox_ez_default/common/keyboard.o
led_set_kb                                        .build/obj_ergodox_ez_default/quantum/quantum.o
led_set_user                                      .build/obj_ergodox_ez_default/quantum/quantum.o
lufa_driver                                       .build/obj_ergodox_ez_default/lufa.o
magic                                             .build/obj_ergodox_ez_default/common/magic.o
                                                  .build/obj_ergodox_ez_default/common/keyboard.o
main                                              .build/obj_ergodox_ez_default/lufa.o
                                                  /usr/local/Cellar/avr-gcc/8.3.0/lib/avr-gcc/8/gcc/avr/8.3.0/../../../../../../avr/lib/avr5/crtatmega32u4.o
malloc                                            /usr/local/Cellar/avr-gcc/8.3.0/lib/avr-gcc/8/gcc/avr/8.3.0/../../../../../../avr/lib/avr5/libc.a(malloc.o)
                                                  .build/obj_ergodox_ez_default/quantum/debounce/eager_pr.o
matrix_cols                                       .build/obj_ergodox_ez_default/matrix.o
matrix_get_row                                    .build/obj_ergodox_ez_default/matrix.o
                                                  .build/obj_ergodox_ez_default/common/avr/suspend.o
                                                  .build/obj_ergodox_ez_default/common/keyboard.o
                                                  .build/obj_ergodox_ez_default/quantum/quantum.o
matrix_init                                       .build/obj_ergodox_ez_default/matrix.o
                                                  .build/obj_ergodox_ez_default/common/keyboard.o
matrix_init_kb                                    .build/obj_ergodox_ez_default/keyboards/ergodox_ez/ergodox_ez.o
                                                  .build/obj_ergodox_ez_default/matrix.o
                                                  .build/obj_ergodox_ez_default/quantum/quantum.o
matrix_init_quantum                               .build/obj_ergodox_ez_default/quantum/quantum.o
                                                  .build/obj_ergodox_ez_default/matrix.o
matrix_init_user                                  .build/obj_ergodox_ez_default/keyboards/ergodox_ez/keymaps/default/keymap.o
                                                  .build/obj_ergodox_ez_default/matrix.o
                                                  .build/obj_ergodox_ez_default/keyboards/ergodox_ez/ergodox_ez.o
matrix_is_modified                                .build/obj_ergodox_ez_default/matrix.o
matrix_is_on                                      .build/obj_ergodox_ez_default/matrix.o
matrix_key_count                                  .build/obj_ergodox_ez_default/matrix.o
matrix_power_down                                 .build/obj_ergodox_ez_default/common/avr/suspend.o
matrix_power_up                                   .build/obj_ergodox_ez_default/matrix.o
matrix_print                                      .build/obj_ergodox_ez_default/matrix.o
                                                  .build/obj_ergodox_ez_default/common/keyboard.o
matrix_rows                                       .build/obj_ergodox_ez_default/matrix.o
matrix_scan                                       .build/obj_ergodox_ez_default/matrix.o
                                                  .build/obj_ergodox_ez_default/common/avr/suspend.o
                                                  .build/obj_ergodox_ez_default/common/keyboard.o
                                                  .build/obj_ergodox_ez_default/quantum/quantum.o
matrix_scan_kb                                    .build/obj_ergodox_ez_default/matrix.o
                                                  .build/obj_ergodox_ez_default/quantum/quantum.o
matrix_scan_quantum                               .build/obj_ergodox_ez_default/quantum/quantum.o
                                                  .build/obj_ergodox_ez_default/matrix.o
matrix_scan_user                                  .build/obj_ergodox_ez_default/matrix.o
matrix_setup                                      .build/obj_ergodox_ez_default/common/keyboard.o
mcp23018_status                                   .build/obj_ergodox_ez_default/keyboards/ergodox_ez/ergodox_ez.o
                                                  .build/obj_ergodox_ez_default/matrix.o
memchr                                            /usr/local/Cellar/avr-gcc/8.3.0/lib/avr-gcc/8/gcc/avr/8.3.0/../../../../../../avr/lib/avr5/libc.a(memchr.o)
                                                  .build/obj_ergodox_ez_default/quantum/rgblight.o
memcpy                                            /usr/local/Cellar/avr-gcc/8.3.0/lib/avr-gcc/8/gcc/avr/8.3.0/../../../../../../avr/lib/avr5/libc.a(memcpy.o)
                                                  /usr/local/Cellar/avr-gcc/8.3.0/lib/avr-gcc/8/gcc/avr/8.3.0/../../../../../../avr/lib/avr5/libc.a(memmove.o)
memmove                                           /usr/local/Cellar/avr-gcc/8.3.0/lib/avr-gcc/8/gcc/avr/8.3.0/../../../../../../avr/lib/avr5/libc.a(memmove.o)
                                                  .build/obj_ergodox_ez_default/lib/lufa/LUFA/Drivers/USB/Class/Common/HIDParser.o
mk_delay                                          .build/obj_ergodox_ez_default/common/mousekey.o
                                                  .build/obj_ergodox_ez_default/common/command.o
mk_interval                                       .build/obj_ergodox_ez_default/common/mousekey.o
                                                  .build/obj_ergodox_ez_default/common/command.o
mk_max_speed                                      .build/obj_ergodox_ez_default/common/mousekey.o
                                                  .build/obj_ergodox_ez_default/common/command.o
mk_time_to_max                                    .build/obj_ergodox_ez_default/common/mousekey.o
                                                  .build/obj_ergodox_ez_default/common/command.o
mk_wheel_max_speed                                .build/obj_ergodox_ez_default/common/mousekey.o
                                                  .build/obj_ergodox_ez_default/common/command.o
mk_wheel_time_to_max                              .build/obj_ergodox_ez_default/common/mousekey.o
                                                  .build/obj_ergodox_ez_default/common/command.o
mod_config                                        .build/obj_ergodox_ez_default/quantum/keycode_config.o
                                                  .build/obj_ergodox_ez_default/quantum/keymap_common.o
mousekey_clear                                    .build/obj_ergodox_ez_default/common/mousekey.o
                                                  .build/obj_ergodox_ez_default/common/action.o
mousekey_off                                      .build/obj_ergodox_ez_default/common/mousekey.o
                                                  .build/obj_ergodox_ez_default/common/action.o
mousekey_on                                       .build/obj_ergodox_ez_default/common/mousekey.o
                                                  .build/obj_ergodox_ez_default/common/action.o
mousekey_send                                     .build/obj_ergodox_ez_default/common/mousekey.o
                                                  .build/obj_ergodox_ez_default/common/action.o
mousekey_task                                     .build/obj_ergodox_ez_default/common/mousekey.o
                                                  .build/obj_ergodox_ez_default/common/keyboard.o
numkey2num                                        .build/obj_ergodox_ez_default/common/command.o
oneshot_layer_changed_kb                          .build/obj_ergodox_ez_default/common/action_util.o
oneshot_layer_changed_user                        .build/obj_ergodox_ez_default/common/action_util.o
oneshot_locked_mods_changed_kb                    .build/obj_ergodox_ez_default/common/action_util.o
oneshot_locked_mods_changed_user                  .build/obj_ergodox_ez_default/common/action_util.o
oneshot_mods_changed_kb                           .build/obj_ergodox_ez_default/common/action_util.o
oneshot_mods_changed_user                         .build/obj_ergodox_ez_default/common/action_util.o
perform_space_cadet                               .build/obj_ergodox_ez_default/quantum/process_keycode/process_space_cadet.o
persist_unicode_input_mode                        .build/obj_ergodox_ez_default/quantum/process_keycode/process_unicode_common.o
process_action                                    .build/obj_ergodox_ez_default/common/action.o
process_action_kb                                 .build/obj_ergodox_ez_default/quantum/quantum.o
process_hand_swap                                 .build/obj_ergodox_ez_default/common/action.o
process_record                                    .build/obj_ergodox_ez_default/common/action.o
                                                  .build/obj_ergodox_ez_default/common/action_tapping.o
process_record_kb                                 .build/obj_ergodox_ez_default/quantum/quantum.o
process_record_nocache                            .build/obj_ergodox_ez_default/common/action.o
process_record_quantum                            .build/obj_ergodox_ez_default/quantum/quantum.o
process_record_tap_hint                           .build/obj_ergodox_ez_default/common/action.o
                                                  .build/obj_ergodox_ez_default/common/action_tapping.o
process_record_user                               .build/obj_ergodox_ez_default/keyboards/ergodox_ez/keymaps/default/keymap.o
process_space_cadet                               .build/obj_ergodox_ez_default/quantum/process_keycode/process_space_cadet.o
                                                  .build/obj_ergodox_ez_default/quantum/quantum.o
process_unicode                                   .build/obj_ergodox_ez_default/quantum/process_keycode/process_unicode.o
                                                  .build/obj_ergodox_ez_default/quantum/process_keycode/process_unicode_common.o
process_unicode_common                            .build/obj_ergodox_ez_default/quantum/process_keycode/process_unicode_common.o
                                                  .build/obj_ergodox_ez_default/quantum/quantum.o
read_source_layers_cache                          .build/obj_ergodox_ez_default/common/action_layer.o
                                                  .build/obj_ergodox_ez_default/quantum/quantum.o
register_code                                     .build/obj_ergodox_ez_default/common/action.o
                                                  .build/obj_ergodox_ez_default/common/action_macro.o
                                                  .build/obj_ergodox_ez_default/quantum/process_keycode/process_unicode_common.o
                                                  .build/obj_ergodox_ez_default/quantum/quantum.o
register_code16                                   .build/obj_ergodox_ez_default/quantum/quantum.o
register_hex                                      .build/obj_ergodox_ez_default/quantum/process_keycode/process_unicode_common.o
                                                  .build/obj_ergodox_ez_default/quantum/process_keycode/process_unicode.o
register_mods                                     .build/obj_ergodox_ez_default/common/action.o
                                                  .build/obj_ergodox_ez_default/quantum/process_keycode/process_space_cadet.o
reset_key                                         .build/obj_ergodox_ez_default/common/avr/bootloader.o
reset_keyboard                                    .build/obj_ergodox_ez_default/quantum/quantum.o
reset_oneshot_layer                               .build/obj_ergodox_ez_default/common/action_util.o
rgblight_check_config                             .build/obj_ergodox_ez_default/quantum/rgblight.o
rgblight_config                                   .build/obj_ergodox_ez_default/quantum/rgblight.o
rgblight_decrease                                 .build/obj_ergodox_ez_default/quantum/rgblight.o
rgblight_decrease_hue                             .build/obj_ergodox_ez_default/quantum/rgblight.o
                                                  .build/obj_ergodox_ez_default/quantum/quantum.o
rgblight_decrease_hue_helper                      .build/obj_ergodox_ez_default/quantum/rgblight.o
rgblight_decrease_hue_noeeprom                    .build/obj_ergodox_ez_default/quantum/rgblight.o
rgblight_decrease_sat                             .build/obj_ergodox_ez_default/quantum/rgblight.o
                                                  .build/obj_ergodox_ez_default/quantum/quantum.o
rgblight_decrease_sat_helper                      .build/obj_ergodox_ez_default/quantum/rgblight.o
rgblight_decrease_sat_noeeprom                    .build/obj_ergodox_ez_default/quantum/rgblight.o
rgblight_decrease_speed                           .build/obj_ergodox_ez_default/quantum/rgblight.o
                                                  .build/obj_ergodox_ez_default/quantum/quantum.o
rgblight_decrease_val                             .build/obj_ergodox_ez_default/quantum/rgblight.o
                                                  .build/obj_ergodox_ez_default/quantum/quantum.o
rgblight_decrease_val_helper                      .build/obj_ergodox_ez_default/quantum/rgblight.o
rgblight_decrease_val_noeeprom                    .build/obj_ergodox_ez_default/quantum/rgblight.o
rgblight_disable                                  .build/obj_ergodox_ez_default/quantum/rgblight.o
rgblight_disable_noeeprom                         .build/obj_ergodox_ez_default/quantum/rgblight.o
rgblight_effect_alternating                       .build/obj_ergodox_ez_default/quantum/rgblight.o
rgblight_effect_breathe_table                     .build/obj_ergodox_ez_default/quantum/rgblight.o
rgblight_effect_breathing                         .build/obj_ergodox_ez_default/quantum/rgblight.o
rgblight_effect_christmas                         .build/obj_ergodox_ez_default/quantum/rgblight.o
rgblight_effect_knight                            .build/obj_ergodox_ez_default/quantum/rgblight.o
rgblight_effect_rainbow_mood                      .build/obj_ergodox_ez_default/quantum/rgblight.o
rgblight_effect_rainbow_swirl                     .build/obj_ergodox_ez_default/quantum/rgblight.o
rgblight_effect_rgbtest                           .build/obj_ergodox_ez_default/quantum/rgblight.o
rgblight_effect_snake                             .build/obj_ergodox_ez_default/quantum/rgblight.o
rgblight_enable                                   .build/obj_ergodox_ez_default/quantum/rgblight.o
rgblight_enable_noeeprom                          .build/obj_ergodox_ez_default/quantum/rgblight.o
rgblight_get_hue                                  .build/obj_ergodox_ez_default/quantum/rgblight.o
rgblight_get_mode                                 .build/obj_ergodox_ez_default/quantum/rgblight.o
                                                  .build/obj_ergodox_ez_default/quantum/quantum.o
rgblight_get_sat                                  .build/obj_ergodox_ez_default/quantum/rgblight.o
rgblight_get_val                                  .build/obj_ergodox_ez_default/quantum/rgblight.o
rgblight_increase                                 .build/obj_ergodox_ez_default/quantum/rgblight.o
rgblight_increase_hue                             .build/obj_ergodox_ez_default/quantum/rgblight.o
                                                  .build/obj_ergodox_ez_default/quantum/quantum.o
rgblight_increase_hue_helper                      .build/obj_ergodox_ez_default/quantum/rgblight.o
rgblight_increase_hue_noeeprom                    .build/obj_ergodox_ez_default/quantum/rgblight.o
rgblight_increase_sat                             .build/obj_ergodox_ez_default/quantum/rgblight.o
                                                  .build/obj_ergodox_ez_default/quantum/quantum.o
rgblight_increase_sat_helper                      .build/obj_ergodox_ez_default/quantum/rgblight.o
rgblight_increase_sat_noeeprom                    .build/obj_ergodox_ez_default/quantum/rgblight.o
rgblight_increase_speed                           .build/obj_ergodox_ez_default/quantum/rgblight.o
                                                  .build/obj_ergodox_ez_default/quantum/quantum.o
rgblight_increase_val                             .build/obj_ergodox_ez_default/quantum/rgblight.o
                                                  .build/obj_ergodox_ez_default/quantum/quantum.o
rgblight_increase_val_helper                      .build/obj_ergodox_ez_default/quantum/rgblight.o
rgblight_increase_val_noeeprom                    .build/obj_ergodox_ez_default/quantum/rgblight.o
rgblight_init                                     .build/obj_ergodox_ez_default/quantum/rgblight.o
                                                  .build/obj_ergodox_ez_default/common/keyboard.o
                                                  .build/obj_ergodox_ez_default/keyboards/ergodox_ez/keymaps/default/keymap.o
rgblight_mode                                     .build/obj_ergodox_ez_default/quantum/rgblight.o
                                                  .build/obj_ergodox_ez_default/quantum/quantum.o
                                                  .build/obj_ergodox_ez_default/keyboards/ergodox_ez/keymaps/default/keymap.o
rgblight_mode_eeprom_helper                       .build/obj_ergodox_ez_default/quantum/rgblight.o
rgblight_mode_noeeprom                            .build/obj_ergodox_ez_default/quantum/rgblight.o
rgblight_read_dword                               .build/obj_ergodox_ez_default/quantum/rgblight.o
rgblight_set                                      .build/obj_ergodox_ez_default/quantum/rgblight.o
rgblight_set_clipping_range                       .build/obj_ergodox_ez_default/quantum/rgblight.o
rgblight_sethsv                                   .build/obj_ergodox_ez_default/quantum/rgblight.o
rgblight_sethsv_at                                .build/obj_ergodox_ez_default/quantum/rgblight.o
rgblight_sethsv_eeprom_helper                     .build/obj_ergodox_ez_default/quantum/rgblight.o
rgblight_sethsv_master                            .build/obj_ergodox_ez_default/quantum/rgblight.o
rgblight_sethsv_noeeprom                          .build/obj_ergodox_ez_default/quantum/rgblight.o
rgblight_sethsv_noeeprom_old                      .build/obj_ergodox_ez_default/quantum/rgblight.o
rgblight_sethsv_range                             .build/obj_ergodox_ez_default/quantum/rgblight.o
rgblight_sethsv_slave                             .build/obj_ergodox_ez_default/quantum/rgblight.o
rgblight_setrgb                                   .build/obj_ergodox_ez_default/quantum/rgblight.o
rgblight_setrgb_at                                .build/obj_ergodox_ez_default/quantum/rgblight.o
rgblight_setrgb_master                            .build/obj_ergodox_ez_default/quantum/rgblight.o
rgblight_setrgb_range                             .build/obj_ergodox_ez_default/quantum/rgblight.o
rgblight_setrgb_slave                             .build/obj_ergodox_ez_default/quantum/rgblight.o
rgblight_show_solid_color                         .build/obj_ergodox_ez_default/quantum/rgblight.o
rgblight_status                                   .build/obj_ergodox_ez_default/quantum/rgblight.o
rgblight_step                                     .build/obj_ergodox_ez_default/quantum/rgblight.o
                                                  .build/obj_ergodox_ez_default/quantum/quantum.o
rgblight_step_helper                              .build/obj_ergodox_ez_default/quantum/rgblight.o
rgblight_step_noeeprom                            .build/obj_ergodox_ez_default/quantum/rgblight.o
rgblight_step_reverse                             .build/obj_ergodox_ez_default/quantum/rgblight.o
                                                  .build/obj_ergodox_ez_default/quantum/quantum.o
rgblight_step_reverse_helper                      .build/obj_ergodox_ez_default/quantum/rgblight.o
rgblight_step_reverse_noeeprom                    .build/obj_ergodox_ez_default/quantum/rgblight.o
rgblight_task                                     .build/obj_ergodox_ez_default/quantum/rgblight.o
                                                  .build/obj_ergodox_ez_default/lufa.o
rgblight_timer_disable                            .build/obj_ergodox_ez_default/quantum/rgblight.o
rgblight_timer_enable                             .build/obj_ergodox_ez_default/quantum/rgblight.o
rgblight_timer_init                               .build/obj_ergodox_ez_default/quantum/rgblight.o
rgblight_timer_toggle                             .build/obj_ergodox_ez_default/quantum/rgblight.o
rgblight_toggle                                   .build/obj_ergodox_ez_default/quantum/rgblight.o
                                                  .build/obj_ergodox_ez_default/quantum/quantum.o
rgblight_toggle_noeeprom                          .build/obj_ergodox_ez_default/quantum/rgblight.o
rgblight_update_dword                             .build/obj_ergodox_ez_default/quantum/rgblight.o
send_byte                                         .build/obj_ergodox_ez_default/quantum/quantum.o
send_char                                         .build/obj_ergodox_ez_default/quantum/quantum.o
send_dword                                        .build/obj_ergodox_ez_default/quantum/quantum.o
send_keyboard_report                              .build/obj_ergodox_ez_default/common/action_util.o
                                                  .build/obj_ergodox_ez_default/common/action_macro.o
                                                  .build/obj_ergodox_ez_default/common/action.o
                                                  .build/obj_ergodox_ez_default/quantum/quantum.o
send_nibble                                       .build/obj_ergodox_ez_default/quantum/quantum.o
send_string                                       .build/obj_ergodox_ez_default/quantum/quantum.o
                                                  .build/obj_ergodox_ez_default/quantum/process_keycode/process_unicode_common.o
send_string_P                                     .build/obj_ergodox_ez_default/quantum/quantum.o
                                                  .build/obj_ergodox_ez_default/keyboards/ergodox_ez/keymaps/default/keymap.o
send_string_with_delay                            .build/obj_ergodox_ez_default/quantum/quantum.o
send_string_with_delay_P                          .build/obj_ergodox_ez_default/quantum/quantum.o
send_unicode_hex_string                           .build/obj_ergodox_ez_default/quantum/process_keycode/process_unicode_common.o
send_word                                         .build/obj_ergodox_ez_default/quantum/quantum.o
sendchar                                          .build/obj_ergodox_ez_default/lufa.o
set_macro_mods                                    .build/obj_ergodox_ez_default/common/action_util.o
set_mods                                          .build/obj_ergodox_ez_default/common/action_util.o
                                                  .build/obj_ergodox_ez_default/quantum/process_keycode/process_unicode_common.o
set_oneshot_layer                                 .build/obj_ergodox_ez_default/common/action_util.o
                                                  .build/obj_ergodox_ez_default/common/action.o
set_oneshot_locked_mods                           .build/obj_ergodox_ez_default/common/action_util.o
set_oneshot_mods                                  .build/obj_ergodox_ez_default/common/action_util.o
                                                  .build/obj_ergodox_ez_default/common/action.o
set_output                                        .build/obj_ergodox_ez_default/outputselect.o
                                                  .build/obj_ergodox_ez_default/quantum/quantum.o
set_output_user                                   .build/obj_ergodox_ez_default/outputselect.o
set_single_persistent_default_layer               .build/obj_ergodox_ez_default/quantum/quantum.o
set_unicode_input_mode                            .build/obj_ergodox_ez_default/quantum/process_keycode/process_unicode_common.o
set_weak_mods                                     .build/obj_ergodox_ez_default/common/action_util.o
sethsv                                            .build/obj_ergodox_ez_default/quantum/rgblight.o
setrgb                                            .build/obj_ergodox_ez_default/quantum/rgblight.o
shutdown_user                                     .build/obj_ergodox_ez_default/quantum/quantum.o
source_layers_cache                               .build/obj_ergodox_ez_default/common/action_layer.o
startup_user                                      .build/obj_ergodox_ez_default/quantum/quantum.o
store_or_get_action                               .build/obj_ergodox_ez_default/common/action_layer.o
                                                  .build/obj_ergodox_ez_default/common/action.o
strcspn                                           /usr/local/Cellar/avr-gcc/8.3.0/lib/avr-gcc/8/gcc/avr/8.3.0/../../../../../../avr/lib/avr5/libc.a(strcspn.o)
                                                  .build/obj_ergodox_ez_default/quantum/process_keycode/process_unicode_common.o
strncpy                                           /usr/local/Cellar/avr-gcc/8.3.0/lib/avr-gcc/8/gcc/avr/8.3.0/../../../../../../avr/lib/avr5/libc.a(strncpy.o)
                                                  .build/obj_ergodox_ez_default/quantum/process_keycode/process_unicode_common.o
suspend_idle                                      .build/obj_ergodox_ez_default/common/avr/suspend.o
suspend_power_down                                .build/obj_ergodox_ez_default/common/avr/suspend.o
                                                  .build/obj_ergodox_ez_default/lufa.o
suspend_power_down_kb                             .build/obj_ergodox_ez_default/common/avr/suspend.o
suspend_power_down_user                           .build/obj_ergodox_ez_default/common/avr/suspend.o
suspend_wakeup_condition                          .build/obj_ergodox_ez_default/common/avr/suspend.o
                                                  .build/obj_ergodox_ez_default/lufa.o
suspend_wakeup_init                               .build/obj_ergodox_ez_default/common/avr/suspend.o
                                                  .build/obj_ergodox_ez_default/lufa.o
suspend_wakeup_init_kb                            .build/obj_ergodox_ez_default/common/avr/suspend.o
suspend_wakeup_init_user                          .build/obj_ergodox_ez_default/common/avr/suspend.o
swap_hands                                        .build/obj_ergodox_ez_default/common/action.o
swap_held                                         .build/obj_ergodox_ez_default/common/action.o
tap_code                                          .build/obj_ergodox_ez_default/common/action.o
                                                  .build/obj_ergodox_ez_default/quantum/process_keycode/process_space_cadet.o
                                                  .build/obj_ergodox_ez_default/quantum/process_keycode/process_unicode_common.o
                                                  .build/obj_ergodox_ez_default/quantum/quantum.o
tap_code16                                        .build/obj_ergodox_ez_default/quantum/quantum.o
                                                  .build/obj_ergodox_ez_default/quantum/process_keycode/process_unicode_common.o
tap_random_base64                                 .build/obj_ergodox_ez_default/quantum/quantum.o
timer_clear                                       .build/obj_ergodox_ez_default/common/avr/timer.o
timer_count                                       .build/obj_ergodox_ez_default/common/avr/timer.o
                                                  .build/obj_ergodox_ez_default/common/avr/suspend.o
timer_elapsed                                     .build/obj_ergodox_ez_default/common/avr/timer.o
                                                  .build/obj_ergodox_ez_default/common/mousekey.o
                                                  .build/obj_ergodox_ez_default/quantum/process_keycode/process_space_cadet.o
                                                  .build/obj_ergodox_ez_default/quantum/rgblight.o
timer_elapsed32                                   .build/obj_ergodox_ez_default/common/avr/timer.o
timer_init                                        .build/obj_ergodox_ez_default/common/avr/timer.o
                                                  .build/obj_ergodox_ez_default/common/keyboard.o
timer_read                                        .build/obj_ergodox_ez_default/common/avr/timer.o
                                                  .build/obj_ergodox_ez_default/common/mousekey.o
                                                  .build/obj_ergodox_ez_default/common/keyboard.o
                                                  .build/obj_ergodox_ez_default/quantum/process_keycode/process_space_cadet.o
                                                  .build/obj_ergodox_ez_default/quantum/rgblight.o
                                                  .build/obj_ergodox_ez_default/quantum/debounce/eager_pr.o
                                                  .build/obj_ergodox_ez_default/i2c_master.o
timer_read32                                      .build/obj_ergodox_ez_default/common/avr/timer.o
tolower                                           /usr/local/Cellar/avr-gcc/8.3.0/lib/avr-gcc/8/gcc/avr/8.3.0/../../../../../../avr/lib/avr5/libc.a(tolower.o)
                                                  .build/obj_ergodox_ez_default/quantum/process_keycode/process_unicode_common.o
tp_buttons                                        .build/obj_ergodox_ez_default/common/action.o
transfer_matrix_values                            .build/obj_ergodox_ez_default/quantum/debounce/eager_pr.o
unicode_config                                    .build/obj_ergodox_ez_default/quantum/process_keycode/process_unicode_common.o
unicode_input_cancel                              .build/obj_ergodox_ez_default/quantum/process_keycode/process_unicode_common.o
unicode_input_finish                              .build/obj_ergodox_ez_default/quantum/process_keycode/process_unicode_common.o
                                                  .build/obj_ergodox_ez_default/quantum/process_keycode/process_unicode.o
unicode_input_mode_init                           .build/obj_ergodox_ez_default/quantum/process_keycode/process_unicode_common.o
                                                  .build/obj_ergodox_ez_default/quantum/quantum.o
unicode_input_start                               .build/obj_ergodox_ez_default/quantum/process_keycode/process_unicode_common.o
                                                  .build/obj_ergodox_ez_default/quantum/process_keycode/process_unicode.o
unicode_saved_mods                                .build/obj_ergodox_ez_default/quantum/process_keycode/process_unicode_common.o
unregister_code                                   .build/obj_ergodox_ez_default/common/action.o
                                                  .build/obj_ergodox_ez_default/common/action_macro.o
                                                  .build/obj_ergodox_ez_default/quantum/process_keycode/process_unicode_common.o
                                                  .build/obj_ergodox_ez_default/quantum/quantum.o
unregister_code16                                 .build/obj_ergodox_ez_default/quantum/quantum.o
unregister_mods                                   .build/obj_ergodox_ez_default/common/action.o
                                                  .build/obj_ergodox_ez_default/quantum/process_keycode/process_space_cadet.o
update_debounce_counters                          .build/obj_ergodox_ez_default/quantum/debounce/eager_pr.o
update_source_layers_cache                        .build/obj_ergodox_ez_default/common/action_layer.o
                                                  .build/obj_ergodox_ez_default/quantum/quantum.o
update_tri_layer                                  .build/obj_ergodox_ez_default/quantum/quantum.o
update_tri_layer_state                            .build/obj_ergodox_ez_default/quantum/quantum.o
where_to_send                                     .build/obj_ergodox_ez_default/outputselect.o
                                                  .build/obj_ergodox_ez_default/lufa.o
ws2812_sendarray                                  .build/obj_ergodox_ez_default/ws2812.o
ws2812_sendarray_mask                             .build/obj_ergodox_ez_default/ws2812.o
ws2812_setleds                                    .build/obj_ergodox_ez_default/ws2812.o
ws2812_setleds_pin                                .build/obj_ergodox_ez_default/ws2812.o
ws2812_setleds_rgbw                               .build/obj_ergodox_ez_default/ws2812.o
                                                  .build/obj_ergodox_ez_default/quantum/rgblight.o
xfunc_out                                         .build/obj_ergodox_ez_default/common/avr/xprintf.o
xitoa                                             .build/obj_ergodox_ez_default/common/avr/xprintf.o
xputc                                             .build/obj_ergodox_ez_default/common/avr/xprintf.o
xputs                                             .build/obj_ergodox_ez_default/common/avr/xprintf.o
