   1               		.file	"process_unicode_common.c"
   2               	__SP_H__ = 0x3e
   3               	__SP_L__ = 0x3d
   4               	__SREG__ = 0x3f
   5               	__tmp_reg__ = 0
   6               	__zero_reg__ = 1
   7               		.text
   8               	.Ltext0:
   9               		.cfi_sections	.debug_frame
  10               		.section	.text.unicode_input_mode_init,"ax",@progbits
  11               	.global	unicode_input_mode_init
  13               	unicode_input_mode_init:
  14               	.LFB111:
  15               		.file 1 "quantum/process_keycode/process_unicode_common.c"
   1:quantum/process_keycode/process_unicode_common.c **** /* Copyright 2017 Jack Humbert
   2:quantum/process_keycode/process_unicode_common.c ****  *
   3:quantum/process_keycode/process_unicode_common.c ****  * This program is free software: you can redistribute it and/or modify
   4:quantum/process_keycode/process_unicode_common.c ****  * it under the terms of the GNU General Public License as published by
   5:quantum/process_keycode/process_unicode_common.c ****  * the Free Software Foundation, either version 2 of the License, or
   6:quantum/process_keycode/process_unicode_common.c ****  * (at your option) any later version.
   7:quantum/process_keycode/process_unicode_common.c ****  *
   8:quantum/process_keycode/process_unicode_common.c ****  * This program is distributed in the hope that it will be useful,
   9:quantum/process_keycode/process_unicode_common.c ****  * but WITHOUT ANY WARRANTY; without even the implied warranty of
  10:quantum/process_keycode/process_unicode_common.c ****  * MERCHANTABILITY or FITNESS FOR A PARTICULAR PURPOSE.  See the
  11:quantum/process_keycode/process_unicode_common.c ****  * GNU General Public License for more details.
  12:quantum/process_keycode/process_unicode_common.c ****  *
  13:quantum/process_keycode/process_unicode_common.c ****  * You should have received a copy of the GNU General Public License
  14:quantum/process_keycode/process_unicode_common.c ****  * along with this program.  If not, see <http://www.gnu.org/licenses/>.
  15:quantum/process_keycode/process_unicode_common.c ****  */
  16:quantum/process_keycode/process_unicode_common.c **** 
  17:quantum/process_keycode/process_unicode_common.c **** #include "process_unicode_common.h"
  18:quantum/process_keycode/process_unicode_common.c **** #include "eeprom.h"
  19:quantum/process_keycode/process_unicode_common.c **** #include <ctype.h>
  20:quantum/process_keycode/process_unicode_common.c **** #include <string.h>
  21:quantum/process_keycode/process_unicode_common.c **** 
  22:quantum/process_keycode/process_unicode_common.c **** unicode_config_t unicode_config;
  23:quantum/process_keycode/process_unicode_common.c **** uint8_t          unicode_saved_mods;
  24:quantum/process_keycode/process_unicode_common.c **** 
  25:quantum/process_keycode/process_unicode_common.c **** #if UNICODE_SELECTED_MODES != -1
  26:quantum/process_keycode/process_unicode_common.c **** static uint8_t selected[] = { UNICODE_SELECTED_MODES };
  27:quantum/process_keycode/process_unicode_common.c **** static uint8_t selected_count = sizeof selected / sizeof *selected;
  28:quantum/process_keycode/process_unicode_common.c **** static uint8_t selected_index;
  29:quantum/process_keycode/process_unicode_common.c **** #endif
  30:quantum/process_keycode/process_unicode_common.c **** 
  31:quantum/process_keycode/process_unicode_common.c **** void unicode_input_mode_init(void) {
  16               		.loc 1 31 36 view -0
  17               		.cfi_startproc
  18               	/* prologue: function */
  19               	/* frame size = 0 */
  20               	/* stack size = 0 */
  21               	.L__stack_usage = 0
  32:quantum/process_keycode/process_unicode_common.c ****   unicode_config.raw = eeprom_read_byte(EECONFIG_UNICODEMODE);
  22               		.loc 1 32 3 view .LVU1
  23               		.loc 1 32 24 is_stmt 0 view .LVU2
  24 0000 8CE0      		ldi r24,lo8(12)
  25 0002 90E0      		ldi r25,0
  26 0004 0E94 0000 		call eeprom_read_byte
  27               	.LVL0:
  28 0008 90E0      		ldi r25,0
  29 000a B0E0      		ldi r27,0
  30 000c A0E0      		ldi r26,0
  31 000e 8093 0000 		sts unicode_config,r24
  32 0012 9093 0000 		sts unicode_config+1,r25
  33 0016 A093 0000 		sts unicode_config+2,r26
  34 001a B093 0000 		sts unicode_config+3,r27
  33:quantum/process_keycode/process_unicode_common.c **** #if UNICODE_SELECTED_MODES != -1
  34:quantum/process_keycode/process_unicode_common.c ****   #if UNICODE_CYCLE_PERSIST
  35:quantum/process_keycode/process_unicode_common.c ****   // Find input_mode in selected modes
  36:quantum/process_keycode/process_unicode_common.c ****   uint8_t i;
  37:quantum/process_keycode/process_unicode_common.c ****   for (i = 0; i < selected_count; i++) {
  38:quantum/process_keycode/process_unicode_common.c ****     if (selected[i] == unicode_config.input_mode) {
  39:quantum/process_keycode/process_unicode_common.c ****       selected_index = i;
  40:quantum/process_keycode/process_unicode_common.c ****       break;
  41:quantum/process_keycode/process_unicode_common.c ****     }
  42:quantum/process_keycode/process_unicode_common.c ****   }
  43:quantum/process_keycode/process_unicode_common.c ****   if (i == selected_count) {
  44:quantum/process_keycode/process_unicode_common.c ****     // Not found: input_mode isn't selected, change to one that is
  45:quantum/process_keycode/process_unicode_common.c ****     unicode_config.input_mode = selected[selected_index = 0];
  46:quantum/process_keycode/process_unicode_common.c ****   }
  47:quantum/process_keycode/process_unicode_common.c ****   #else
  48:quantum/process_keycode/process_unicode_common.c ****   // Always change to the first selected input mode
  49:quantum/process_keycode/process_unicode_common.c ****   unicode_config.input_mode = selected[selected_index = 0];
  50:quantum/process_keycode/process_unicode_common.c ****   #endif
  51:quantum/process_keycode/process_unicode_common.c **** #endif
  52:quantum/process_keycode/process_unicode_common.c ****   dprintf("Unicode input mode init to: %u\n", unicode_config.input_mode);
  35               		.loc 1 52 73 is_stmt 1 view .LVU3
  36               	/* epilogue start */
  53:quantum/process_keycode/process_unicode_common.c **** }
  37               		.loc 1 53 1 is_stmt 0 view .LVU4
  38 001e 0895      		ret
  39               		.cfi_endproc
  40               	.LFE111:
  42               		.section	.text.get_unicode_input_mode,"ax",@progbits
  43               	.global	get_unicode_input_mode
  45               	get_unicode_input_mode:
  46               	.LFB112:
  54:quantum/process_keycode/process_unicode_common.c **** 
  55:quantum/process_keycode/process_unicode_common.c **** uint8_t get_unicode_input_mode(void) {
  47               		.loc 1 55 38 is_stmt 1 view -0
  48               		.cfi_startproc
  49               	/* prologue: function */
  50               	/* frame size = 0 */
  51               	/* stack size = 0 */
  52               	.L__stack_usage = 0
  56:quantum/process_keycode/process_unicode_common.c ****   return unicode_config.input_mode;
  53               		.loc 1 56 3 view .LVU6
  57:quantum/process_keycode/process_unicode_common.c **** }
  54               		.loc 1 57 1 is_stmt 0 view .LVU7
  55 0000 8091 0000 		lds r24,unicode_config
  56               	/* epilogue start */
  57 0004 0895      		ret
  58               		.cfi_endproc
  59               	.LFE112:
  61               		.section	.text.cycle_unicode_input_mode,"ax",@progbits
  62               	.global	cycle_unicode_input_mode
  64               	cycle_unicode_input_mode:
  65               	.LVL1:
  66               	.LFB114:
  58:quantum/process_keycode/process_unicode_common.c **** 
  59:quantum/process_keycode/process_unicode_common.c **** void set_unicode_input_mode(uint8_t mode) {
  60:quantum/process_keycode/process_unicode_common.c ****   unicode_config.input_mode = mode;
  61:quantum/process_keycode/process_unicode_common.c ****   persist_unicode_input_mode();
  62:quantum/process_keycode/process_unicode_common.c ****   dprintf("Unicode input mode set to: %u\n", unicode_config.input_mode);
  63:quantum/process_keycode/process_unicode_common.c **** }
  64:quantum/process_keycode/process_unicode_common.c **** 
  65:quantum/process_keycode/process_unicode_common.c **** void cycle_unicode_input_mode(uint8_t offset) {
  67               		.loc 1 65 47 is_stmt 1 view -0
  68               		.cfi_startproc
  69               	/* prologue: function */
  70               	/* frame size = 0 */
  71               	/* stack size = 0 */
  72               	.L__stack_usage = 0
  66:quantum/process_keycode/process_unicode_common.c **** #if UNICODE_SELECTED_MODES != -1
  67:quantum/process_keycode/process_unicode_common.c ****   selected_index = (selected_index + offset) % selected_count;
  68:quantum/process_keycode/process_unicode_common.c ****   unicode_config.input_mode = selected[selected_index];
  69:quantum/process_keycode/process_unicode_common.c ****   #if UNICODE_CYCLE_PERSIST
  70:quantum/process_keycode/process_unicode_common.c ****   persist_unicode_input_mode();
  71:quantum/process_keycode/process_unicode_common.c ****   #endif
  72:quantum/process_keycode/process_unicode_common.c ****   dprintf("Unicode input mode cycle to: %u\n", unicode_config.input_mode);
  73:quantum/process_keycode/process_unicode_common.c **** #endif
  74:quantum/process_keycode/process_unicode_common.c **** }
  73               		.loc 1 74 1 view .LVU9
  74               	/* epilogue start */
  75 0000 0895      		ret
  76               		.cfi_endproc
  77               	.LFE114:
  79               		.section	.text.persist_unicode_input_mode,"ax",@progbits
  80               	.global	persist_unicode_input_mode
  82               	persist_unicode_input_mode:
  83               	.LFB115:
  75:quantum/process_keycode/process_unicode_common.c **** 
  76:quantum/process_keycode/process_unicode_common.c **** void persist_unicode_input_mode(void) {
  84               		.loc 1 76 39 view -0
  85               		.cfi_startproc
  86               	/* prologue: function */
  87               	/* frame size = 0 */
  88               	/* stack size = 0 */
  89               	.L__stack_usage = 0
  77:quantum/process_keycode/process_unicode_common.c ****   eeprom_update_byte(EECONFIG_UNICODEMODE, unicode_config.input_mode);
  90               		.loc 1 77 3 view .LVU11
  91 0000 6091 0000 		lds r22,unicode_config
  92 0004 8CE0      		ldi r24,lo8(12)
  93 0006 90E0      		ldi r25,0
  94 0008 0C94 0000 		jmp eeprom_update_byte
  95               	.LVL2:
  96               		.cfi_endproc
  97               	.LFE115:
  99               		.section	.text.set_unicode_input_mode,"ax",@progbits
 100               	.global	set_unicode_input_mode
 102               	set_unicode_input_mode:
 103               	.LVL3:
 104               	.LFB113:
  59:quantum/process_keycode/process_unicode_common.c ****   unicode_config.input_mode = mode;
 105               		.loc 1 59 43 view -0
 106               		.cfi_startproc
 107               	/* prologue: function */
 108               	/* frame size = 0 */
 109               	/* stack size = 0 */
 110               	.L__stack_usage = 0
  60:quantum/process_keycode/process_unicode_common.c ****   persist_unicode_input_mode();
 111               		.loc 1 60 3 view .LVU13
  60:quantum/process_keycode/process_unicode_common.c ****   persist_unicode_input_mode();
 112               		.loc 1 60 29 is_stmt 0 view .LVU14
 113 0000 8093 0000 		sts unicode_config,r24
  61:quantum/process_keycode/process_unicode_common.c ****   dprintf("Unicode input mode set to: %u\n", unicode_config.input_mode);
 114               		.loc 1 61 3 is_stmt 1 view .LVU15
 115 0004 0C94 0000 		jmp persist_unicode_input_mode
 116               	.LVL4:
  61:quantum/process_keycode/process_unicode_common.c ****   dprintf("Unicode input mode set to: %u\n", unicode_config.input_mode);
 117               		.loc 1 61 3 is_stmt 0 view .LVU16
 118               		.cfi_endproc
 119               	.LFE113:
 121               		.section	.text.unicode_input_start,"ax",@progbits
 122               		.weak	unicode_input_start
 124               	unicode_input_start:
 125               	.LFB116:
  78:quantum/process_keycode/process_unicode_common.c **** }
  79:quantum/process_keycode/process_unicode_common.c **** 
  80:quantum/process_keycode/process_unicode_common.c **** __attribute__((weak))
  81:quantum/process_keycode/process_unicode_common.c **** void unicode_input_start(void) {
 126               		.loc 1 81 32 is_stmt 1 view -0
 127               		.cfi_startproc
 128               	/* prologue: function */
 129               	/* frame size = 0 */
 130               	/* stack size = 0 */
 131               	.L__stack_usage = 0
  82:quantum/process_keycode/process_unicode_common.c ****   unicode_saved_mods = get_mods(); // Save current mods
 132               		.loc 1 82 3 view .LVU18
 133               		.loc 1 82 24 is_stmt 0 view .LVU19
 134 0000 0E94 0000 		call get_mods
 135               	.LVL5:
 136               		.loc 1 82 22 view .LVU20
 137 0004 8093 0000 		sts unicode_saved_mods,r24
  83:quantum/process_keycode/process_unicode_common.c ****   clear_mods(); // Unregister mods to start from a clean state
 138               		.loc 1 83 3 is_stmt 1 view .LVU21
 139 0008 0E94 0000 		call clear_mods
 140               	.LVL6:
  84:quantum/process_keycode/process_unicode_common.c **** 
  85:quantum/process_keycode/process_unicode_common.c ****   switch (unicode_config.input_mode) {
 141               		.loc 1 85 3 view .LVU22
 142               		.loc 1 85 25 is_stmt 0 view .LVU23
 143 000c 8091 0000 		lds r24,unicode_config
 144               		.loc 1 85 3 view .LVU24
 145 0010 8130      		cpi r24,lo8(1)
 146 0012 01F0      		breq .L7
 147 0014 8823      		tst r24
 148 0016 01F0      		breq .L8
 149 0018 8230      		cpi r24,lo8(2)
 150 001a 01F0      		breq .L9
 151 001c 8430      		cpi r24,lo8(4)
 152 001e 01F0      		breq .L10
 153               	.L11:
  86:quantum/process_keycode/process_unicode_common.c ****   case UC_OSX:
  87:quantum/process_keycode/process_unicode_common.c ****     register_code(UNICODE_KEY_OSX);
  88:quantum/process_keycode/process_unicode_common.c ****     break;
  89:quantum/process_keycode/process_unicode_common.c ****   case UC_LNX:
  90:quantum/process_keycode/process_unicode_common.c ****     tap_code16(UNICODE_KEY_LNX);
  91:quantum/process_keycode/process_unicode_common.c ****     break;
  92:quantum/process_keycode/process_unicode_common.c ****   case UC_WIN:
  93:quantum/process_keycode/process_unicode_common.c ****     register_code(KC_LALT);
  94:quantum/process_keycode/process_unicode_common.c ****     tap_code(KC_PPLS);
  95:quantum/process_keycode/process_unicode_common.c ****     break;
  96:quantum/process_keycode/process_unicode_common.c ****   case UC_WINC:
  97:quantum/process_keycode/process_unicode_common.c ****     tap_code(UNICODE_KEY_WINC);
  98:quantum/process_keycode/process_unicode_common.c ****     tap_code(KC_U);
  99:quantum/process_keycode/process_unicode_common.c ****     break;
 100:quantum/process_keycode/process_unicode_common.c ****   }
 101:quantum/process_keycode/process_unicode_common.c **** 
 102:quantum/process_keycode/process_unicode_common.c ****   wait_ms(UNICODE_TYPE_DELAY);
 154               		.loc 1 102 3 is_stmt 1 view .LVU25
 155               	.LVL7:
 156               	.LBB4:
 157               	.LBI4:
 158               		.file 2 "/usr/local/Cellar/avr-gcc/8.3.0/avr/include/util/delay.h"
   1:/usr/local/Cellar/avr-gcc/8.3.0/avr/include/util/delay.h **** /* Copyright (c) 2002, Marek Michalkiewicz
   2:/usr/local/Cellar/avr-gcc/8.3.0/avr/include/util/delay.h ****    Copyright (c) 2004,2005,2007 Joerg Wunsch
   3:/usr/local/Cellar/avr-gcc/8.3.0/avr/include/util/delay.h ****    Copyright (c) 2007  Florin-Viorel Petrov
   4:/usr/local/Cellar/avr-gcc/8.3.0/avr/include/util/delay.h ****    All rights reserved.
   5:/usr/local/Cellar/avr-gcc/8.3.0/avr/include/util/delay.h **** 
   6:/usr/local/Cellar/avr-gcc/8.3.0/avr/include/util/delay.h ****    Redistribution and use in source and binary forms, with or without
   7:/usr/local/Cellar/avr-gcc/8.3.0/avr/include/util/delay.h ****    modification, are permitted provided that the following conditions are met:
   8:/usr/local/Cellar/avr-gcc/8.3.0/avr/include/util/delay.h **** 
   9:/usr/local/Cellar/avr-gcc/8.3.0/avr/include/util/delay.h ****    * Redistributions of source code must retain the above copyright
  10:/usr/local/Cellar/avr-gcc/8.3.0/avr/include/util/delay.h ****      notice, this list of conditions and the following disclaimer.
  11:/usr/local/Cellar/avr-gcc/8.3.0/avr/include/util/delay.h **** 
  12:/usr/local/Cellar/avr-gcc/8.3.0/avr/include/util/delay.h ****    * Redistributions in binary form must reproduce the above copyright
  13:/usr/local/Cellar/avr-gcc/8.3.0/avr/include/util/delay.h ****      notice, this list of conditions and the following disclaimer in
  14:/usr/local/Cellar/avr-gcc/8.3.0/avr/include/util/delay.h ****      the documentation and/or other materials provided with the
  15:/usr/local/Cellar/avr-gcc/8.3.0/avr/include/util/delay.h ****      distribution.
  16:/usr/local/Cellar/avr-gcc/8.3.0/avr/include/util/delay.h **** 
  17:/usr/local/Cellar/avr-gcc/8.3.0/avr/include/util/delay.h ****    * Neither the name of the copyright holders nor the names of
  18:/usr/local/Cellar/avr-gcc/8.3.0/avr/include/util/delay.h ****      contributors may be used to endorse or promote products derived
  19:/usr/local/Cellar/avr-gcc/8.3.0/avr/include/util/delay.h ****      from this software without specific prior written permission.
  20:/usr/local/Cellar/avr-gcc/8.3.0/avr/include/util/delay.h **** 
  21:/usr/local/Cellar/avr-gcc/8.3.0/avr/include/util/delay.h ****   THIS SOFTWARE IS PROVIDED BY THE COPYRIGHT HOLDERS AND CONTRIBUTORS "AS IS"
  22:/usr/local/Cellar/avr-gcc/8.3.0/avr/include/util/delay.h ****   AND ANY EXPRESS OR IMPLIED WARRANTIES, INCLUDING, BUT NOT LIMITED TO, THE
  23:/usr/local/Cellar/avr-gcc/8.3.0/avr/include/util/delay.h ****   IMPLIED WARRANTIES OF MERCHANTABILITY AND FITNESS FOR A PARTICULAR PURPOSE
  24:/usr/local/Cellar/avr-gcc/8.3.0/avr/include/util/delay.h ****   ARE DISCLAIMED. IN NO EVENT SHALL THE COPYRIGHT OWNER OR CONTRIBUTORS BE
  25:/usr/local/Cellar/avr-gcc/8.3.0/avr/include/util/delay.h ****   LIABLE FOR ANY DIRECT, INDIRECT, INCIDENTAL, SPECIAL, EXEMPLARY, OR
  26:/usr/local/Cellar/avr-gcc/8.3.0/avr/include/util/delay.h ****   CONSEQUENTIAL DAMAGES (INCLUDING, BUT NOT LIMITED TO, PROCUREMENT OF
  27:/usr/local/Cellar/avr-gcc/8.3.0/avr/include/util/delay.h ****   SUBSTITUTE GOODS OR SERVICES; LOSS OF USE, DATA, OR PROFITS; OR BUSINESS
  28:/usr/local/Cellar/avr-gcc/8.3.0/avr/include/util/delay.h ****   INTERRUPTION) HOWEVER CAUSED AND ON ANY THEORY OF LIABILITY, WHETHER IN
  29:/usr/local/Cellar/avr-gcc/8.3.0/avr/include/util/delay.h ****   CONTRACT, STRICT LIABILITY, OR TORT (INCLUDING NEGLIGENCE OR OTHERWISE)
  30:/usr/local/Cellar/avr-gcc/8.3.0/avr/include/util/delay.h ****   ARISING IN ANY WAY OUT OF THE USE OF THIS SOFTWARE, EVEN IF ADVISED OF THE
  31:/usr/local/Cellar/avr-gcc/8.3.0/avr/include/util/delay.h ****   POSSIBILITY OF SUCH DAMAGE. */
  32:/usr/local/Cellar/avr-gcc/8.3.0/avr/include/util/delay.h **** 
  33:/usr/local/Cellar/avr-gcc/8.3.0/avr/include/util/delay.h **** /* $Id: delay.h.in 2506 2016-02-08 10:05:45Z joerg_wunsch $ */
  34:/usr/local/Cellar/avr-gcc/8.3.0/avr/include/util/delay.h **** 
  35:/usr/local/Cellar/avr-gcc/8.3.0/avr/include/util/delay.h **** #ifndef _UTIL_DELAY_H_
  36:/usr/local/Cellar/avr-gcc/8.3.0/avr/include/util/delay.h **** #define _UTIL_DELAY_H_ 1
  37:/usr/local/Cellar/avr-gcc/8.3.0/avr/include/util/delay.h **** 
  38:/usr/local/Cellar/avr-gcc/8.3.0/avr/include/util/delay.h **** #ifndef __DOXYGEN__
  39:/usr/local/Cellar/avr-gcc/8.3.0/avr/include/util/delay.h **** #  ifndef __HAS_DELAY_CYCLES
  40:/usr/local/Cellar/avr-gcc/8.3.0/avr/include/util/delay.h **** #    define __HAS_DELAY_CYCLES 1
  41:/usr/local/Cellar/avr-gcc/8.3.0/avr/include/util/delay.h **** #  endif
  42:/usr/local/Cellar/avr-gcc/8.3.0/avr/include/util/delay.h **** #endif  /* __DOXYGEN__ */
  43:/usr/local/Cellar/avr-gcc/8.3.0/avr/include/util/delay.h **** 
  44:/usr/local/Cellar/avr-gcc/8.3.0/avr/include/util/delay.h **** #include <inttypes.h>
  45:/usr/local/Cellar/avr-gcc/8.3.0/avr/include/util/delay.h **** #include <util/delay_basic.h>
  46:/usr/local/Cellar/avr-gcc/8.3.0/avr/include/util/delay.h **** #include <math.h>
  47:/usr/local/Cellar/avr-gcc/8.3.0/avr/include/util/delay.h **** 
  48:/usr/local/Cellar/avr-gcc/8.3.0/avr/include/util/delay.h **** /** \file */
  49:/usr/local/Cellar/avr-gcc/8.3.0/avr/include/util/delay.h **** /** \defgroup util_delay <util/delay.h>: Convenience functions for busy-wait delay loops
  50:/usr/local/Cellar/avr-gcc/8.3.0/avr/include/util/delay.h ****     \code
  51:/usr/local/Cellar/avr-gcc/8.3.0/avr/include/util/delay.h ****     #define F_CPU 1000000UL  // 1 MHz
  52:/usr/local/Cellar/avr-gcc/8.3.0/avr/include/util/delay.h ****     //#define F_CPU 14.7456E6
  53:/usr/local/Cellar/avr-gcc/8.3.0/avr/include/util/delay.h ****     #include <util/delay.h>
  54:/usr/local/Cellar/avr-gcc/8.3.0/avr/include/util/delay.h ****     \endcode
  55:/usr/local/Cellar/avr-gcc/8.3.0/avr/include/util/delay.h **** 
  56:/usr/local/Cellar/avr-gcc/8.3.0/avr/include/util/delay.h ****     \note As an alternative method, it is possible to pass the
  57:/usr/local/Cellar/avr-gcc/8.3.0/avr/include/util/delay.h ****     F_CPU macro down to the compiler from the Makefile.
  58:/usr/local/Cellar/avr-gcc/8.3.0/avr/include/util/delay.h ****     Obviously, in that case, no \c \#define statement should be
  59:/usr/local/Cellar/avr-gcc/8.3.0/avr/include/util/delay.h ****     used.
  60:/usr/local/Cellar/avr-gcc/8.3.0/avr/include/util/delay.h **** 
  61:/usr/local/Cellar/avr-gcc/8.3.0/avr/include/util/delay.h ****     The functions in this header file are wrappers around the basic
  62:/usr/local/Cellar/avr-gcc/8.3.0/avr/include/util/delay.h ****     busy-wait functions from <util/delay_basic.h>.  They are meant as
  63:/usr/local/Cellar/avr-gcc/8.3.0/avr/include/util/delay.h ****     convenience functions where actual time values can be specified
  64:/usr/local/Cellar/avr-gcc/8.3.0/avr/include/util/delay.h ****     rather than a number of cycles to wait for.  The idea behind is
  65:/usr/local/Cellar/avr-gcc/8.3.0/avr/include/util/delay.h ****     that compile-time constant expressions will be eliminated by
  66:/usr/local/Cellar/avr-gcc/8.3.0/avr/include/util/delay.h ****     compiler optimization so floating-point expressions can be used
  67:/usr/local/Cellar/avr-gcc/8.3.0/avr/include/util/delay.h ****     to calculate the number of delay cycles needed based on the CPU
  68:/usr/local/Cellar/avr-gcc/8.3.0/avr/include/util/delay.h ****     frequency passed by the macro F_CPU.
  69:/usr/local/Cellar/avr-gcc/8.3.0/avr/include/util/delay.h **** 
  70:/usr/local/Cellar/avr-gcc/8.3.0/avr/include/util/delay.h ****     \note In order for these functions to work as intended, compiler
  71:/usr/local/Cellar/avr-gcc/8.3.0/avr/include/util/delay.h ****     optimizations <em>must</em> be enabled, and the delay time
  72:/usr/local/Cellar/avr-gcc/8.3.0/avr/include/util/delay.h ****     <em>must</em> be an expression that is a known constant at
  73:/usr/local/Cellar/avr-gcc/8.3.0/avr/include/util/delay.h ****     compile-time.  If these requirements are not met, the resulting
  74:/usr/local/Cellar/avr-gcc/8.3.0/avr/include/util/delay.h ****     delay will be much longer (and basically unpredictable), and
  75:/usr/local/Cellar/avr-gcc/8.3.0/avr/include/util/delay.h ****     applications that otherwise do not use floating-point calculations
  76:/usr/local/Cellar/avr-gcc/8.3.0/avr/include/util/delay.h ****     will experience severe code bloat by the floating-point library
  77:/usr/local/Cellar/avr-gcc/8.3.0/avr/include/util/delay.h ****     routines linked into the application.
  78:/usr/local/Cellar/avr-gcc/8.3.0/avr/include/util/delay.h **** 
  79:/usr/local/Cellar/avr-gcc/8.3.0/avr/include/util/delay.h ****     The functions available allow the specification of microsecond, and
  80:/usr/local/Cellar/avr-gcc/8.3.0/avr/include/util/delay.h ****     millisecond delays directly, using the application-supplied macro
  81:/usr/local/Cellar/avr-gcc/8.3.0/avr/include/util/delay.h ****     F_CPU as the CPU clock frequency (in Hertz).
  82:/usr/local/Cellar/avr-gcc/8.3.0/avr/include/util/delay.h **** 
  83:/usr/local/Cellar/avr-gcc/8.3.0/avr/include/util/delay.h **** */
  84:/usr/local/Cellar/avr-gcc/8.3.0/avr/include/util/delay.h **** 
  85:/usr/local/Cellar/avr-gcc/8.3.0/avr/include/util/delay.h **** #if !defined(__DOXYGEN__)
  86:/usr/local/Cellar/avr-gcc/8.3.0/avr/include/util/delay.h **** static __inline__ void _delay_us(double __us) __attribute__((__always_inline__));
  87:/usr/local/Cellar/avr-gcc/8.3.0/avr/include/util/delay.h **** static __inline__ void _delay_ms(double __ms) __attribute__((__always_inline__));
  88:/usr/local/Cellar/avr-gcc/8.3.0/avr/include/util/delay.h **** #endif
  89:/usr/local/Cellar/avr-gcc/8.3.0/avr/include/util/delay.h **** 
  90:/usr/local/Cellar/avr-gcc/8.3.0/avr/include/util/delay.h **** #ifndef F_CPU
  91:/usr/local/Cellar/avr-gcc/8.3.0/avr/include/util/delay.h **** /* prevent compiler error by supplying a default */
  92:/usr/local/Cellar/avr-gcc/8.3.0/avr/include/util/delay.h **** # warning "F_CPU not defined for <util/delay.h>"
  93:/usr/local/Cellar/avr-gcc/8.3.0/avr/include/util/delay.h **** /** \ingroup util_delay
  94:/usr/local/Cellar/avr-gcc/8.3.0/avr/include/util/delay.h ****     \def F_CPU
  95:/usr/local/Cellar/avr-gcc/8.3.0/avr/include/util/delay.h ****     \brief CPU frequency in Hz
  96:/usr/local/Cellar/avr-gcc/8.3.0/avr/include/util/delay.h **** 
  97:/usr/local/Cellar/avr-gcc/8.3.0/avr/include/util/delay.h ****     The macro F_CPU specifies the CPU frequency to be considered by
  98:/usr/local/Cellar/avr-gcc/8.3.0/avr/include/util/delay.h ****     the delay macros.  This macro is normally supplied by the
  99:/usr/local/Cellar/avr-gcc/8.3.0/avr/include/util/delay.h ****     environment (e.g. from within a project header, or the project's
 100:/usr/local/Cellar/avr-gcc/8.3.0/avr/include/util/delay.h ****     Makefile).  The value 1 MHz here is only provided as a "vanilla"
 101:/usr/local/Cellar/avr-gcc/8.3.0/avr/include/util/delay.h ****     fallback if no such user-provided definition could be found.
 102:/usr/local/Cellar/avr-gcc/8.3.0/avr/include/util/delay.h **** 
 103:/usr/local/Cellar/avr-gcc/8.3.0/avr/include/util/delay.h ****     In terms of the delay functions, the CPU frequency can be given as
 104:/usr/local/Cellar/avr-gcc/8.3.0/avr/include/util/delay.h ****     a floating-point constant (e.g. 3.6864E6 for 3.6864 MHz).
 105:/usr/local/Cellar/avr-gcc/8.3.0/avr/include/util/delay.h ****     However, the macros in <util/setbaud.h> require it to be an
 106:/usr/local/Cellar/avr-gcc/8.3.0/avr/include/util/delay.h ****     integer value.
 107:/usr/local/Cellar/avr-gcc/8.3.0/avr/include/util/delay.h ****  */
 108:/usr/local/Cellar/avr-gcc/8.3.0/avr/include/util/delay.h **** # define F_CPU 1000000UL
 109:/usr/local/Cellar/avr-gcc/8.3.0/avr/include/util/delay.h **** #endif
 110:/usr/local/Cellar/avr-gcc/8.3.0/avr/include/util/delay.h **** 
 111:/usr/local/Cellar/avr-gcc/8.3.0/avr/include/util/delay.h **** #ifndef __OPTIMIZE__
 112:/usr/local/Cellar/avr-gcc/8.3.0/avr/include/util/delay.h **** # warning "Compiler optimizations disabled; functions from <util/delay.h> won't work as designed"
 113:/usr/local/Cellar/avr-gcc/8.3.0/avr/include/util/delay.h **** #endif
 114:/usr/local/Cellar/avr-gcc/8.3.0/avr/include/util/delay.h **** 
 115:/usr/local/Cellar/avr-gcc/8.3.0/avr/include/util/delay.h **** #if __HAS_DELAY_CYCLES && defined(__OPTIMIZE__) && \
 116:/usr/local/Cellar/avr-gcc/8.3.0/avr/include/util/delay.h ****   !defined(__DELAY_BACKWARD_COMPATIBLE__) &&	   \
 117:/usr/local/Cellar/avr-gcc/8.3.0/avr/include/util/delay.h ****   __STDC_HOSTED__
 118:/usr/local/Cellar/avr-gcc/8.3.0/avr/include/util/delay.h **** #  include <math.h>
 119:/usr/local/Cellar/avr-gcc/8.3.0/avr/include/util/delay.h **** #endif
 120:/usr/local/Cellar/avr-gcc/8.3.0/avr/include/util/delay.h **** 
 121:/usr/local/Cellar/avr-gcc/8.3.0/avr/include/util/delay.h **** /**
 122:/usr/local/Cellar/avr-gcc/8.3.0/avr/include/util/delay.h ****    \ingroup util_delay
 123:/usr/local/Cellar/avr-gcc/8.3.0/avr/include/util/delay.h **** 
 124:/usr/local/Cellar/avr-gcc/8.3.0/avr/include/util/delay.h ****    Perform a delay of \c __ms milliseconds, using _delay_loop_2().
 125:/usr/local/Cellar/avr-gcc/8.3.0/avr/include/util/delay.h **** 
 126:/usr/local/Cellar/avr-gcc/8.3.0/avr/include/util/delay.h ****    The macro F_CPU is supposed to be defined to a
 127:/usr/local/Cellar/avr-gcc/8.3.0/avr/include/util/delay.h ****    constant defining the CPU clock frequency (in Hertz).
 128:/usr/local/Cellar/avr-gcc/8.3.0/avr/include/util/delay.h **** 
 129:/usr/local/Cellar/avr-gcc/8.3.0/avr/include/util/delay.h ****    The maximal possible delay is 262.14 ms / F_CPU in MHz.
 130:/usr/local/Cellar/avr-gcc/8.3.0/avr/include/util/delay.h **** 
 131:/usr/local/Cellar/avr-gcc/8.3.0/avr/include/util/delay.h ****    When the user request delay which exceed the maximum possible one,
 132:/usr/local/Cellar/avr-gcc/8.3.0/avr/include/util/delay.h ****    _delay_ms() provides a decreased resolution functionality. In this
 133:/usr/local/Cellar/avr-gcc/8.3.0/avr/include/util/delay.h ****    mode _delay_ms() will work with a resolution of 1/10 ms, providing
 134:/usr/local/Cellar/avr-gcc/8.3.0/avr/include/util/delay.h ****    delays up to 6.5535 seconds (independent from CPU frequency).  The
 135:/usr/local/Cellar/avr-gcc/8.3.0/avr/include/util/delay.h ****    user will not be informed about decreased resolution.
 136:/usr/local/Cellar/avr-gcc/8.3.0/avr/include/util/delay.h **** 
 137:/usr/local/Cellar/avr-gcc/8.3.0/avr/include/util/delay.h ****    If the avr-gcc toolchain has __builtin_avr_delay_cycles()
 138:/usr/local/Cellar/avr-gcc/8.3.0/avr/include/util/delay.h ****    support, maximal possible delay is 4294967.295 ms/ F_CPU in MHz. For
 139:/usr/local/Cellar/avr-gcc/8.3.0/avr/include/util/delay.h ****    values greater than the maximal possible delay, overflows results in
 140:/usr/local/Cellar/avr-gcc/8.3.0/avr/include/util/delay.h ****    no delay i.e., 0ms.
 141:/usr/local/Cellar/avr-gcc/8.3.0/avr/include/util/delay.h **** 
 142:/usr/local/Cellar/avr-gcc/8.3.0/avr/include/util/delay.h ****    Conversion of \c __ms into clock cycles may not always result in
 143:/usr/local/Cellar/avr-gcc/8.3.0/avr/include/util/delay.h ****    integer.  By default, the clock cycles rounded up to next
 144:/usr/local/Cellar/avr-gcc/8.3.0/avr/include/util/delay.h ****    integer. This ensures that the user gets at least \c __ms
 145:/usr/local/Cellar/avr-gcc/8.3.0/avr/include/util/delay.h ****    microseconds of delay.
 146:/usr/local/Cellar/avr-gcc/8.3.0/avr/include/util/delay.h **** 
 147:/usr/local/Cellar/avr-gcc/8.3.0/avr/include/util/delay.h ****    Alternatively, by defining the macro \c __DELAY_ROUND_DOWN__, or
 148:/usr/local/Cellar/avr-gcc/8.3.0/avr/include/util/delay.h ****    \c __DELAY_ROUND_CLOSEST__, before including this header file, the
 149:/usr/local/Cellar/avr-gcc/8.3.0/avr/include/util/delay.h ****    algorithm can be made to round down, or round to closest integer,
 150:/usr/local/Cellar/avr-gcc/8.3.0/avr/include/util/delay.h ****    respectively.
 151:/usr/local/Cellar/avr-gcc/8.3.0/avr/include/util/delay.h **** 
 152:/usr/local/Cellar/avr-gcc/8.3.0/avr/include/util/delay.h ****    \note
 153:/usr/local/Cellar/avr-gcc/8.3.0/avr/include/util/delay.h **** 
 154:/usr/local/Cellar/avr-gcc/8.3.0/avr/include/util/delay.h ****    The implementation of _delay_ms() based on
 155:/usr/local/Cellar/avr-gcc/8.3.0/avr/include/util/delay.h ****    __builtin_avr_delay_cycles() is not backward compatible with older
 156:/usr/local/Cellar/avr-gcc/8.3.0/avr/include/util/delay.h ****    implementations.  In order to get functionality backward compatible
 157:/usr/local/Cellar/avr-gcc/8.3.0/avr/include/util/delay.h ****    with previous versions, the macro \c "__DELAY_BACKWARD_COMPATIBLE__"
 158:/usr/local/Cellar/avr-gcc/8.3.0/avr/include/util/delay.h ****    must be defined before including this header file. Also, the
 159:/usr/local/Cellar/avr-gcc/8.3.0/avr/include/util/delay.h ****    backward compatible algorithm will be chosen if the code is
 160:/usr/local/Cellar/avr-gcc/8.3.0/avr/include/util/delay.h ****    compiled in a <em>freestanding environment</em> (GCC option
 161:/usr/local/Cellar/avr-gcc/8.3.0/avr/include/util/delay.h ****    \c -ffreestanding), as the math functions required for rounding are
 162:/usr/local/Cellar/avr-gcc/8.3.0/avr/include/util/delay.h ****    not available to the compiler then.
 163:/usr/local/Cellar/avr-gcc/8.3.0/avr/include/util/delay.h **** 
 164:/usr/local/Cellar/avr-gcc/8.3.0/avr/include/util/delay.h ****  */
 165:/usr/local/Cellar/avr-gcc/8.3.0/avr/include/util/delay.h **** void
 166:/usr/local/Cellar/avr-gcc/8.3.0/avr/include/util/delay.h **** _delay_ms(double __ms)
 159               		.loc 2 166 1 view .LVU26
 160               	.LBB5:
 167:/usr/local/Cellar/avr-gcc/8.3.0/avr/include/util/delay.h **** {
 168:/usr/local/Cellar/avr-gcc/8.3.0/avr/include/util/delay.h **** 	double __tmp ;
 161               		.loc 2 168 2 view .LVU27
 169:/usr/local/Cellar/avr-gcc/8.3.0/avr/include/util/delay.h **** #if __HAS_DELAY_CYCLES && defined(__OPTIMIZE__) && \
 170:/usr/local/Cellar/avr-gcc/8.3.0/avr/include/util/delay.h ****   !defined(__DELAY_BACKWARD_COMPATIBLE__) &&	   \
 171:/usr/local/Cellar/avr-gcc/8.3.0/avr/include/util/delay.h ****   __STDC_HOSTED__
 172:/usr/local/Cellar/avr-gcc/8.3.0/avr/include/util/delay.h **** 	uint32_t __ticks_dc;
 162               		.loc 2 172 2 view .LVU28
 173:/usr/local/Cellar/avr-gcc/8.3.0/avr/include/util/delay.h **** 	extern void __builtin_avr_delay_cycles(unsigned long);
 163               		.loc 2 173 2 view .LVU29
 174:/usr/local/Cellar/avr-gcc/8.3.0/avr/include/util/delay.h **** 	__tmp = ((F_CPU) / 1e3) * __ms;
 164               		.loc 2 174 2 view .LVU30
 175:/usr/local/Cellar/avr-gcc/8.3.0/avr/include/util/delay.h **** 
 176:/usr/local/Cellar/avr-gcc/8.3.0/avr/include/util/delay.h **** 	#if defined(__DELAY_ROUND_DOWN__)
 177:/usr/local/Cellar/avr-gcc/8.3.0/avr/include/util/delay.h **** 		__ticks_dc = (uint32_t)fabs(__tmp);
 178:/usr/local/Cellar/avr-gcc/8.3.0/avr/include/util/delay.h **** 
 179:/usr/local/Cellar/avr-gcc/8.3.0/avr/include/util/delay.h **** 	#elif defined(__DELAY_ROUND_CLOSEST__)
 180:/usr/local/Cellar/avr-gcc/8.3.0/avr/include/util/delay.h **** 		__ticks_dc = (uint32_t)(fabs(__tmp)+0.5);
 181:/usr/local/Cellar/avr-gcc/8.3.0/avr/include/util/delay.h **** 
 182:/usr/local/Cellar/avr-gcc/8.3.0/avr/include/util/delay.h **** 	#else
 183:/usr/local/Cellar/avr-gcc/8.3.0/avr/include/util/delay.h **** 		//round up by default
 184:/usr/local/Cellar/avr-gcc/8.3.0/avr/include/util/delay.h **** 		__ticks_dc = (uint32_t)(ceil(fabs(__tmp)));
 165               		.loc 2 184 3 view .LVU31
 185:/usr/local/Cellar/avr-gcc/8.3.0/avr/include/util/delay.h **** 	#endif
 186:/usr/local/Cellar/avr-gcc/8.3.0/avr/include/util/delay.h **** 
 187:/usr/local/Cellar/avr-gcc/8.3.0/avr/include/util/delay.h **** 	__builtin_avr_delay_cycles(__ticks_dc);
 166               		.loc 2 187 2 view .LVU32
 167 0020 8FE3      		ldi r24,lo8(-25537)
 168 0022 9CE9      		ldi r25,hi8(-25537)
 169 0024 0197      	1:	sbiw r24,1
 170 0026 01F4      		brne 1b
 171 0028 00C0      		rjmp .
 172 002a 0000      		nop
 173               	.LVL8:
 174               	/* epilogue start */
 175               		.loc 2 187 2 is_stmt 0 view .LVU33
 176               	.LBE5:
 177               	.LBE4:
 103:quantum/process_keycode/process_unicode_common.c **** }
 178               		.loc 1 103 1 view .LVU34
 179 002c 0895      		ret
 180               	.L8:
  87:quantum/process_keycode/process_unicode_common.c ****     break;
 181               		.loc 1 87 5 is_stmt 1 view .LVU35
 182 002e 82EE      		ldi r24,lo8(-30)
 183 0030 0E94 0000 		call register_code
 184               	.LVL9:
  88:quantum/process_keycode/process_unicode_common.c ****   case UC_LNX:
 185               		.loc 1 88 5 view .LVU36
 186 0034 00C0      		rjmp .L11
 187               	.L7:
  90:quantum/process_keycode/process_unicode_common.c ****     break;
 188               		.loc 1 90 5 view .LVU37
 189 0036 88E1      		ldi r24,lo8(24)
 190 0038 93E0      		ldi r25,lo8(3)
 191 003a 0E94 0000 		call tap_code16
 192               	.LVL10:
  91:quantum/process_keycode/process_unicode_common.c ****   case UC_WIN:
 193               		.loc 1 91 5 view .LVU38
 194 003e 00C0      		rjmp .L11
 195               	.L9:
  93:quantum/process_keycode/process_unicode_common.c ****     tap_code(KC_PPLS);
 196               		.loc 1 93 5 view .LVU39
 197 0040 82EE      		ldi r24,lo8(-30)
 198 0042 0E94 0000 		call register_code
 199               	.LVL11:
  94:quantum/process_keycode/process_unicode_common.c ****     break;
 200               		.loc 1 94 5 view .LVU40
 201 0046 87E5      		ldi r24,lo8(87)
 202               	.L12:
  98:quantum/process_keycode/process_unicode_common.c ****     break;
 203               		.loc 1 98 5 is_stmt 0 view .LVU41
 204 0048 0E94 0000 		call tap_code
 205               	.LVL12:
  99:quantum/process_keycode/process_unicode_common.c ****   }
 206               		.loc 1 99 5 is_stmt 1 view .LVU42
 207 004c 00C0      		rjmp .L11
 208               	.L10:
  97:quantum/process_keycode/process_unicode_common.c ****     tap_code(KC_U);
 209               		.loc 1 97 5 view .LVU43
 210 004e 86EE      		ldi r24,lo8(-26)
 211 0050 0E94 0000 		call tap_code
 212               	.LVL13:
  98:quantum/process_keycode/process_unicode_common.c ****     break;
 213               		.loc 1 98 5 view .LVU44
 214 0054 88E1      		ldi r24,lo8(24)
 215 0056 00C0      		rjmp .L12
 216               		.cfi_endproc
 217               	.LFE116:
 219               		.section	.text.unicode_input_finish,"ax",@progbits
 220               		.weak	unicode_input_finish
 222               	unicode_input_finish:
 223               	.LFB117:
 104:quantum/process_keycode/process_unicode_common.c **** 
 105:quantum/process_keycode/process_unicode_common.c **** __attribute__((weak))
 106:quantum/process_keycode/process_unicode_common.c **** void unicode_input_finish(void) {
 224               		.loc 1 106 33 view -0
 225               		.cfi_startproc
 226               	/* prologue: function */
 227               	/* frame size = 0 */
 228               	/* stack size = 0 */
 229               	.L__stack_usage = 0
 107:quantum/process_keycode/process_unicode_common.c ****   switch (unicode_config.input_mode) {
 230               		.loc 1 107 3 view .LVU46
 231               		.loc 1 107 25 is_stmt 0 view .LVU47
 232 0000 8091 0000 		lds r24,unicode_config
 233               		.loc 1 107 3 view .LVU48
 234 0004 8130      		cpi r24,lo8(1)
 235 0006 01F0      		breq .L14
 236 0008 8823      		tst r24
 237 000a 01F0      		breq .L15
 238 000c 8230      		cpi r24,lo8(2)
 239 000e 01F0      		breq .L15
 240 0010 8430      		cpi r24,lo8(4)
 241 0012 01F0      		breq .L16
 242               	.L17:
 108:quantum/process_keycode/process_unicode_common.c ****   case UC_OSX:
 109:quantum/process_keycode/process_unicode_common.c ****     unregister_code(UNICODE_KEY_OSX);
 110:quantum/process_keycode/process_unicode_common.c ****     break;
 111:quantum/process_keycode/process_unicode_common.c ****   case UC_LNX:
 112:quantum/process_keycode/process_unicode_common.c ****     tap_code(KC_SPC);
 113:quantum/process_keycode/process_unicode_common.c ****     break;
 114:quantum/process_keycode/process_unicode_common.c ****   case UC_WIN:
 115:quantum/process_keycode/process_unicode_common.c ****     unregister_code(KC_LALT);
 116:quantum/process_keycode/process_unicode_common.c ****     break;
 117:quantum/process_keycode/process_unicode_common.c ****   case UC_WINC:
 118:quantum/process_keycode/process_unicode_common.c ****     tap_code(KC_ENTER);
 119:quantum/process_keycode/process_unicode_common.c ****     break;
 120:quantum/process_keycode/process_unicode_common.c ****   }
 121:quantum/process_keycode/process_unicode_common.c **** 
 122:quantum/process_keycode/process_unicode_common.c ****   set_mods(unicode_saved_mods); // Reregister previously set mods
 243               		.loc 1 122 3 is_stmt 1 view .LVU49
 244 0014 8091 0000 		lds r24,unicode_saved_mods
 245 0018 0C94 0000 		jmp set_mods
 246               	.LVL14:
 247               	.L15:
 109:quantum/process_keycode/process_unicode_common.c ****     break;
 248               		.loc 1 109 5 view .LVU50
 249 001c 82EE      		ldi r24,lo8(-30)
 250 001e 0E94 0000 		call unregister_code
 251               	.LVL15:
 110:quantum/process_keycode/process_unicode_common.c ****   case UC_LNX:
 252               		.loc 1 110 5 view .LVU51
 253 0022 00C0      		rjmp .L17
 254               	.L14:
 112:quantum/process_keycode/process_unicode_common.c ****     break;
 255               		.loc 1 112 5 view .LVU52
 256 0024 8CE2      		ldi r24,lo8(44)
 257               	.L24:
 118:quantum/process_keycode/process_unicode_common.c ****     break;
 258               		.loc 1 118 5 is_stmt 0 view .LVU53
 259 0026 0E94 0000 		call tap_code
 260               	.LVL16:
 119:quantum/process_keycode/process_unicode_common.c ****   }
 261               		.loc 1 119 5 is_stmt 1 view .LVU54
 262 002a 00C0      		rjmp .L17
 263               	.L16:
 118:quantum/process_keycode/process_unicode_common.c ****     break;
 264               		.loc 1 118 5 view .LVU55
 265 002c 88E2      		ldi r24,lo8(40)
 266 002e 00C0      		rjmp .L24
 267               		.cfi_endproc
 268               	.LFE117:
 270               		.section	.text.unicode_input_cancel,"ax",@progbits
 271               		.weak	unicode_input_cancel
 273               	unicode_input_cancel:
 274               	.LFB118:
 123:quantum/process_keycode/process_unicode_common.c **** }
 124:quantum/process_keycode/process_unicode_common.c **** 
 125:quantum/process_keycode/process_unicode_common.c **** __attribute__((weak))
 126:quantum/process_keycode/process_unicode_common.c **** void unicode_input_cancel(void) {
 275               		.loc 1 126 33 view -0
 276               		.cfi_startproc
 277               	/* prologue: function */
 278               	/* frame size = 0 */
 279               	/* stack size = 0 */
 280               	.L__stack_usage = 0
 127:quantum/process_keycode/process_unicode_common.c ****   switch (unicode_config.input_mode) {
 281               		.loc 1 127 3 view .LVU57
 282               		.loc 1 127 25 is_stmt 0 view .LVU58
 283 0000 8091 0000 		lds r24,unicode_config
 284               		.loc 1 127 3 view .LVU59
 285 0004 8130      		cpi r24,lo8(1)
 286 0006 01F0      		breq .L26
 287 0008 8823      		tst r24
 288 000a 01F0      		breq .L27
 289 000c 8230      		cpi r24,lo8(2)
 290 000e 01F0      		breq .L27
 291 0010 8430      		cpi r24,lo8(4)
 292 0012 01F4      		brne .L28
 293               	.L26:
 128:quantum/process_keycode/process_unicode_common.c ****   case UC_OSX:
 129:quantum/process_keycode/process_unicode_common.c ****     unregister_code(UNICODE_KEY_OSX);
 130:quantum/process_keycode/process_unicode_common.c ****     break;
 131:quantum/process_keycode/process_unicode_common.c ****   case UC_LNX:
 132:quantum/process_keycode/process_unicode_common.c ****   case UC_WINC:
 133:quantum/process_keycode/process_unicode_common.c ****     tap_code(KC_ESC);
 294               		.loc 1 133 5 is_stmt 1 view .LVU60
 295 0014 89E2      		ldi r24,lo8(41)
 296 0016 0E94 0000 		call tap_code
 297               	.LVL17:
 134:quantum/process_keycode/process_unicode_common.c ****     break;
 298               		.loc 1 134 5 view .LVU61
 299 001a 00C0      		rjmp .L28
 300               	.L27:
 129:quantum/process_keycode/process_unicode_common.c ****     break;
 301               		.loc 1 129 5 view .LVU62
 302 001c 82EE      		ldi r24,lo8(-30)
 303 001e 0E94 0000 		call unregister_code
 304               	.LVL18:
 130:quantum/process_keycode/process_unicode_common.c ****   case UC_LNX:
 305               		.loc 1 130 5 view .LVU63
 306               	.L28:
 135:quantum/process_keycode/process_unicode_common.c ****   case UC_WIN:
 136:quantum/process_keycode/process_unicode_common.c ****     unregister_code(KC_LALT);
 137:quantum/process_keycode/process_unicode_common.c ****     break;
 138:quantum/process_keycode/process_unicode_common.c ****   }
 139:quantum/process_keycode/process_unicode_common.c **** 
 140:quantum/process_keycode/process_unicode_common.c ****   set_mods(unicode_saved_mods); // Reregister previously set mods
 307               		.loc 1 140 3 view .LVU64
 308 0022 8091 0000 		lds r24,unicode_saved_mods
 309 0026 0C94 0000 		jmp set_mods
 310               	.LVL19:
 311               		.cfi_endproc
 312               	.LFE118:
 314               		.section	.text.hex_to_keycode,"ax",@progbits
 315               		.weak	hex_to_keycode
 317               	hex_to_keycode:
 318               	.LVL20:
 319               	.LFB119:
 141:quantum/process_keycode/process_unicode_common.c **** }
 142:quantum/process_keycode/process_unicode_common.c **** 
 143:quantum/process_keycode/process_unicode_common.c **** __attribute__((weak))
 144:quantum/process_keycode/process_unicode_common.c **** uint16_t hex_to_keycode(uint8_t hex) {
 320               		.loc 1 144 38 view -0
 321               		.cfi_startproc
 322               	/* prologue: function */
 323               	/* frame size = 0 */
 324               	/* stack size = 0 */
 325               	.L__stack_usage = 0
 145:quantum/process_keycode/process_unicode_common.c ****   if (hex == 0x0) {
 326               		.loc 1 145 3 view .LVU66
 327               		.loc 1 145 6 is_stmt 0 view .LVU67
 328 0000 8823      		tst r24
 329 0002 01F0      		breq .L44
 146:quantum/process_keycode/process_unicode_common.c ****     return KC_0;
 147:quantum/process_keycode/process_unicode_common.c ****   } else if (hex < 0xA) {
 330               		.loc 1 147 10 is_stmt 1 view .LVU68
 331 0004 90E0      		ldi r25,0
 332               		.loc 1 147 13 is_stmt 0 view .LVU69
 333 0006 8A30      		cpi r24,lo8(10)
 334 0008 00F4      		brsh .L43
 148:quantum/process_keycode/process_unicode_common.c ****     return KC_1 + (hex - 0x1);
 335               		.loc 1 148 5 is_stmt 1 view .LVU70
 336               		.loc 1 148 17 is_stmt 0 view .LVU71
 337 000a 4D96      		adiw r24,29
 338               	.LVL21:
 339               		.loc 1 148 17 view .LVU72
 340 000c 0895      		ret
 341               	.LVL22:
 342               	.L43:
 149:quantum/process_keycode/process_unicode_common.c ****   } else {
 150:quantum/process_keycode/process_unicode_common.c ****     return KC_A + (hex - 0xA);
 343               		.loc 1 150 5 is_stmt 1 view .LVU73
 344               		.loc 1 150 17 is_stmt 0 view .LVU74
 345 000e 0697      		sbiw r24,6
 346               	.LVL23:
 347               		.loc 1 150 17 view .LVU75
 348 0010 0895      		ret
 349               	.LVL24:
 350               	.L44:
 146:quantum/process_keycode/process_unicode_common.c ****   } else if (hex < 0xA) {
 351               		.loc 1 146 12 view .LVU76
 352 0012 87E2      		ldi r24,lo8(39)
 353 0014 90E0      		ldi r25,0
 354               	.LVL25:
 355               	/* epilogue start */
 151:quantum/process_keycode/process_unicode_common.c ****   }
 152:quantum/process_keycode/process_unicode_common.c **** }
 356               		.loc 1 152 1 view .LVU77
 357 0016 0895      		ret
 358               		.cfi_endproc
 359               	.LFE119:
 361               		.section	.text.register_hex,"ax",@progbits
 362               	.global	register_hex
 364               	register_hex:
 365               	.LVL26:
 366               	.LFB120:
 153:quantum/process_keycode/process_unicode_common.c **** 
 154:quantum/process_keycode/process_unicode_common.c **** void register_hex(uint16_t hex) {
 367               		.loc 1 154 33 is_stmt 1 view -0
 368               		.cfi_startproc
 369               		.loc 1 154 33 is_stmt 0 view .LVU79
 370 0000 0F93      		push r16
 371               	.LCFI0:
 372               		.cfi_def_cfa_offset 3
 373               		.cfi_offset 16, -2
 374 0002 1F93      		push r17
 375               	.LCFI1:
 376               		.cfi_def_cfa_offset 4
 377               		.cfi_offset 17, -3
 378 0004 CF93      		push r28
 379               	.LCFI2:
 380               		.cfi_def_cfa_offset 5
 381               		.cfi_offset 28, -4
 382 0006 DF93      		push r29
 383               	.LCFI3:
 384               		.cfi_def_cfa_offset 6
 385               		.cfi_offset 29, -5
 386               	/* prologue: function */
 387               	/* frame size = 0 */
 388               	/* stack size = 4 */
 389               	.L__stack_usage = 4
 390 0008 8C01      		movw r16,r24
 155:quantum/process_keycode/process_unicode_common.c ****   for(int i = 3; i >= 0; i--) {
 391               		.loc 1 155 3 is_stmt 1 view .LVU80
 392               	.LBB6:
 393               		.loc 1 155 7 view .LVU81
 394               	.LVL27:
 395               		.loc 1 155 7 is_stmt 0 view .LVU82
 396               	.LBE6:
 154:quantum/process_keycode/process_unicode_common.c ****   for(int i = 3; i >= 0; i--) {
 397               		.loc 1 154 33 view .LVU83
 398 000a CCE0      		ldi r28,lo8(12)
 399 000c D0E0      		ldi r29,0
 400               	.LVL28:
 401               	.L46:
 402               	.LBB8:
 403               	.LBB7:
 156:quantum/process_keycode/process_unicode_common.c ****     uint8_t digit = ((hex >> (i*4)) & 0xF);
 404               		.loc 1 156 5 is_stmt 1 discriminator 3 view .LVU84
 157:quantum/process_keycode/process_unicode_common.c ****     tap_code(hex_to_keycode(digit));
 405               		.loc 1 157 5 discriminator 3 view .LVU85
 156:quantum/process_keycode/process_unicode_common.c ****     uint8_t digit = ((hex >> (i*4)) & 0xF);
 406               		.loc 1 156 27 is_stmt 0 discriminator 3 view .LVU86
 407 000e C801      		movw r24,r16
 408 0010 0C2E      		mov r0,r28
 409 0012 00C0      		rjmp 2f
 410               		1:
 411 0014 9695      		lsr r25
 412 0016 8795      		ror r24
 413               		2:
 414 0018 0A94      		dec r0
 415 001a 02F4      		brpl 1b
 416               		.loc 1 157 14 discriminator 3 view .LVU87
 417 001c 8F70      		andi r24,lo8(15)
 418 001e 0E94 0000 		call hex_to_keycode
 419               	.LVL29:
 420               		.loc 1 157 5 discriminator 3 view .LVU88
 421 0022 0E94 0000 		call tap_code
 422               	.LVL30:
 423               		.loc 1 157 5 discriminator 3 view .LVU89
 424 0026 2497      		sbiw r28,4
 425               	.LVL31:
 426               		.loc 1 157 5 discriminator 3 view .LVU90
 427               	.LBE7:
 155:quantum/process_keycode/process_unicode_common.c ****     uint8_t digit = ((hex >> (i*4)) & 0xF);
 428               		.loc 1 155 3 discriminator 3 view .LVU91
 429 0028 CC3F      		cpi r28,-4
 430 002a 8FEF      		ldi r24,-1
 431 002c D807      		cpc r29,r24
 432 002e 01F4      		brne .L46
 433               	/* epilogue start */
 434               	.LBE8:
 158:quantum/process_keycode/process_unicode_common.c ****   }
 159:quantum/process_keycode/process_unicode_common.c **** }
 435               		.loc 1 159 1 view .LVU92
 436 0030 DF91      		pop r29
 437 0032 CF91      		pop r28
 438               	.LVL32:
 439               		.loc 1 159 1 view .LVU93
 440 0034 1F91      		pop r17
 441 0036 0F91      		pop r16
 442               	.LVL33:
 443               		.loc 1 159 1 view .LVU94
 444 0038 0895      		ret
 445               		.cfi_endproc
 446               	.LFE120:
 448               		.section	.rodata.send_unicode_hex_string.str1.1,"aMS",@progbits,1
 449               	.LC0:
 450 0000 2000      		.string	" "
 451               		.section	.text.send_unicode_hex_string,"ax",@progbits
 452               	.global	send_unicode_hex_string
 454               	send_unicode_hex_string:
 455               	.LVL34:
 456               	.LFB121:
 160:quantum/process_keycode/process_unicode_common.c **** 
 161:quantum/process_keycode/process_unicode_common.c **** void send_unicode_hex_string(const char *str) {
 457               		.loc 1 161 47 is_stmt 1 view -0
 458               		.cfi_startproc
 459               		.loc 1 161 47 is_stmt 0 view .LVU96
 460 0000 6F92      		push r6
 461               	.LCFI4:
 462               		.cfi_def_cfa_offset 3
 463               		.cfi_offset 6, -2
 464 0002 7F92      		push r7
 465               	.LCFI5:
 466               		.cfi_def_cfa_offset 4
 467               		.cfi_offset 7, -3
 468 0004 8F92      		push r8
 469               	.LCFI6:
 470               		.cfi_def_cfa_offset 5
 471               		.cfi_offset 8, -4
 472 0006 9F92      		push r9
 473               	.LCFI7:
 474               		.cfi_def_cfa_offset 6
 475               		.cfi_offset 9, -5
 476 0008 AF92      		push r10
 477               	.LCFI8:
 478               		.cfi_def_cfa_offset 7
 479               		.cfi_offset 10, -6
 480 000a BF92      		push r11
 481               	.LCFI9:
 482               		.cfi_def_cfa_offset 8
 483               		.cfi_offset 11, -7
 484 000c CF92      		push r12
 485               	.LCFI10:
 486               		.cfi_def_cfa_offset 9
 487               		.cfi_offset 12, -8
 488 000e DF92      		push r13
 489               	.LCFI11:
 490               		.cfi_def_cfa_offset 10
 491               		.cfi_offset 13, -9
 492 0010 EF92      		push r14
 493               	.LCFI12:
 494               		.cfi_def_cfa_offset 11
 495               		.cfi_offset 14, -10
 496 0012 FF92      		push r15
 497               	.LCFI13:
 498               		.cfi_def_cfa_offset 12
 499               		.cfi_offset 15, -11
 500 0014 0F93      		push r16
 501               	.LCFI14:
 502               		.cfi_def_cfa_offset 13
 503               		.cfi_offset 16, -12
 504 0016 1F93      		push r17
 505               	.LCFI15:
 506               		.cfi_def_cfa_offset 14
 507               		.cfi_offset 17, -13
 508 0018 CF93      		push r28
 509               	.LCFI16:
 510               		.cfi_def_cfa_offset 15
 511               		.cfi_offset 28, -14
 512 001a DF93      		push r29
 513               	.LCFI17:
 514               		.cfi_def_cfa_offset 16
 515               		.cfi_offset 29, -15
 516 001c CDB7      		in r28,__SP_L__
 517 001e DEB7      		in r29,__SP_H__
 518               	.LCFI18:
 519               		.cfi_def_cfa_register 28
 520               	/* prologue: function */
 521               	/* frame size = 0 */
 522               	/* stack size = 14 */
 523               	.L__stack_usage = 14
 162:quantum/process_keycode/process_unicode_common.c ****   if (!str) { return; }
 163:quantum/process_keycode/process_unicode_common.c **** 
 164:quantum/process_keycode/process_unicode_common.c ****   while (*str) {
 165:quantum/process_keycode/process_unicode_common.c ****     // Find the next code point (token) in the string
 166:quantum/process_keycode/process_unicode_common.c ****     for (; *str == ' '; str++);
 167:quantum/process_keycode/process_unicode_common.c ****     size_t n = strcspn(str, " "); // Length of the current token
 168:quantum/process_keycode/process_unicode_common.c ****     char code_point[n+1];
 169:quantum/process_keycode/process_unicode_common.c ****     strncpy(code_point, str, n);
 170:quantum/process_keycode/process_unicode_common.c ****     code_point[n] = '\0'; // Make sure it's null-terminated
 171:quantum/process_keycode/process_unicode_common.c **** 
 172:quantum/process_keycode/process_unicode_common.c ****     // Normalize the code point: make all hex digits lowercase
 173:quantum/process_keycode/process_unicode_common.c ****     for (char *p = code_point; *p; p++) {
 174:quantum/process_keycode/process_unicode_common.c ****       *p = tolower((unsigned char)*p);
 175:quantum/process_keycode/process_unicode_common.c ****     }
 176:quantum/process_keycode/process_unicode_common.c **** 
 177:quantum/process_keycode/process_unicode_common.c ****     // Send the code point as a Unicode input string
 178:quantum/process_keycode/process_unicode_common.c ****     unicode_input_start();
 179:quantum/process_keycode/process_unicode_common.c ****     send_string(code_point);
 180:quantum/process_keycode/process_unicode_common.c ****     unicode_input_finish();
 181:quantum/process_keycode/process_unicode_common.c **** 
 182:quantum/process_keycode/process_unicode_common.c ****     str += n; // Move to the first ' ' (or '\0') after the current token
 183:quantum/process_keycode/process_unicode_common.c ****   }
 184:quantum/process_keycode/process_unicode_common.c **** }
 524               		.loc 1 184 1 view .LVU97
 525 0020 6DB6      		in r6,__SP_L__
 526 0022 7EB6      		in r7,__SP_H__
 162:quantum/process_keycode/process_unicode_common.c ****   if (!str) { return; }
 527               		.loc 1 162 3 is_stmt 1 view .LVU98
 162:quantum/process_keycode/process_unicode_common.c ****   if (!str) { return; }
 528               		.loc 1 162 6 is_stmt 0 view .LVU99
 529 0024 0097      		sbiw r24,0
 530 0026 01F0      		breq .+2
 531 0028 00C0      		rjmp .L50
 532               	.L48:
 533               		.loc 1 184 1 view .LVU100
 534 002a 0FB6      		in __tmp_reg__,__SREG__
 535 002c F894      		cli
 536 002e 7EBE      		out __SP_H__,r7
 537 0030 0FBE      		out __SREG__,__tmp_reg__
 538 0032 6DBE      		out __SP_L__,r6
 539               	/* epilogue start */
 540 0034 DF91      		pop r29
 541 0036 CF91      		pop r28
 542 0038 1F91      		pop r17
 543 003a 0F91      		pop r16
 544 003c FF90      		pop r15
 545 003e EF90      		pop r14
 546 0040 DF90      		pop r13
 547 0042 CF90      		pop r12
 548 0044 BF90      		pop r11
 549 0046 AF90      		pop r10
 550 0048 9F90      		pop r9
 551 004a 8F90      		pop r8
 552 004c 7F90      		pop r7
 553 004e 6F90      		pop r6
 554 0050 0895      		ret
 555               	.LVL35:
 556               	.L51:
 557               		.loc 1 184 1 view .LVU101
 558 0052 7F01      		movw r14,r30
 559               	.LVL36:
 560               	.LBB9:
 166:quantum/process_keycode/process_unicode_common.c ****     size_t n = strcspn(str, " "); // Length of the current token
 561               		.loc 1 166 5 discriminator 1 view .LVU102
 562 0054 8191      		ld r24,Z+
 563 0056 8032      		cpi r24,lo8(32)
 564 0058 01F0      		breq .L51
 167:quantum/process_keycode/process_unicode_common.c ****     char code_point[n+1];
 565               		.loc 1 167 5 is_stmt 1 view .LVU103
 167:quantum/process_keycode/process_unicode_common.c ****     char code_point[n+1];
 566               		.loc 1 167 16 is_stmt 0 view .LVU104
 567 005a 60E0      		ldi r22,lo8(.LC0)
 568 005c 70E0      		ldi r23,hi8(.LC0)
 569 005e C701      		movw r24,r14
 570 0060 0E94 0000 		call strcspn
 571               	.LVL37:
 572 0064 8C01      		movw r16,r24
 573               	.LVL38:
 168:quantum/process_keycode/process_unicode_common.c ****     strncpy(code_point, str, n);
 574               		.loc 1 168 5 is_stmt 1 view .LVU105
 575 0066 8DB6      		in r8,__SP_L__
 576 0068 9EB6      		in r9,__SP_H__
 577               	.LVL39:
 168:quantum/process_keycode/process_unicode_common.c ****     strncpy(code_point, str, n);
 578               		.loc 1 168 22 is_stmt 0 view .LVU106
 579 006a 0196      		adiw r24,1
 168:quantum/process_keycode/process_unicode_common.c ****     strncpy(code_point, str, n);
 580               		.loc 1 168 10 view .LVU107
 581 006c 2DB7      		in r18,__SP_L__
 582 006e 3EB7      		in r19,__SP_H__
 583 0070 281B      		sub r18,r24
 584 0072 390B      		sbc r19,r25
 585 0074 0FB6      		in __tmp_reg__,__SREG__
 586 0076 F894      		cli
 587 0078 3EBF      		out __SP_H__,r19
 588 007a 0FBE      		out __SREG__,__tmp_reg__
 589 007c 2DBF      		out __SP_L__,r18
 590 007e 8DB7      		in r24,__SP_L__
 591 0080 9EB7      		in r25,__SP_H__
 592 0082 0196      		adiw r24,1
 593 0084 6C01      		movw r12,r24
 594               	.LVL40:
 169:quantum/process_keycode/process_unicode_common.c ****     code_point[n] = '\0'; // Make sure it's null-terminated
 595               		.loc 1 169 5 is_stmt 1 view .LVU108
 596 0086 A801      		movw r20,r16
 597 0088 B701      		movw r22,r14
 598 008a 0E94 0000 		call strncpy
 599               	.LVL41:
 170:quantum/process_keycode/process_unicode_common.c **** 
 600               		.loc 1 170 5 view .LVU109
 170:quantum/process_keycode/process_unicode_common.c **** 
 601               		.loc 1 170 19 is_stmt 0 view .LVU110
 602 008e F601      		movw r30,r12
 603 0090 E00F      		add r30,r16
 604 0092 F11F      		adc r31,r17
 605 0094 1082      		st Z,__zero_reg__
 173:quantum/process_keycode/process_unicode_common.c ****       *p = tolower((unsigned char)*p);
 606               		.loc 1 173 5 is_stmt 1 view .LVU111
 607               	.LBB10:
 173:quantum/process_keycode/process_unicode_common.c ****       *p = tolower((unsigned char)*p);
 608               		.loc 1 173 10 view .LVU112
 609               	.LVL42:
 173:quantum/process_keycode/process_unicode_common.c ****       *p = tolower((unsigned char)*p);
 610               		.loc 1 173 10 is_stmt 0 view .LVU113
 611 0096 5601      		movw r10,r12
 612               	.LVL43:
 613               	.L52:
 173:quantum/process_keycode/process_unicode_common.c ****       *p = tolower((unsigned char)*p);
 614               		.loc 1 173 32 discriminator 1 view .LVU114
 615 0098 F501      		movw r30,r10
 616 009a 8191      		ld r24,Z+
 617 009c 5F01      		movw r10,r30
 618               	.LVL44:
 173:quantum/process_keycode/process_unicode_common.c ****       *p = tolower((unsigned char)*p);
 619               		.loc 1 173 5 discriminator 1 view .LVU115
 620 009e 8111      		cpse r24,__zero_reg__
 621 00a0 00C0      		rjmp .L53
 622               	.LBE10:
 178:quantum/process_keycode/process_unicode_common.c ****     send_string(code_point);
 623               		.loc 1 178 5 is_stmt 1 view .LVU116
 624 00a2 0E94 0000 		call unicode_input_start
 625               	.LVL45:
 179:quantum/process_keycode/process_unicode_common.c ****     unicode_input_finish();
 626               		.loc 1 179 5 view .LVU117
 627 00a6 C601      		movw r24,r12
 628 00a8 0E94 0000 		call send_string
 629               	.LVL46:
 180:quantum/process_keycode/process_unicode_common.c **** 
 630               		.loc 1 180 5 view .LVU118
 631 00ac 0E94 0000 		call unicode_input_finish
 632               	.LVL47:
 182:quantum/process_keycode/process_unicode_common.c ****   }
 633               		.loc 1 182 5 view .LVU119
 182:quantum/process_keycode/process_unicode_common.c ****   }
 634               		.loc 1 182 9 is_stmt 0 view .LVU120
 635 00b0 C701      		movw r24,r14
 636 00b2 800F      		add r24,r16
 637 00b4 911F      		adc r25,r17
 638               	.LVL48:
 182:quantum/process_keycode/process_unicode_common.c ****   }
 639               		.loc 1 182 9 view .LVU121
 640 00b6 0FB6      		in __tmp_reg__,__SREG__
 641 00b8 F894      		cli
 642 00ba 9EBE      		out __SP_H__,r9
 643 00bc 0FBE      		out __SREG__,__tmp_reg__
 644 00be 8DBE      		out __SP_L__,r8
 645               	.LVL49:
 646               	.L50:
 182:quantum/process_keycode/process_unicode_common.c ****   }
 647               		.loc 1 182 9 view .LVU122
 648               	.LBE9:
 164:quantum/process_keycode/process_unicode_common.c ****     // Find the next code point (token) in the string
 649               		.loc 1 164 9 view .LVU123
 650 00c0 FC01      		movw r30,r24
 651 00c2 2081      		ld r18,Z
 652 00c4 2111      		cpse r18,__zero_reg__
 653 00c6 00C0      		rjmp .L51
 164:quantum/process_keycode/process_unicode_common.c ****     // Find the next code point (token) in the string
 654               		.loc 1 164 9 view .LVU124
 655 00c8 00C0      		rjmp .L48
 656               	.LVL50:
 657               	.L53:
 658               	.LBB12:
 659               	.LBB11:
 174:quantum/process_keycode/process_unicode_common.c ****     }
 660               		.loc 1 174 7 is_stmt 1 discriminator 3 view .LVU125
 174:quantum/process_keycode/process_unicode_common.c ****     }
 661               		.loc 1 174 12 is_stmt 0 discriminator 3 view .LVU126
 662 00ca 90E0      		ldi r25,0
 663 00cc 0E94 0000 		call tolower
 664               	.LVL51:
 174:quantum/process_keycode/process_unicode_common.c ****     }
 665               		.loc 1 174 10 discriminator 3 view .LVU127
 666 00d0 F501      		movw r30,r10
 667 00d2 3197      		sbiw r30,1
 668 00d4 8083      		st Z,r24
 669               	.LVL52:
 174:quantum/process_keycode/process_unicode_common.c ****     }
 670               		.loc 1 174 10 discriminator 3 view .LVU128
 671 00d6 00C0      		rjmp .L52
 672               	.LBE11:
 673               	.LBE12:
 674               		.cfi_endproc
 675               	.LFE121:
 677               		.section	.text.process_unicode_common,"ax",@progbits
 678               	.global	process_unicode_common
 680               	process_unicode_common:
 681               	.LVL53:
 682               	.LFB122:
 185:quantum/process_keycode/process_unicode_common.c **** 
 186:quantum/process_keycode/process_unicode_common.c **** bool process_unicode_common(uint16_t keycode, keyrecord_t *record) {
 683               		.loc 1 186 68 is_stmt 1 view -0
 684               		.cfi_startproc
 685               		.loc 1 186 68 is_stmt 0 view .LVU130
 686 0000 0F93      		push r16
 687               	.LCFI19:
 688               		.cfi_def_cfa_offset 3
 689               		.cfi_offset 16, -2
 690 0002 1F93      		push r17
 691               	.LCFI20:
 692               		.cfi_def_cfa_offset 4
 693               		.cfi_offset 17, -3
 694 0004 CF93      		push r28
 695               	.LCFI21:
 696               		.cfi_def_cfa_offset 5
 697               		.cfi_offset 28, -4
 698 0006 DF93      		push r29
 699               	.LCFI22:
 700               		.cfi_def_cfa_offset 6
 701               		.cfi_offset 29, -5
 702               	/* prologue: function */
 703               	/* frame size = 0 */
 704               	/* stack size = 4 */
 705               	.L__stack_usage = 4
 706 0008 EC01      		movw r28,r24
 707 000a 8B01      		movw r16,r22
 187:quantum/process_keycode/process_unicode_common.c ****   if (record->event.pressed) {
 708               		.loc 1 187 3 is_stmt 1 view .LVU131
 709               		.loc 1 187 6 is_stmt 0 view .LVU132
 710 000c FB01      		movw r30,r22
 711 000e 8281      		ldd r24,Z+2
 712               	.LVL54:
 713               		.loc 1 187 6 view .LVU133
 714 0010 8823      		tst r24
 715 0012 01F0      		breq .L63
 188:quantum/process_keycode/process_unicode_common.c ****     switch (keycode) {
 716               		.loc 1 188 5 is_stmt 1 view .LVU134
 717 0014 C33E      		cpi r28,-29
 718 0016 FCE5      		ldi r31,92
 719 0018 DF07      		cpc r29,r31
 720 001a 01F0      		breq .L64
 721 001c 00F4      		brsh .L65
 722 001e C13E      		cpi r28,-31
 723 0020 ECE5      		ldi r30,92
 724 0022 DE07      		cpc r29,r30
 725 0024 01F0      		breq .L66
 726               	.LBB23:
 727               	.LBB24:
  60:quantum/process_keycode/process_unicode_common.c ****   persist_unicode_input_mode();
 728               		.loc 1 60 29 is_stmt 0 view .LVU135
 729 0026 81E0      		ldi r24,lo8(1)
 730               	.LBE24:
 731               	.LBE23:
 732               		.loc 1 188 5 view .LVU136
 733 0028 C23E      		cpi r28,-30
 734 002a FCE5      		ldi r31,92
 735 002c DF07      		cpc r29,r31
 736 002e 01F0      		breq .L73
 737               	.LVL55:
 738               	.L63:
 189:quantum/process_keycode/process_unicode_common.c ****     case UNICODE_MODE_FORWARD:
 190:quantum/process_keycode/process_unicode_common.c ****       cycle_unicode_input_mode(+1);
 191:quantum/process_keycode/process_unicode_common.c ****       break;
 192:quantum/process_keycode/process_unicode_common.c ****     case UNICODE_MODE_REVERSE:
 193:quantum/process_keycode/process_unicode_common.c ****       cycle_unicode_input_mode(-1);
 194:quantum/process_keycode/process_unicode_common.c ****       break;
 195:quantum/process_keycode/process_unicode_common.c **** 
 196:quantum/process_keycode/process_unicode_common.c ****     case UNICODE_MODE_OSX:
 197:quantum/process_keycode/process_unicode_common.c ****       set_unicode_input_mode(UC_OSX);
 198:quantum/process_keycode/process_unicode_common.c **** #if defined(AUDIO_ENABLE) && defined(UNICODE_SONG_OSX)
 199:quantum/process_keycode/process_unicode_common.c ****       static float song_osx[][2] = UNICODE_SONG_OSX;
 200:quantum/process_keycode/process_unicode_common.c ****       PLAY_SONG(song_osx);
 201:quantum/process_keycode/process_unicode_common.c **** #endif
 202:quantum/process_keycode/process_unicode_common.c ****       break;
 203:quantum/process_keycode/process_unicode_common.c ****     case UNICODE_MODE_LNX:
 204:quantum/process_keycode/process_unicode_common.c ****       set_unicode_input_mode(UC_LNX);
 205:quantum/process_keycode/process_unicode_common.c **** #if defined(AUDIO_ENABLE) && defined(UNICODE_SONG_LNX)
 206:quantum/process_keycode/process_unicode_common.c ****       static float song_lnx[][2] = UNICODE_SONG_LNX;
 207:quantum/process_keycode/process_unicode_common.c ****       PLAY_SONG(song_lnx);
 208:quantum/process_keycode/process_unicode_common.c **** #endif
 209:quantum/process_keycode/process_unicode_common.c ****       break;
 210:quantum/process_keycode/process_unicode_common.c ****     case UNICODE_MODE_WIN:
 211:quantum/process_keycode/process_unicode_common.c ****       set_unicode_input_mode(UC_WIN);
 212:quantum/process_keycode/process_unicode_common.c **** #if defined(AUDIO_ENABLE) && defined(UNICODE_SONG_WIN)
 213:quantum/process_keycode/process_unicode_common.c ****       static float song_win[][2] = UNICODE_SONG_WIN;
 214:quantum/process_keycode/process_unicode_common.c ****       PLAY_SONG(song_win);
 215:quantum/process_keycode/process_unicode_common.c **** #endif
 216:quantum/process_keycode/process_unicode_common.c ****       break;
 217:quantum/process_keycode/process_unicode_common.c ****     case UNICODE_MODE_BSD:
 218:quantum/process_keycode/process_unicode_common.c ****       set_unicode_input_mode(UC_BSD);
 219:quantum/process_keycode/process_unicode_common.c **** #if defined(AUDIO_ENABLE) && defined(UNICODE_SONG_BSD)
 220:quantum/process_keycode/process_unicode_common.c ****       static float song_bsd[][2] = UNICODE_SONG_BSD;
 221:quantum/process_keycode/process_unicode_common.c ****       PLAY_SONG(song_bsd);
 222:quantum/process_keycode/process_unicode_common.c **** #endif
 223:quantum/process_keycode/process_unicode_common.c ****       break;
 224:quantum/process_keycode/process_unicode_common.c ****     case UNICODE_MODE_WINC:
 225:quantum/process_keycode/process_unicode_common.c ****       set_unicode_input_mode(UC_WINC);
 226:quantum/process_keycode/process_unicode_common.c **** #if defined(AUDIO_ENABLE) && defined(UNICODE_SONG_WINC)
 227:quantum/process_keycode/process_unicode_common.c ****       static float song_winc[][2] = UNICODE_SONG_WINC;
 228:quantum/process_keycode/process_unicode_common.c ****       PLAY_SONG(song_winc);
 229:quantum/process_keycode/process_unicode_common.c **** #endif
 230:quantum/process_keycode/process_unicode_common.c ****       break;
 231:quantum/process_keycode/process_unicode_common.c ****     }
 232:quantum/process_keycode/process_unicode_common.c ****   }
 233:quantum/process_keycode/process_unicode_common.c **** #if   defined(UNICODE_ENABLE)
 234:quantum/process_keycode/process_unicode_common.c ****   return process_unicode(keycode, record);
 739               		.loc 1 234 3 is_stmt 1 view .LVU137
 740               		.loc 1 234 10 is_stmt 0 view .LVU138
 741 0030 B801      		movw r22,r16
 742 0032 CE01      		movw r24,r28
 743               	/* epilogue start */
 235:quantum/process_keycode/process_unicode_common.c **** #elif defined(UNICODEMAP_ENABLE)
 236:quantum/process_keycode/process_unicode_common.c ****   return process_unicodemap(keycode, record);
 237:quantum/process_keycode/process_unicode_common.c **** #elif defined(UCIS_ENABLE)
 238:quantum/process_keycode/process_unicode_common.c ****   return process_ucis(keycode, record);
 239:quantum/process_keycode/process_unicode_common.c **** #else
 240:quantum/process_keycode/process_unicode_common.c ****   return true;
 241:quantum/process_keycode/process_unicode_common.c **** #endif
 242:quantum/process_keycode/process_unicode_common.c **** }
 744               		.loc 1 242 1 view .LVU139
 745 0034 DF91      		pop r29
 746 0036 CF91      		pop r28
 747               	.LVL56:
 748               		.loc 1 242 1 view .LVU140
 749 0038 1F91      		pop r17
 750 003a 0F91      		pop r16
 751               	.LVL57:
 234:quantum/process_keycode/process_unicode_common.c **** #elif defined(UNICODEMAP_ENABLE)
 752               		.loc 1 234 10 view .LVU141
 753 003c 0C94 0000 		jmp process_unicode
 754               	.LVL58:
 755               	.L65:
 188:quantum/process_keycode/process_unicode_common.c ****     case UNICODE_MODE_FORWARD:
 756               		.loc 1 188 5 view .LVU142
 757 0040 C43E      		cpi r28,-28
 758 0042 8CE5      		ldi r24,92
 759 0044 D807      		cpc r29,r24
 760 0046 01F0      		breq .L68
 761               	.LBB25:
 762               	.LBB26:
  60:quantum/process_keycode/process_unicode_common.c ****   persist_unicode_input_mode();
 763               		.loc 1 60 29 view .LVU143
 764 0048 84E0      		ldi r24,lo8(4)
 765               	.LBE26:
 766               	.LBE25:
 188:quantum/process_keycode/process_unicode_common.c ****     case UNICODE_MODE_FORWARD:
 767               		.loc 1 188 5 view .LVU144
 768 004a C53E      		cpi r28,-27
 769 004c ECE5      		ldi r30,92
 770 004e DE07      		cpc r29,r30
 771 0050 01F4      		brne .L63
 772               	.L73:
 773               	.LBB29:
 774               	.LBB27:
  60:quantum/process_keycode/process_unicode_common.c ****   persist_unicode_input_mode();
 775               		.loc 1 60 29 view .LVU145
 776 0052 8093 0000 		sts unicode_config,r24
 777 0056 00C0      		rjmp .L74
 778               	.L66:
 779               	.LBE27:
 780               	.LBE29:
 197:quantum/process_keycode/process_unicode_common.c **** #if defined(AUDIO_ENABLE) && defined(UNICODE_SONG_OSX)
 781               		.loc 1 197 7 is_stmt 1 view .LVU146
 782               	.LVL59:
 783               	.LBB30:
 784               	.LBI30:
  59:quantum/process_keycode/process_unicode_common.c ****   unicode_config.input_mode = mode;
 785               		.loc 1 59 6 view .LVU147
 786               	.LBB31:
  60:quantum/process_keycode/process_unicode_common.c ****   persist_unicode_input_mode();
 787               		.loc 1 60 3 view .LVU148
  60:quantum/process_keycode/process_unicode_common.c ****   persist_unicode_input_mode();
 788               		.loc 1 60 29 is_stmt 0 view .LVU149
 789 0058 1092 0000 		sts unicode_config,__zero_reg__
  61:quantum/process_keycode/process_unicode_common.c ****   dprintf("Unicode input mode set to: %u\n", unicode_config.input_mode);
 790               		.loc 1 61 3 is_stmt 1 view .LVU150
 791               	.LVL60:
 792               	.L74:
  61:quantum/process_keycode/process_unicode_common.c ****   dprintf("Unicode input mode set to: %u\n", unicode_config.input_mode);
 793               		.loc 1 61 3 is_stmt 0 view .LVU151
 794               	.LBE31:
 795               	.LBE30:
 796               	.LBB32:
 797               	.LBB28:
  61:quantum/process_keycode/process_unicode_common.c ****   dprintf("Unicode input mode set to: %u\n", unicode_config.input_mode);
 798               		.loc 1 61 3 is_stmt 1 view .LVU152
 799 005c 0E94 0000 		call persist_unicode_input_mode
 800               	.LVL61:
  62:quantum/process_keycode/process_unicode_common.c **** }
 801               		.loc 1 62 72 view .LVU153
 802 0060 00C0      		rjmp .L63
 803               	.L64:
  62:quantum/process_keycode/process_unicode_common.c **** }
 804               		.loc 1 62 72 is_stmt 0 view .LVU154
 805               	.LBE28:
 806               	.LBE32:
 211:quantum/process_keycode/process_unicode_common.c **** #if defined(AUDIO_ENABLE) && defined(UNICODE_SONG_WIN)
 807               		.loc 1 211 7 is_stmt 1 view .LVU155
 808               	.LVL62:
 809               	.LBB33:
 810               	.LBI33:
  59:quantum/process_keycode/process_unicode_common.c ****   unicode_config.input_mode = mode;
 811               		.loc 1 59 6 view .LVU156
 812               	.LBB34:
  60:quantum/process_keycode/process_unicode_common.c ****   persist_unicode_input_mode();
 813               		.loc 1 60 3 view .LVU157
  60:quantum/process_keycode/process_unicode_common.c ****   persist_unicode_input_mode();
 814               		.loc 1 60 29 is_stmt 0 view .LVU158
 815 0062 82E0      		ldi r24,lo8(2)
 816 0064 00C0      		rjmp .L73
 817               	.LVL63:
 818               	.L68:
  60:quantum/process_keycode/process_unicode_common.c ****   persist_unicode_input_mode();
 819               		.loc 1 60 29 view .LVU159
 820               	.LBE34:
 821               	.LBE33:
 218:quantum/process_keycode/process_unicode_common.c **** #if defined(AUDIO_ENABLE) && defined(UNICODE_SONG_BSD)
 822               		.loc 1 218 7 is_stmt 1 view .LVU160
 823               	.LBB35:
 824               	.LBI35:
  59:quantum/process_keycode/process_unicode_common.c ****   unicode_config.input_mode = mode;
 825               		.loc 1 59 6 view .LVU161
 826               	.LBB36:
  60:quantum/process_keycode/process_unicode_common.c ****   persist_unicode_input_mode();
 827               		.loc 1 60 3 view .LVU162
  60:quantum/process_keycode/process_unicode_common.c ****   persist_unicode_input_mode();
 828               		.loc 1 60 29 is_stmt 0 view .LVU163
 829 0066 83E0      		ldi r24,lo8(3)
 830 0068 00C0      		rjmp .L73
 831               	.LBE36:
 832               	.LBE35:
 833               		.cfi_endproc
 834               	.LFE122:
 836               		.comm	unicode_saved_mods,1,1
 837               		.comm	unicode_config,4,1
 838               		.text
 839               	.Letext0:
 840               		.file 3 "/usr/local/Cellar/avr-gcc/8.3.0/avr/include/stdint.h"
 841               		.file 4 "/usr/local/Cellar/avr-gcc/8.3.0/lib/avr-gcc/8/gcc/avr/8.3.0/include/stddef.h"
 842               		.file 5 "tmk_core/common/keyboard.h"
 843               		.file 6 "tmk_core/common/action.h"
 844               		.file 7 "lib/lufa/LUFA/Drivers/USB/Core/AVR8/../StdRequestType.h"
 845               		.file 8 "lib/lufa/LUFA/Drivers/USB/Core/AVR8/../DeviceStandardReq.h"
 846               		.file 9 "lib/lufa/LUFA/Drivers/USB/Core/USBTask.h"
 847               		.file 10 "lib/lufa/LUFA/Drivers/USB/Core/HostStandardReq.h"
 848               		.file 11 "/usr/local/Cellar/avr-gcc/8.3.0/avr/include/stdio.h"
 849               		.file 12 "tmk_core/common/report.h"
 850               		.file 13 "tmk_core/common/host.h"
 851               		.file 14 "tmk_core/common/debug.h"
 852               		.file 15 "quantum/keycode_config.h"
 853               		.file 16 "tmk_core/common/keycode.h"
 854               		.file 17 "quantum/quantum_keycodes.h"
 855               		.file 18 "quantum/keymap.h"
 856               		.file 19 "quantum/rgblight_types.h"
 857               		.file 20 "quantum/rgblight.h"
 858               		.file 21 "tmk_core/common/action_layer.h"
 859               		.file 22 "tmk_core/common/timer.h"
 860               		.file 23 "tmk_core/common/action_util.h"
 861               		.file 24 "/usr/local/Cellar/avr-gcc/8.3.0/avr/include/stdlib.h"
 862               		.file 25 "quantum/quantum.h"
 863               		.file 26 "quantum/process_keycode/process_unicode_common.h"
 864               		.file 27 "quantum/process_keycode/process_unicode.h"
 865               		.file 28 "/usr/local/Cellar/avr-gcc/8.3.0/avr/include/ctype.h"
 866               		.file 29 "/usr/local/Cellar/avr-gcc/8.3.0/avr/include/string.h"
 867               		.file 30 "/usr/local/Cellar/avr-gcc/8.3.0/avr/include/avr/eeprom.h"