   1               		.file	"rgblight.c"
   2               	__SP_H__ = 0x3e
   3               	__SP_L__ = 0x3d
   4               	__SREG__ = 0x3f
   5               	__tmp_reg__ = 0
   6               	__zero_reg__ = 1
   7               		.text
   8               	.Ltext0:
   9               		.cfi_sections	.debug_frame
  10               		.section	.text.rgblight_effect_dummy,"ax",@progbits
  12               	rgblight_effect_dummy:
  13               	.LVL0:
  14               	.LFB151:
  15               		.file 1 "quantum/rgblight.c"
   1:quantum/rgblight.c **** /* Copyright 2016-2017 Yang Liu
   2:quantum/rgblight.c ****  *
   3:quantum/rgblight.c ****  * This program is free software: you can redistribute it and/or modify
   4:quantum/rgblight.c ****  * it under the terms of the GNU General Public License as published by
   5:quantum/rgblight.c ****  * the Free Software Foundation, either version 2 of the License, or
   6:quantum/rgblight.c ****  * (at your option) any later version.
   7:quantum/rgblight.c ****  *
   8:quantum/rgblight.c ****  * This program is distributed in the hope that it will be useful,
   9:quantum/rgblight.c ****  * but WITHOUT ANY WARRANTY; without even the implied warranty of
  10:quantum/rgblight.c ****  * MERCHANTABILITY or FITNESS FOR A PARTICULAR PURPOSE.  See the
  11:quantum/rgblight.c ****  * GNU General Public License for more details.
  12:quantum/rgblight.c ****  *
  13:quantum/rgblight.c ****  * You should have received a copy of the GNU General Public License
  14:quantum/rgblight.c ****  * along with this program.  If not, see <http://www.gnu.org/licenses/>.
  15:quantum/rgblight.c ****  */
  16:quantum/rgblight.c **** #include <math.h>
  17:quantum/rgblight.c **** #include <string.h>
  18:quantum/rgblight.c **** #ifdef __AVR__
  19:quantum/rgblight.c ****   #include <avr/eeprom.h>
  20:quantum/rgblight.c ****   #include <avr/interrupt.h>
  21:quantum/rgblight.c **** #endif
  22:quantum/rgblight.c **** #ifdef STM32_EEPROM_ENABLE
  23:quantum/rgblight.c ****   #include "hal.h"
  24:quantum/rgblight.c ****   #include "eeprom.h"
  25:quantum/rgblight.c ****   #include "eeprom_stm32.h"
  26:quantum/rgblight.c **** #endif
  27:quantum/rgblight.c **** #include "wait.h"
  28:quantum/rgblight.c **** #include "progmem.h"
  29:quantum/rgblight.c **** #include "timer.h"
  30:quantum/rgblight.c **** #include "rgblight.h"
  31:quantum/rgblight.c **** #include "color.h"
  32:quantum/rgblight.c **** #include "debug.h"
  33:quantum/rgblight.c **** #include "led_tables.h"
  34:quantum/rgblight.c **** #include "lib/lib8tion/lib8tion.h"
  35:quantum/rgblight.c **** #ifdef VELOCIKEY_ENABLE
  36:quantum/rgblight.c ****   #include "velocikey.h"
  37:quantum/rgblight.c **** #endif
  38:quantum/rgblight.c **** 
  39:quantum/rgblight.c **** #ifdef RGBLIGHT_SPLIT
  40:quantum/rgblight.c ****   /* for split keyboard */
  41:quantum/rgblight.c ****   #define RGBLIGHT_SPLIT_SET_CHANGE_MODE         rgblight_status.change_flags |= RGBLIGHT_STATUS_CH
  42:quantum/rgblight.c ****   #define RGBLIGHT_SPLIT_SET_CHANGE_HSVS         rgblight_status.change_flags |= RGBLIGHT_STATUS_CH
  43:quantum/rgblight.c ****   #define RGBLIGHT_SPLIT_SET_CHANGE_MODEHSVS     rgblight_status.change_flags |= (RGBLIGHT_STATUS_C
  44:quantum/rgblight.c ****   #define RGBLIGHT_SPLIT_SET_CHANGE_TIMER_ENABLE rgblight_status.change_flags |= RGBLIGHT_STATUS_CH
  45:quantum/rgblight.c ****   #define RGBLIGHT_SPLIT_ANIMATION_TICK          rgblight_status.change_flags |= RGBLIGHT_STATUS_AN
  46:quantum/rgblight.c **** #else
  47:quantum/rgblight.c ****   #define RGBLIGHT_SPLIT_SET_CHANGE_MODE
  48:quantum/rgblight.c ****   #define RGBLIGHT_SPLIT_SET_CHANGE_HSVS
  49:quantum/rgblight.c ****   #define RGBLIGHT_SPLIT_SET_CHANGE_MODEHSVS
  50:quantum/rgblight.c ****   #define RGBLIGHT_SPLIT_SET_CHANGE_TIMER_ENABLE
  51:quantum/rgblight.c ****   #define RGBLIGHT_SPLIT_ANIMATION_TICK
  52:quantum/rgblight.c **** #endif
  53:quantum/rgblight.c **** 
  54:quantum/rgblight.c **** #define _RGBM_SINGLE_STATIC(sym)   RGBLIGHT_MODE_ ## sym,
  55:quantum/rgblight.c **** #define _RGBM_SINGLE_DYNAMIC(sym)
  56:quantum/rgblight.c **** #define _RGBM_MULTI_STATIC(sym)    RGBLIGHT_MODE_ ## sym,
  57:quantum/rgblight.c **** #define _RGBM_MULTI_DYNAMIC(sym)
  58:quantum/rgblight.c **** #define _RGBM_TMP_STATIC(sym, msym)      RGBLIGHT_MODE_ ## sym,
  59:quantum/rgblight.c **** #define _RGBM_TMP_DYNAMIC(sym, msym)
  60:quantum/rgblight.c **** static uint8_t static_effect_table [] = {
  61:quantum/rgblight.c **** #include "rgblight_modes.h"
  62:quantum/rgblight.c **** };
  63:quantum/rgblight.c **** 
  64:quantum/rgblight.c **** #define _RGBM_SINGLE_STATIC(sym)   RGBLIGHT_MODE_ ## sym,
  65:quantum/rgblight.c **** #define _RGBM_SINGLE_DYNAMIC(sym)  RGBLIGHT_MODE_ ## sym,
  66:quantum/rgblight.c **** #define _RGBM_MULTI_STATIC(sym)    RGBLIGHT_MODE_ ## sym,
  67:quantum/rgblight.c **** #define _RGBM_MULTI_DYNAMIC(sym)   RGBLIGHT_MODE_ ## sym,
  68:quantum/rgblight.c **** #define _RGBM_TMP_STATIC(sym, msym)  RGBLIGHT_MODE_ ## msym,
  69:quantum/rgblight.c **** #define _RGBM_TMP_DYNAMIC(sym, msym) RGBLIGHT_MODE_ ## msym,
  70:quantum/rgblight.c **** static uint8_t mode_base_table [] = {
  71:quantum/rgblight.c ****     0, // RGBLIGHT_MODE_zero
  72:quantum/rgblight.c **** #include "rgblight_modes.h"
  73:quantum/rgblight.c **** };
  74:quantum/rgblight.c **** 
  75:quantum/rgblight.c **** static inline int is_static_effect(uint8_t mode) {
  76:quantum/rgblight.c ****     return memchr(static_effect_table, mode, sizeof(static_effect_table)) != NULL;
  77:quantum/rgblight.c **** }
  78:quantum/rgblight.c **** 
  79:quantum/rgblight.c **** #ifdef RGBLIGHT_LED_MAP
  80:quantum/rgblight.c **** const uint8_t led_map[] PROGMEM = RGBLIGHT_LED_MAP;
  81:quantum/rgblight.c **** #endif
  82:quantum/rgblight.c **** 
  83:quantum/rgblight.c **** #ifdef RGBLIGHT_EFFECT_STATIC_GRADIENT
  84:quantum/rgblight.c **** __attribute__ ((weak))
  85:quantum/rgblight.c **** const uint8_t RGBLED_GRADIENT_RANGES[] PROGMEM = {255, 170, 127, 85, 64};
  86:quantum/rgblight.c **** #endif
  87:quantum/rgblight.c **** 
  88:quantum/rgblight.c **** rgblight_config_t rgblight_config;
  89:quantum/rgblight.c **** rgblight_status_t rgblight_status = { .timer_enabled = false };
  90:quantum/rgblight.c **** bool is_rgblight_initialized = false;
  91:quantum/rgblight.c **** 
  92:quantum/rgblight.c **** #ifdef RGBLIGHT_USE_TIMER
  93:quantum/rgblight.c **** animation_status_t animation_status = {};
  94:quantum/rgblight.c **** #endif
  95:quantum/rgblight.c **** 
  96:quantum/rgblight.c **** #ifndef LED_ARRAY
  97:quantum/rgblight.c **** LED_TYPE led[RGBLED_NUM];
  98:quantum/rgblight.c ****   #define LED_ARRAY led
  99:quantum/rgblight.c **** #endif
 100:quantum/rgblight.c **** 
 101:quantum/rgblight.c **** 
 102:quantum/rgblight.c **** static uint8_t clipping_start_pos = 0;
 103:quantum/rgblight.c **** static uint8_t clipping_num_leds = RGBLED_NUM;
 104:quantum/rgblight.c **** 
 105:quantum/rgblight.c **** void rgblight_set_clipping_range(uint8_t start_pos, uint8_t num_leds) {
 106:quantum/rgblight.c ****   clipping_start_pos = start_pos;
 107:quantum/rgblight.c ****   clipping_num_leds = num_leds;
 108:quantum/rgblight.c **** }
 109:quantum/rgblight.c **** 
 110:quantum/rgblight.c **** 
 111:quantum/rgblight.c **** void sethsv(uint8_t hue, uint8_t sat, uint8_t val, LED_TYPE *led1) {
 112:quantum/rgblight.c ****   HSV hsv = { hue, sat, val > RGBLIGHT_LIMIT_VAL ? RGBLIGHT_LIMIT_VAL : val };
 113:quantum/rgblight.c ****   RGB rgb = hsv_to_rgb(hsv);
 114:quantum/rgblight.c ****   setrgb(rgb.r, rgb.g, rgb.b, led1);
 115:quantum/rgblight.c **** }
 116:quantum/rgblight.c **** 
 117:quantum/rgblight.c **** void setrgb(uint8_t r, uint8_t g, uint8_t b, LED_TYPE *led1) {
 118:quantum/rgblight.c ****   (*led1).r = r;
 119:quantum/rgblight.c ****   (*led1).g = g;
 120:quantum/rgblight.c ****   (*led1).b = b;
 121:quantum/rgblight.c **** }
 122:quantum/rgblight.c **** 
 123:quantum/rgblight.c **** void rgblight_check_config(void) {
 124:quantum/rgblight.c ****   /* Add some out of bound checks for RGB light config */
 125:quantum/rgblight.c **** 
 126:quantum/rgblight.c ****   if (rgblight_config.mode < RGBLIGHT_MODE_STATIC_LIGHT) {
 127:quantum/rgblight.c ****     rgblight_config.mode = RGBLIGHT_MODE_STATIC_LIGHT;
 128:quantum/rgblight.c ****   }
 129:quantum/rgblight.c ****   else if (rgblight_config.mode > RGBLIGHT_MODES) {
 130:quantum/rgblight.c ****     rgblight_config.mode = RGBLIGHT_MODES;
 131:quantum/rgblight.c ****   }
 132:quantum/rgblight.c **** 
 133:quantum/rgblight.c ****   if (rgblight_config.val > RGBLIGHT_LIMIT_VAL) {
 134:quantum/rgblight.c ****     rgblight_config.val = RGBLIGHT_LIMIT_VAL;
 135:quantum/rgblight.c ****   }
 136:quantum/rgblight.c **** }
 137:quantum/rgblight.c **** 
 138:quantum/rgblight.c **** uint32_t eeconfig_read_rgblight(void) {
 139:quantum/rgblight.c ****   #if defined(__AVR__) || defined(STM32_EEPROM_ENABLE) || defined(PROTOCOL_ARM_ATSAM) || defined(EE
 140:quantum/rgblight.c ****     return eeprom_read_dword(EECONFIG_RGBLIGHT);
 141:quantum/rgblight.c ****   #else
 142:quantum/rgblight.c ****     return 0;
 143:quantum/rgblight.c ****   #endif
 144:quantum/rgblight.c **** }
 145:quantum/rgblight.c **** 
 146:quantum/rgblight.c **** void eeconfig_update_rgblight(uint32_t val) {
 147:quantum/rgblight.c ****   #if defined(__AVR__) || defined(STM32_EEPROM_ENABLE) || defined(PROTOCOL_ARM_ATSAM) || defined(EE
 148:quantum/rgblight.c ****     rgblight_check_config();
 149:quantum/rgblight.c ****     eeprom_update_dword(EECONFIG_RGBLIGHT, val);
 150:quantum/rgblight.c ****   #endif
 151:quantum/rgblight.c **** }
 152:quantum/rgblight.c **** 
 153:quantum/rgblight.c **** void eeconfig_update_rgblight_default(void) {
 154:quantum/rgblight.c ****   //dprintf("eeconfig_update_rgblight_default\n");
 155:quantum/rgblight.c ****   rgblight_config.enable = 1;
 156:quantum/rgblight.c ****   rgblight_config.mode = RGBLIGHT_MODE_STATIC_LIGHT;
 157:quantum/rgblight.c ****   rgblight_config.hue = 0;
 158:quantum/rgblight.c ****   rgblight_config.sat = UINT8_MAX;
 159:quantum/rgblight.c ****   rgblight_config.val = RGBLIGHT_LIMIT_VAL;
 160:quantum/rgblight.c ****   rgblight_config.speed = 0;
 161:quantum/rgblight.c ****   RGBLIGHT_SPLIT_SET_CHANGE_MODEHSVS;
 162:quantum/rgblight.c ****   eeconfig_update_rgblight(rgblight_config.raw);
 163:quantum/rgblight.c **** }
 164:quantum/rgblight.c **** 
 165:quantum/rgblight.c **** void eeconfig_debug_rgblight(void) {
 166:quantum/rgblight.c ****   dprintf("rgblight_config eprom\n");
 167:quantum/rgblight.c ****   dprintf("rgblight_config.enable = %d\n", rgblight_config.enable);
 168:quantum/rgblight.c ****   dprintf("rghlight_config.mode = %d\n", rgblight_config.mode);
 169:quantum/rgblight.c ****   dprintf("rgblight_config.hue = %d\n", rgblight_config.hue);
 170:quantum/rgblight.c ****   dprintf("rgblight_config.sat = %d\n", rgblight_config.sat);
 171:quantum/rgblight.c ****   dprintf("rgblight_config.val = %d\n", rgblight_config.val);
 172:quantum/rgblight.c ****   dprintf("rgblight_config.speed = %d\n", rgblight_config.speed);
 173:quantum/rgblight.c **** }
 174:quantum/rgblight.c **** 
 175:quantum/rgblight.c **** void rgblight_init(void) {
 176:quantum/rgblight.c ****   /* if already initialized, don't do it again.
 177:quantum/rgblight.c ****      If you must do it again, extern this and set to false, first.
 178:quantum/rgblight.c ****      This is a dirty, dirty hack until proper hooks can be added for keyboard startup. */
 179:quantum/rgblight.c ****   if (is_rgblight_initialized) { return; }
 180:quantum/rgblight.c **** 
 181:quantum/rgblight.c ****   debug_enable = 1; // Debug ON!
 182:quantum/rgblight.c ****   dprintf("rgblight_init called.\n");
 183:quantum/rgblight.c ****   dprintf("rgblight_init start!\n");
 184:quantum/rgblight.c ****   if (!eeconfig_is_enabled()) {
 185:quantum/rgblight.c ****     dprintf("rgblight_init eeconfig is not enabled.\n");
 186:quantum/rgblight.c ****     eeconfig_init();
 187:quantum/rgblight.c ****     eeconfig_update_rgblight_default();
 188:quantum/rgblight.c ****   }
 189:quantum/rgblight.c ****   rgblight_config.raw = eeconfig_read_rgblight();
 190:quantum/rgblight.c ****   RGBLIGHT_SPLIT_SET_CHANGE_MODEHSVS;
 191:quantum/rgblight.c ****   if (!rgblight_config.mode) {
 192:quantum/rgblight.c ****     dprintf("rgblight_init rgblight_config.mode = 0. Write default values to EEPROM.\n");
 193:quantum/rgblight.c ****     eeconfig_update_rgblight_default();
 194:quantum/rgblight.c ****     rgblight_config.raw = eeconfig_read_rgblight();
 195:quantum/rgblight.c ****   }
 196:quantum/rgblight.c ****   rgblight_check_config();
 197:quantum/rgblight.c **** 
 198:quantum/rgblight.c ****   eeconfig_debug_rgblight(); // display current eeprom values
 199:quantum/rgblight.c **** 
 200:quantum/rgblight.c **** #ifdef RGBLIGHT_USE_TIMER
 201:quantum/rgblight.c ****     rgblight_timer_init(); // setup the timer
 202:quantum/rgblight.c **** #endif
 203:quantum/rgblight.c **** 
 204:quantum/rgblight.c ****   if (rgblight_config.enable) {
 205:quantum/rgblight.c ****     rgblight_mode_noeeprom(rgblight_config.mode);
 206:quantum/rgblight.c ****   }
 207:quantum/rgblight.c **** 
 208:quantum/rgblight.c ****   is_rgblight_initialized = true;
 209:quantum/rgblight.c **** 
 210:quantum/rgblight.c **** }
 211:quantum/rgblight.c **** 
 212:quantum/rgblight.c **** uint32_t rgblight_read_dword(void) {
 213:quantum/rgblight.c ****   return rgblight_config.raw;
 214:quantum/rgblight.c **** }
 215:quantum/rgblight.c **** 
 216:quantum/rgblight.c **** void rgblight_update_dword(uint32_t dword) {
 217:quantum/rgblight.c ****   RGBLIGHT_SPLIT_SET_CHANGE_MODEHSVS;
 218:quantum/rgblight.c ****   rgblight_config.raw = dword;
 219:quantum/rgblight.c ****   if (rgblight_config.enable)
 220:quantum/rgblight.c ****     rgblight_mode_noeeprom(rgblight_config.mode);
 221:quantum/rgblight.c ****   else {
 222:quantum/rgblight.c **** #ifdef RGBLIGHT_USE_TIMER
 223:quantum/rgblight.c ****       rgblight_timer_disable();
 224:quantum/rgblight.c **** #endif
 225:quantum/rgblight.c ****       rgblight_set();
 226:quantum/rgblight.c ****   }
 227:quantum/rgblight.c **** }
 228:quantum/rgblight.c **** 
 229:quantum/rgblight.c **** void rgblight_increase(void) {
 230:quantum/rgblight.c ****   uint8_t mode = 0;
 231:quantum/rgblight.c ****   if (rgblight_config.mode < RGBLIGHT_MODES) {
 232:quantum/rgblight.c ****     mode = rgblight_config.mode + 1;
 233:quantum/rgblight.c ****   }
 234:quantum/rgblight.c ****   rgblight_mode(mode);
 235:quantum/rgblight.c **** }
 236:quantum/rgblight.c **** void rgblight_decrease(void) {
 237:quantum/rgblight.c ****   uint8_t mode = 0;
 238:quantum/rgblight.c ****   // Mode will never be < 1. If it ever is, eeprom needs to be initialized.
 239:quantum/rgblight.c ****   if (rgblight_config.mode > RGBLIGHT_MODE_STATIC_LIGHT) {
 240:quantum/rgblight.c ****     mode = rgblight_config.mode - 1;
 241:quantum/rgblight.c ****   }
 242:quantum/rgblight.c ****   rgblight_mode(mode);
 243:quantum/rgblight.c **** }
 244:quantum/rgblight.c **** void rgblight_step_helper(bool write_to_eeprom) {
 245:quantum/rgblight.c ****   uint8_t mode = 0;
 246:quantum/rgblight.c ****   mode = rgblight_config.mode + 1;
 247:quantum/rgblight.c ****   if (mode > RGBLIGHT_MODES) {
 248:quantum/rgblight.c ****     mode = 1;
 249:quantum/rgblight.c ****   }
 250:quantum/rgblight.c ****   rgblight_mode_eeprom_helper(mode, write_to_eeprom);
 251:quantum/rgblight.c **** }
 252:quantum/rgblight.c **** void rgblight_step_noeeprom(void) {
 253:quantum/rgblight.c ****   rgblight_step_helper(false);
 254:quantum/rgblight.c **** }
 255:quantum/rgblight.c **** void rgblight_step(void) {
 256:quantum/rgblight.c ****   rgblight_step_helper(true);
 257:quantum/rgblight.c **** }
 258:quantum/rgblight.c **** void rgblight_step_reverse_helper(bool write_to_eeprom) {
 259:quantum/rgblight.c ****   uint8_t mode = 0;
 260:quantum/rgblight.c ****   mode = rgblight_config.mode - 1;
 261:quantum/rgblight.c ****   if (mode < 1) {
 262:quantum/rgblight.c ****     mode = RGBLIGHT_MODES;
 263:quantum/rgblight.c ****   }
 264:quantum/rgblight.c ****   rgblight_mode_eeprom_helper(mode, write_to_eeprom);
 265:quantum/rgblight.c **** }
 266:quantum/rgblight.c **** void rgblight_step_reverse_noeeprom(void) {
 267:quantum/rgblight.c ****   rgblight_step_reverse_helper(false);
 268:quantum/rgblight.c **** }
 269:quantum/rgblight.c **** void rgblight_step_reverse(void) {
 270:quantum/rgblight.c ****   rgblight_step_reverse_helper(true);
 271:quantum/rgblight.c **** }
 272:quantum/rgblight.c **** 
 273:quantum/rgblight.c **** uint8_t rgblight_get_mode(void) {
 274:quantum/rgblight.c ****   if (!rgblight_config.enable) {
 275:quantum/rgblight.c ****     return false;
 276:quantum/rgblight.c ****   }
 277:quantum/rgblight.c **** 
 278:quantum/rgblight.c ****   return rgblight_config.mode;
 279:quantum/rgblight.c **** }
 280:quantum/rgblight.c **** 
 281:quantum/rgblight.c **** void rgblight_mode_eeprom_helper(uint8_t mode, bool write_to_eeprom) {
 282:quantum/rgblight.c ****   if (!rgblight_config.enable) {
 283:quantum/rgblight.c ****     return;
 284:quantum/rgblight.c ****   }
 285:quantum/rgblight.c ****   if (mode < RGBLIGHT_MODE_STATIC_LIGHT) {
 286:quantum/rgblight.c ****     rgblight_config.mode = RGBLIGHT_MODE_STATIC_LIGHT;
 287:quantum/rgblight.c ****   } else if (mode > RGBLIGHT_MODES) {
 288:quantum/rgblight.c ****     rgblight_config.mode = RGBLIGHT_MODES;
 289:quantum/rgblight.c ****   } else {
 290:quantum/rgblight.c ****     rgblight_config.mode = mode;
 291:quantum/rgblight.c ****   }
 292:quantum/rgblight.c ****   RGBLIGHT_SPLIT_SET_CHANGE_MODE;
 293:quantum/rgblight.c ****   if (write_to_eeprom) {
 294:quantum/rgblight.c ****     eeconfig_update_rgblight(rgblight_config.raw);
 295:quantum/rgblight.c ****     xprintf("rgblight mode [EEPROM]: %u\n", rgblight_config.mode);
 296:quantum/rgblight.c ****   } else {
 297:quantum/rgblight.c ****     xprintf("rgblight mode [NOEEPROM]: %u\n", rgblight_config.mode);
 298:quantum/rgblight.c ****   }
 299:quantum/rgblight.c ****   if( is_static_effect(rgblight_config.mode) ) {
 300:quantum/rgblight.c **** #ifdef RGBLIGHT_USE_TIMER
 301:quantum/rgblight.c ****       rgblight_timer_disable();
 302:quantum/rgblight.c **** #endif
 303:quantum/rgblight.c ****   } else {
 304:quantum/rgblight.c **** #ifdef RGBLIGHT_USE_TIMER
 305:quantum/rgblight.c ****       rgblight_timer_enable();
 306:quantum/rgblight.c **** #endif
 307:quantum/rgblight.c ****   }
 308:quantum/rgblight.c **** #ifdef RGBLIGHT_USE_TIMER
 309:quantum/rgblight.c ****     animation_status.restart = true;
 310:quantum/rgblight.c **** #endif
 311:quantum/rgblight.c ****   rgblight_sethsv_noeeprom(rgblight_config.hue, rgblight_config.sat, rgblight_config.val);
 312:quantum/rgblight.c **** }
 313:quantum/rgblight.c **** 
 314:quantum/rgblight.c **** void rgblight_mode(uint8_t mode) {
 315:quantum/rgblight.c ****   rgblight_mode_eeprom_helper(mode, true);
 316:quantum/rgblight.c **** }
 317:quantum/rgblight.c **** 
 318:quantum/rgblight.c **** void rgblight_mode_noeeprom(uint8_t mode) {
 319:quantum/rgblight.c ****   rgblight_mode_eeprom_helper(mode, false);
 320:quantum/rgblight.c **** }
 321:quantum/rgblight.c **** 
 322:quantum/rgblight.c **** 
 323:quantum/rgblight.c **** void rgblight_toggle(void) {
 324:quantum/rgblight.c ****   xprintf("rgblight toggle [EEPROM]: rgblight_config.enable = %u\n", !rgblight_config.enable);
 325:quantum/rgblight.c ****   if (rgblight_config.enable) {
 326:quantum/rgblight.c ****     rgblight_disable();
 327:quantum/rgblight.c ****   }
 328:quantum/rgblight.c ****   else {
 329:quantum/rgblight.c ****     rgblight_enable();
 330:quantum/rgblight.c ****   }
 331:quantum/rgblight.c **** }
 332:quantum/rgblight.c **** 
 333:quantum/rgblight.c **** void rgblight_toggle_noeeprom(void) {
 334:quantum/rgblight.c ****   xprintf("rgblight toggle [NOEEPROM]: rgblight_config.enable = %u\n", !rgblight_config.enable);
 335:quantum/rgblight.c ****   if (rgblight_config.enable) {
 336:quantum/rgblight.c ****     rgblight_disable_noeeprom();
 337:quantum/rgblight.c ****   }
 338:quantum/rgblight.c ****   else {
 339:quantum/rgblight.c ****     rgblight_enable_noeeprom();
 340:quantum/rgblight.c ****   }
 341:quantum/rgblight.c **** }
 342:quantum/rgblight.c **** 
 343:quantum/rgblight.c **** void rgblight_enable(void) {
 344:quantum/rgblight.c ****   rgblight_config.enable = 1;
 345:quantum/rgblight.c ****   // No need to update EEPROM here. rgblight_mode() will do that, actually
 346:quantum/rgblight.c ****   //eeconfig_update_rgblight(rgblight_config.raw);
 347:quantum/rgblight.c ****   xprintf("rgblight enable [EEPROM]: rgblight_config.enable = %u\n", rgblight_config.enable);
 348:quantum/rgblight.c ****   rgblight_mode(rgblight_config.mode);
 349:quantum/rgblight.c **** }
 350:quantum/rgblight.c **** 
 351:quantum/rgblight.c **** void rgblight_enable_noeeprom(void) {
 352:quantum/rgblight.c ****   rgblight_config.enable = 1;
 353:quantum/rgblight.c ****   xprintf("rgblight enable [NOEEPROM]: rgblight_config.enable = %u\n", rgblight_config.enable);
 354:quantum/rgblight.c ****   rgblight_mode_noeeprom(rgblight_config.mode);
 355:quantum/rgblight.c **** }
 356:quantum/rgblight.c **** 
 357:quantum/rgblight.c **** void rgblight_disable(void) {
 358:quantum/rgblight.c ****   rgblight_config.enable = 0;
 359:quantum/rgblight.c ****   eeconfig_update_rgblight(rgblight_config.raw);
 360:quantum/rgblight.c ****   xprintf("rgblight disable [EEPROM]: rgblight_config.enable = %u\n", rgblight_config.enable);
 361:quantum/rgblight.c **** #ifdef RGBLIGHT_USE_TIMER
 362:quantum/rgblight.c ****       rgblight_timer_disable();
 363:quantum/rgblight.c **** #endif
 364:quantum/rgblight.c ****   RGBLIGHT_SPLIT_SET_CHANGE_MODE;
 365:quantum/rgblight.c ****   wait_ms(50);
 366:quantum/rgblight.c ****   rgblight_set();
 367:quantum/rgblight.c **** }
 368:quantum/rgblight.c **** 
 369:quantum/rgblight.c **** void rgblight_disable_noeeprom(void) {
 370:quantum/rgblight.c ****   rgblight_config.enable = 0;
 371:quantum/rgblight.c ****   xprintf("rgblight disable [noEEPROM]: rgblight_config.enable = %u\n", rgblight_config.enable);
 372:quantum/rgblight.c **** #ifdef RGBLIGHT_USE_TIMER
 373:quantum/rgblight.c ****     rgblight_timer_disable();
 374:quantum/rgblight.c **** #endif
 375:quantum/rgblight.c ****   RGBLIGHT_SPLIT_SET_CHANGE_MODE;
 376:quantum/rgblight.c ****   wait_ms(50);
 377:quantum/rgblight.c ****   rgblight_set();
 378:quantum/rgblight.c **** }
 379:quantum/rgblight.c **** 
 380:quantum/rgblight.c **** void rgblight_increase_hue_helper(bool write_to_eeprom) {
 381:quantum/rgblight.c ****   uint8_t hue = rgblight_config.hue + RGBLIGHT_HUE_STEP;
 382:quantum/rgblight.c ****   rgblight_sethsv_eeprom_helper(hue, rgblight_config.sat, rgblight_config.val, write_to_eeprom);
 383:quantum/rgblight.c **** }
 384:quantum/rgblight.c **** void rgblight_increase_hue_noeeprom(void) {
 385:quantum/rgblight.c ****   rgblight_increase_hue_helper(false);
 386:quantum/rgblight.c **** }
 387:quantum/rgblight.c **** void rgblight_increase_hue(void) {
 388:quantum/rgblight.c ****   rgblight_increase_hue_helper(true);
 389:quantum/rgblight.c **** }
 390:quantum/rgblight.c **** void rgblight_decrease_hue_helper(bool write_to_eeprom) {
 391:quantum/rgblight.c ****   uint8_t hue = rgblight_config.hue - RGBLIGHT_HUE_STEP;
 392:quantum/rgblight.c ****   rgblight_sethsv_eeprom_helper(hue, rgblight_config.sat, rgblight_config.val, write_to_eeprom);
 393:quantum/rgblight.c **** }
 394:quantum/rgblight.c **** void rgblight_decrease_hue_noeeprom(void) {
 395:quantum/rgblight.c ****   rgblight_decrease_hue_helper(false);
 396:quantum/rgblight.c **** }
 397:quantum/rgblight.c **** void rgblight_decrease_hue(void) {
 398:quantum/rgblight.c ****   rgblight_decrease_hue_helper(true);
 399:quantum/rgblight.c **** }
 400:quantum/rgblight.c **** void rgblight_increase_sat_helper(bool write_to_eeprom) {
 401:quantum/rgblight.c ****   uint8_t sat = qadd8(rgblight_config.sat, RGBLIGHT_SAT_STEP);
 402:quantum/rgblight.c ****   rgblight_sethsv_eeprom_helper(rgblight_config.hue, sat, rgblight_config.val, write_to_eeprom);
 403:quantum/rgblight.c **** }
 404:quantum/rgblight.c **** void rgblight_increase_sat_noeeprom(void) {
 405:quantum/rgblight.c ****   rgblight_increase_sat_helper(false);
 406:quantum/rgblight.c **** }
 407:quantum/rgblight.c **** void rgblight_increase_sat(void) {
 408:quantum/rgblight.c ****   rgblight_increase_sat_helper(true);
 409:quantum/rgblight.c **** }
 410:quantum/rgblight.c **** void rgblight_decrease_sat_helper(bool write_to_eeprom) {
 411:quantum/rgblight.c ****   uint8_t sat = qsub8(rgblight_config.sat, RGBLIGHT_SAT_STEP);
 412:quantum/rgblight.c ****   rgblight_sethsv_eeprom_helper(rgblight_config.hue, sat, rgblight_config.val, write_to_eeprom);
 413:quantum/rgblight.c **** }
 414:quantum/rgblight.c **** void rgblight_decrease_sat_noeeprom(void) {
 415:quantum/rgblight.c ****   rgblight_decrease_sat_helper(false);
 416:quantum/rgblight.c **** }
 417:quantum/rgblight.c **** void rgblight_decrease_sat(void) {
 418:quantum/rgblight.c ****   rgblight_decrease_sat_helper(true);
 419:quantum/rgblight.c **** }
 420:quantum/rgblight.c **** void rgblight_increase_val_helper(bool write_to_eeprom) {
 421:quantum/rgblight.c ****   uint8_t val = qadd8(rgblight_config.val, RGBLIGHT_VAL_STEP);
 422:quantum/rgblight.c ****   rgblight_sethsv_eeprom_helper(rgblight_config.hue, rgblight_config.sat, val, write_to_eeprom);
 423:quantum/rgblight.c **** }
 424:quantum/rgblight.c **** void rgblight_increase_val_noeeprom(void) {
 425:quantum/rgblight.c ****   rgblight_increase_val_helper(false);
 426:quantum/rgblight.c **** }
 427:quantum/rgblight.c **** void rgblight_increase_val(void) {
 428:quantum/rgblight.c ****   rgblight_increase_val_helper(true);
 429:quantum/rgblight.c **** }
 430:quantum/rgblight.c **** void rgblight_decrease_val_helper(bool write_to_eeprom) {
 431:quantum/rgblight.c ****   uint8_t val = qsub8(rgblight_config.val, RGBLIGHT_VAL_STEP);
 432:quantum/rgblight.c ****   rgblight_sethsv_eeprom_helper(rgblight_config.hue, rgblight_config.sat, val, write_to_eeprom);
 433:quantum/rgblight.c **** }
 434:quantum/rgblight.c **** void rgblight_decrease_val_noeeprom(void) {
 435:quantum/rgblight.c ****   rgblight_decrease_val_helper(false);
 436:quantum/rgblight.c **** }
 437:quantum/rgblight.c **** void rgblight_decrease_val(void) {
 438:quantum/rgblight.c ****   rgblight_decrease_val_helper(true);
 439:quantum/rgblight.c **** }
 440:quantum/rgblight.c **** void rgblight_increase_speed(void) {
 441:quantum/rgblight.c ****     if (rgblight_config.speed < 3)
 442:quantum/rgblight.c ****         rgblight_config.speed++;
 443:quantum/rgblight.c ****     //RGBLIGHT_SPLIT_SET_CHANGE_HSVS; // NEED?
 444:quantum/rgblight.c ****     eeconfig_update_rgblight(rgblight_config.raw);//EECONFIG needs to be increased to support this
 445:quantum/rgblight.c **** }
 446:quantum/rgblight.c **** 
 447:quantum/rgblight.c **** void rgblight_decrease_speed(void) {
 448:quantum/rgblight.c ****     if (rgblight_config.speed > 0)
 449:quantum/rgblight.c ****         rgblight_config.speed--;
 450:quantum/rgblight.c ****     //RGBLIGHT_SPLIT_SET_CHANGE_HSVS; // NEED??
 451:quantum/rgblight.c ****     eeconfig_update_rgblight(rgblight_config.raw);//EECONFIG needs to be increased to support this
 452:quantum/rgblight.c **** }
 453:quantum/rgblight.c **** 
 454:quantum/rgblight.c **** void rgblight_sethsv_noeeprom_old(uint8_t hue, uint8_t sat, uint8_t val) {
 455:quantum/rgblight.c ****   if (rgblight_config.enable) {
 456:quantum/rgblight.c ****     LED_TYPE tmp_led;
 457:quantum/rgblight.c ****     sethsv(hue, sat, val, &tmp_led);
 458:quantum/rgblight.c ****     // dprintf("rgblight set hue [MEMORY]: %u,%u,%u\n", inmem_config.hue, inmem_config.sat, inmem_c
 459:quantum/rgblight.c ****     rgblight_setrgb(tmp_led.r, tmp_led.g, tmp_led.b);
 460:quantum/rgblight.c ****   }
 461:quantum/rgblight.c **** }
 462:quantum/rgblight.c **** 
 463:quantum/rgblight.c **** void rgblight_sethsv_eeprom_helper(uint8_t hue, uint8_t sat, uint8_t val, bool write_to_eeprom) {
 464:quantum/rgblight.c ****   if (rgblight_config.enable) {
 465:quantum/rgblight.c ****     rgblight_status.base_mode = mode_base_table[rgblight_config.mode];
 466:quantum/rgblight.c ****     if (rgblight_config.mode == RGBLIGHT_MODE_STATIC_LIGHT) {
 467:quantum/rgblight.c ****       // same static color
 468:quantum/rgblight.c ****       LED_TYPE tmp_led;
 469:quantum/rgblight.c ****       sethsv(hue, sat, val, &tmp_led);
 470:quantum/rgblight.c ****       rgblight_setrgb(tmp_led.r, tmp_led.g, tmp_led.b);
 471:quantum/rgblight.c ****     } else {
 472:quantum/rgblight.c ****       // all LEDs in same color
 473:quantum/rgblight.c ****       if ( 1 == 0 ) { //dummy
 474:quantum/rgblight.c ****       }
 475:quantum/rgblight.c **** #ifdef RGBLIGHT_EFFECT_BREATHING
 476:quantum/rgblight.c ****       else if (rgblight_status.base_mode == RGBLIGHT_MODE_BREATHING ) {
 477:quantum/rgblight.c ****         // breathing mode, ignore the change of val, use in memory value instead
 478:quantum/rgblight.c ****         val = rgblight_config.val;
 479:quantum/rgblight.c ****       }
 480:quantum/rgblight.c **** #endif
 481:quantum/rgblight.c **** #ifdef RGBLIGHT_EFFECT_RAINBOW_MOOD
 482:quantum/rgblight.c ****       else if (rgblight_status.base_mode == RGBLIGHT_MODE_RAINBOW_MOOD) {
 483:quantum/rgblight.c ****         // rainbow mood, ignore the change of hue
 484:quantum/rgblight.c ****         hue = rgblight_config.hue;
 485:quantum/rgblight.c ****       }
 486:quantum/rgblight.c **** #endif
 487:quantum/rgblight.c **** #ifdef RGBLIGHT_EFFECT_RAINBOW_SWIRL
 488:quantum/rgblight.c ****       else if (rgblight_status.base_mode == RGBLIGHT_MODE_RAINBOW_SWIRL) {
 489:quantum/rgblight.c ****         // rainbow swirl, ignore the change of hue
 490:quantum/rgblight.c ****         hue = rgblight_config.hue;
 491:quantum/rgblight.c ****       }
 492:quantum/rgblight.c **** #endif
 493:quantum/rgblight.c **** #ifdef RGBLIGHT_EFFECT_STATIC_GRADIENT
 494:quantum/rgblight.c ****       else if (rgblight_status.base_mode == RGBLIGHT_MODE_STATIC_GRADIENT) {
 495:quantum/rgblight.c ****         // static gradient
 496:quantum/rgblight.c ****         uint8_t delta = rgblight_config.mode - rgblight_status.base_mode;
 497:quantum/rgblight.c ****         bool direction = (delta % 2) == 0;
 498:quantum/rgblight.c **** #ifdef __AVR__
 499:quantum/rgblight.c ****         // probably due to how pgm_read_word is defined for ARM, but the ARM compiler really hates 
 500:quantum/rgblight.c ****         uint8_t range = pgm_read_word(&RGBLED_GRADIENT_RANGES[delta / 2]);
 501:quantum/rgblight.c **** #else
 502:quantum/rgblight.c ****         uint8_t range = RGBLED_GRADIENT_RANGES[delta / 2];
 503:quantum/rgblight.c **** #endif
 504:quantum/rgblight.c ****         for (uint8_t i = 0; i < RGBLED_NUM; i++) {
 505:quantum/rgblight.c ****           uint8_t _hue = ((uint16_t)i * (uint16_t)range) / RGBLED_NUM;
 506:quantum/rgblight.c ****           if (direction) {
 507:quantum/rgblight.c ****             _hue = hue + _hue;
 508:quantum/rgblight.c ****           } else {
 509:quantum/rgblight.c ****             _hue = hue - _hue;
 510:quantum/rgblight.c ****           }
 511:quantum/rgblight.c ****           dprintf("rgblight rainbow set hsv: %d,%d,%d,%u\n", i, _hue, direction, range);
 512:quantum/rgblight.c ****           sethsv(_hue, sat, val, (LED_TYPE *)&led[i]);
 513:quantum/rgblight.c ****         }
 514:quantum/rgblight.c ****         rgblight_set();
 515:quantum/rgblight.c ****       }
 516:quantum/rgblight.c **** #endif
 517:quantum/rgblight.c ****     }
 518:quantum/rgblight.c **** #ifdef RGBLIGHT_SPLIT
 519:quantum/rgblight.c ****     if( rgblight_config.hue != hue ||
 520:quantum/rgblight.c ****         rgblight_config.sat != sat ||
 521:quantum/rgblight.c ****         rgblight_config.val != val ) {
 522:quantum/rgblight.c ****         RGBLIGHT_SPLIT_SET_CHANGE_HSVS;
 523:quantum/rgblight.c ****     }
 524:quantum/rgblight.c **** #endif
 525:quantum/rgblight.c ****     rgblight_config.hue = hue;
 526:quantum/rgblight.c ****     rgblight_config.sat = sat;
 527:quantum/rgblight.c ****     rgblight_config.val = val;
 528:quantum/rgblight.c ****     if (write_to_eeprom) {
 529:quantum/rgblight.c ****       eeconfig_update_rgblight(rgblight_config.raw);
 530:quantum/rgblight.c ****       xprintf("rgblight set hsv [EEPROM]: %u,%u,%u\n", rgblight_config.hue, rgblight_config.sat, rg
 531:quantum/rgblight.c ****     } else {
 532:quantum/rgblight.c ****       xprintf("rgblight set hsv [NOEEPROM]: %u,%u,%u\n", rgblight_config.hue, rgblight_config.sat, 
 533:quantum/rgblight.c ****     }
 534:quantum/rgblight.c ****   }
 535:quantum/rgblight.c **** }
 536:quantum/rgblight.c **** 
 537:quantum/rgblight.c **** void rgblight_sethsv(uint8_t hue, uint8_t sat, uint8_t val) {
 538:quantum/rgblight.c ****   rgblight_sethsv_eeprom_helper(hue, sat, val, true);
 539:quantum/rgblight.c **** }
 540:quantum/rgblight.c **** 
 541:quantum/rgblight.c **** void rgblight_sethsv_noeeprom(uint8_t hue, uint8_t sat, uint8_t val) {
 542:quantum/rgblight.c ****   rgblight_sethsv_eeprom_helper(hue, sat, val, false);
 543:quantum/rgblight.c **** }
 544:quantum/rgblight.c **** 
 545:quantum/rgblight.c **** uint8_t rgblight_get_hue(void) {
 546:quantum/rgblight.c ****   return rgblight_config.hue;
 547:quantum/rgblight.c **** }
 548:quantum/rgblight.c **** 
 549:quantum/rgblight.c **** uint8_t rgblight_get_sat(void) {
 550:quantum/rgblight.c ****   return rgblight_config.sat;
 551:quantum/rgblight.c **** }
 552:quantum/rgblight.c **** 
 553:quantum/rgblight.c **** uint8_t rgblight_get_val(void) {
 554:quantum/rgblight.c ****   return rgblight_config.val;
 555:quantum/rgblight.c **** }
 556:quantum/rgblight.c **** 
 557:quantum/rgblight.c **** void rgblight_setrgb(uint8_t r, uint8_t g, uint8_t b) {
 558:quantum/rgblight.c ****   if (!rgblight_config.enable) { return; }
 559:quantum/rgblight.c **** 
 560:quantum/rgblight.c ****   for (uint8_t i = 0; i < RGBLED_NUM; i++) {
 561:quantum/rgblight.c ****     led[i].r = r;
 562:quantum/rgblight.c ****     led[i].g = g;
 563:quantum/rgblight.c ****     led[i].b = b;
 564:quantum/rgblight.c ****   }
 565:quantum/rgblight.c ****   rgblight_set();
 566:quantum/rgblight.c **** }
 567:quantum/rgblight.c **** 
 568:quantum/rgblight.c **** void rgblight_setrgb_at(uint8_t r, uint8_t g, uint8_t b, uint8_t index) {
 569:quantum/rgblight.c ****   if (!rgblight_config.enable || index >= RGBLED_NUM) { return; }
 570:quantum/rgblight.c **** 
 571:quantum/rgblight.c ****   led[index].r = r;
 572:quantum/rgblight.c ****   led[index].g = g;
 573:quantum/rgblight.c ****   led[index].b = b;
 574:quantum/rgblight.c ****   rgblight_set();
 575:quantum/rgblight.c **** }
 576:quantum/rgblight.c **** 
 577:quantum/rgblight.c **** void rgblight_sethsv_at(uint8_t hue, uint8_t sat, uint8_t val, uint8_t index) {
 578:quantum/rgblight.c ****   if (!rgblight_config.enable) { return; }
 579:quantum/rgblight.c **** 
 580:quantum/rgblight.c ****   LED_TYPE tmp_led;
 581:quantum/rgblight.c ****   sethsv(hue, sat, val, &tmp_led);
 582:quantum/rgblight.c ****   rgblight_setrgb_at(tmp_led.r, tmp_led.g, tmp_led.b, index);
 583:quantum/rgblight.c **** }
 584:quantum/rgblight.c **** 
 585:quantum/rgblight.c **** #if defined(RGBLIGHT_EFFECT_BREATHING) || defined(RGBLIGHT_EFFECT_RAINBOW_MOOD) || defined(RGBLIGHT
 586:quantum/rgblight.c ****   || defined(RGBLIGHT_EFFECT_SNAKE) || defined(RGBLIGHT_EFFECT_KNIGHT)
 587:quantum/rgblight.c **** 
 588:quantum/rgblight.c **** static uint8_t get_interval_time(const uint8_t* default_interval_address, uint8_t velocikey_min, ui
 589:quantum/rgblight.c ****   return
 590:quantum/rgblight.c **** #ifdef VELOCIKEY_ENABLE
 591:quantum/rgblight.c ****     velocikey_enabled() ? velocikey_match_speed(velocikey_min, velocikey_max) :
 592:quantum/rgblight.c **** #endif
 593:quantum/rgblight.c ****     pgm_read_byte(default_interval_address);
 594:quantum/rgblight.c **** }
 595:quantum/rgblight.c **** 
 596:quantum/rgblight.c **** #endif
 597:quantum/rgblight.c **** 
 598:quantum/rgblight.c **** void rgblight_setrgb_range(uint8_t r, uint8_t g, uint8_t b, uint8_t start, uint8_t end) {
 599:quantum/rgblight.c ****   if (!rgblight_config.enable || start < 0 || start >= end || end > RGBLED_NUM) { return; }
 600:quantum/rgblight.c **** 
 601:quantum/rgblight.c ****   for (uint8_t i = start; i < end; i++) {
 602:quantum/rgblight.c ****     led[i].r = r;
 603:quantum/rgblight.c ****     led[i].g = g;
 604:quantum/rgblight.c ****     led[i].b = b;
 605:quantum/rgblight.c ****   }
 606:quantum/rgblight.c ****   rgblight_set();
 607:quantum/rgblight.c ****   wait_ms(1);
 608:quantum/rgblight.c **** }
 609:quantum/rgblight.c **** 
 610:quantum/rgblight.c **** void rgblight_sethsv_range(uint8_t hue, uint8_t sat, uint8_t val, uint8_t start, uint8_t end) {
 611:quantum/rgblight.c ****   if (!rgblight_config.enable) { return; }
 612:quantum/rgblight.c **** 
 613:quantum/rgblight.c ****   LED_TYPE tmp_led;
 614:quantum/rgblight.c ****   sethsv(hue, sat, val, &tmp_led);
 615:quantum/rgblight.c ****   rgblight_setrgb_range(tmp_led.r, tmp_led.g, tmp_led.b, start, end);
 616:quantum/rgblight.c **** }
 617:quantum/rgblight.c **** 
 618:quantum/rgblight.c **** void rgblight_setrgb_master(uint8_t r, uint8_t g, uint8_t b) {
 619:quantum/rgblight.c ****   rgblight_setrgb_range(r, g, b, 0 , (uint8_t) RGBLED_NUM/2);
 620:quantum/rgblight.c **** }
 621:quantum/rgblight.c **** 
 622:quantum/rgblight.c **** void rgblight_setrgb_slave(uint8_t r, uint8_t g, uint8_t b) {
 623:quantum/rgblight.c ****   rgblight_setrgb_range(r, g, b, (uint8_t) RGBLED_NUM/2, (uint8_t) RGBLED_NUM);
 624:quantum/rgblight.c **** }
 625:quantum/rgblight.c **** 
 626:quantum/rgblight.c **** void rgblight_sethsv_master(uint8_t hue, uint8_t sat, uint8_t val) {
 627:quantum/rgblight.c ****   rgblight_sethsv_range(hue, sat, val, 0, (uint8_t) RGBLED_NUM/2);
 628:quantum/rgblight.c **** }
 629:quantum/rgblight.c **** 
 630:quantum/rgblight.c **** void rgblight_sethsv_slave(uint8_t hue, uint8_t sat, uint8_t val) {
 631:quantum/rgblight.c ****   rgblight_sethsv_range(hue, sat, val, (uint8_t) RGBLED_NUM/2, (uint8_t) RGBLED_NUM);
 632:quantum/rgblight.c **** }
 633:quantum/rgblight.c **** 
 634:quantum/rgblight.c **** #ifndef RGBLIGHT_CUSTOM_DRIVER
 635:quantum/rgblight.c **** void rgblight_set(void) {
 636:quantum/rgblight.c ****   LED_TYPE *start_led = led + clipping_start_pos;
 637:quantum/rgblight.c ****   uint16_t num_leds = clipping_num_leds;
 638:quantum/rgblight.c ****   if (rgblight_config.enable) {
 639:quantum/rgblight.c ****     #ifdef RGBLIGHT_LED_MAP
 640:quantum/rgblight.c ****       LED_TYPE led0[RGBLED_NUM];
 641:quantum/rgblight.c ****       for(uint8_t i = 0; i < RGBLED_NUM; i++) {
 642:quantum/rgblight.c ****           led0[i] = led[pgm_read_byte(&led_map[i])];
 643:quantum/rgblight.c ****       }
 644:quantum/rgblight.c ****       start_led = led0 + clipping_start_pos;
 645:quantum/rgblight.c ****     #endif
 646:quantum/rgblight.c ****     #ifdef RGBW
 647:quantum/rgblight.c ****       ws2812_setleds_rgbw(start_led, num_leds);
 648:quantum/rgblight.c ****     #else
 649:quantum/rgblight.c ****       ws2812_setleds(start_led, num_leds);
 650:quantum/rgblight.c ****     #endif
 651:quantum/rgblight.c ****   } else {
 652:quantum/rgblight.c ****     for (uint8_t i = 0; i < RGBLED_NUM; i++) {
 653:quantum/rgblight.c ****       led[i].r = 0;
 654:quantum/rgblight.c ****       led[i].g = 0;
 655:quantum/rgblight.c ****       led[i].b = 0;
 656:quantum/rgblight.c ****     }
 657:quantum/rgblight.c ****     #ifdef RGBW
 658:quantum/rgblight.c ****       ws2812_setleds_rgbw(start_led, num_leds);
 659:quantum/rgblight.c ****     #else
 660:quantum/rgblight.c ****       ws2812_setleds(start_led, num_leds);
 661:quantum/rgblight.c ****     #endif
 662:quantum/rgblight.c ****   }
 663:quantum/rgblight.c **** }
 664:quantum/rgblight.c **** #endif
 665:quantum/rgblight.c **** 
 666:quantum/rgblight.c **** #ifdef RGBLIGHT_SPLIT
 667:quantum/rgblight.c **** /* for split keyboard master side */
 668:quantum/rgblight.c **** uint8_t rgblight_get_change_flags(void) {
 669:quantum/rgblight.c ****     return rgblight_status.change_flags;
 670:quantum/rgblight.c **** }
 671:quantum/rgblight.c **** 
 672:quantum/rgblight.c **** void rgblight_clear_change_flags(void) {
 673:quantum/rgblight.c ****     rgblight_status.change_flags = 0;
 674:quantum/rgblight.c **** }
 675:quantum/rgblight.c **** 
 676:quantum/rgblight.c **** void rgblight_get_syncinfo(rgblight_syncinfo_t *syncinfo) {
 677:quantum/rgblight.c ****     syncinfo->config = rgblight_config;
 678:quantum/rgblight.c ****     syncinfo->status = rgblight_status;
 679:quantum/rgblight.c **** }
 680:quantum/rgblight.c **** 
 681:quantum/rgblight.c **** /* for split keyboard slave side */
 682:quantum/rgblight.c **** void rgblight_update_sync(rgblight_syncinfo_t *syncinfo, bool write_to_eeprom) {
 683:quantum/rgblight.c ****     if (syncinfo->status.change_flags & RGBLIGHT_STATUS_CHANGE_MODE) {
 684:quantum/rgblight.c ****         if (syncinfo->config.enable) {
 685:quantum/rgblight.c ****             rgblight_config.enable = 1; // == rgblight_enable_noeeprom();
 686:quantum/rgblight.c ****             rgblight_mode_eeprom_helper(syncinfo->config.mode, write_to_eeprom);
 687:quantum/rgblight.c ****         } else {
 688:quantum/rgblight.c ****             rgblight_disable_noeeprom();
 689:quantum/rgblight.c ****         }
 690:quantum/rgblight.c ****     }
 691:quantum/rgblight.c ****     if (syncinfo->status.change_flags & RGBLIGHT_STATUS_CHANGE_HSVS) {
 692:quantum/rgblight.c ****         rgblight_sethsv_eeprom_helper(syncinfo->config.hue, syncinfo->config.sat, syncinfo->config.
 693:quantum/rgblight.c ****         // rgblight_config.speed = config->speed; // NEED???
 694:quantum/rgblight.c ****     }
 695:quantum/rgblight.c ****   #ifdef RGBLIGHT_USE_TIMER
 696:quantum/rgblight.c ****     if (syncinfo->status.change_flags & RGBLIGHT_STATUS_CHANGE_TIMER) {
 697:quantum/rgblight.c ****         if (syncinfo->status.timer_enabled) {
 698:quantum/rgblight.c ****             rgblight_timer_enable();
 699:quantum/rgblight.c ****         } else {
 700:quantum/rgblight.c ****             rgblight_timer_disable();
 701:quantum/rgblight.c ****         }
 702:quantum/rgblight.c ****     }
 703:quantum/rgblight.c ****     #ifndef RGBLIGHT_SPLIT_NO_ANIMATION_SYNC
 704:quantum/rgblight.c ****     if (syncinfo->status.change_flags & RGBLIGHT_STATUS_ANIMATION_TICK) {
 705:quantum/rgblight.c ****         animation_status.restart = true;
 706:quantum/rgblight.c ****     }
 707:quantum/rgblight.c ****     #endif /* RGBLIGHT_SPLIT_NO_ANIMATION_SYNC */
 708:quantum/rgblight.c ****   #endif /* RGBLIGHT_USE_TIMER */
 709:quantum/rgblight.c **** }
 710:quantum/rgblight.c **** #endif /* RGBLIGHT_SPLIT */
 711:quantum/rgblight.c **** 
 712:quantum/rgblight.c **** #ifdef RGBLIGHT_USE_TIMER
 713:quantum/rgblight.c **** 
 714:quantum/rgblight.c **** typedef void (*effect_func_t)(animation_status_t *anim);
 715:quantum/rgblight.c **** 
 716:quantum/rgblight.c **** // Animation timer -- use system timer (AVR Timer0)
 717:quantum/rgblight.c **** void rgblight_timer_init(void) {
 718:quantum/rgblight.c ****   // OLD!!!! Animation timer -- AVR Timer3
 719:quantum/rgblight.c ****   // static uint8_t rgblight_timer_is_init = 0;
 720:quantum/rgblight.c ****   // if (rgblight_timer_is_init) {
 721:quantum/rgblight.c ****   //   return;
 722:quantum/rgblight.c ****   // }
 723:quantum/rgblight.c ****   // rgblight_timer_is_init = 1;
 724:quantum/rgblight.c ****   // /* Timer 3 setup */
 725:quantum/rgblight.c ****   // TCCR3B = _BV(WGM32) // CTC mode OCR3A as TOP
 726:quantum/rgblight.c ****   //       | _BV(CS30); // Clock selelct: clk/1
 727:quantum/rgblight.c ****   // /* Set TOP value */
 728:quantum/rgblight.c ****   // uint8_t sreg = SREG;
 729:quantum/rgblight.c ****   // cli();
 730:quantum/rgblight.c ****   // OCR3AH = (RGBLED_TIMER_TOP >> 8) & 0xff;
 731:quantum/rgblight.c ****   // OCR3AL = RGBLED_TIMER_TOP & 0xff;
 732:quantum/rgblight.c ****   // SREG = sreg;
 733:quantum/rgblight.c **** 
 734:quantum/rgblight.c ****   rgblight_status.timer_enabled = false;
 735:quantum/rgblight.c ****   RGBLIGHT_SPLIT_SET_CHANGE_TIMER_ENABLE;
 736:quantum/rgblight.c **** }
 737:quantum/rgblight.c **** void rgblight_timer_enable(void) {
 738:quantum/rgblight.c ****   if( !is_static_effect(rgblight_config.mode) ) {
 739:quantum/rgblight.c ****       rgblight_status.timer_enabled = true;
 740:quantum/rgblight.c ****   }
 741:quantum/rgblight.c ****   animation_status.last_timer = timer_read();
 742:quantum/rgblight.c ****   RGBLIGHT_SPLIT_SET_CHANGE_TIMER_ENABLE;
 743:quantum/rgblight.c ****   dprintf("rgblight timer enabled.\n");
 744:quantum/rgblight.c **** }
 745:quantum/rgblight.c **** void rgblight_timer_disable(void) {
 746:quantum/rgblight.c ****   rgblight_status.timer_enabled = false;
 747:quantum/rgblight.c ****   RGBLIGHT_SPLIT_SET_CHANGE_TIMER_ENABLE;
 748:quantum/rgblight.c ****   dprintf("rgblight timer disable.\n");
 749:quantum/rgblight.c **** }
 750:quantum/rgblight.c **** void rgblight_timer_toggle(void) {
 751:quantum/rgblight.c ****   dprintf("rgblight timer toggle.\n");
 752:quantum/rgblight.c ****   if(rgblight_status.timer_enabled) {
 753:quantum/rgblight.c ****       rgblight_timer_disable();
 754:quantum/rgblight.c ****   } else {
 755:quantum/rgblight.c ****       rgblight_timer_enable();
 756:quantum/rgblight.c ****   }
 757:quantum/rgblight.c **** }
 758:quantum/rgblight.c **** 
 759:quantum/rgblight.c **** void rgblight_show_solid_color(uint8_t r, uint8_t g, uint8_t b) {
 760:quantum/rgblight.c ****   rgblight_enable();
 761:quantum/rgblight.c ****   rgblight_mode(RGBLIGHT_MODE_STATIC_LIGHT);
 762:quantum/rgblight.c ****   rgblight_setrgb(r, g, b);
 763:quantum/rgblight.c **** }
 764:quantum/rgblight.c **** 
 765:quantum/rgblight.c **** static void rgblight_effect_dummy(animation_status_t *anim) {
  16               		.loc 1 765 61 view -0
  17               		.cfi_startproc
  18               	/* prologue: function */
  19               	/* frame size = 0 */
  20               	/* stack size = 0 */
  21               	.L__stack_usage = 0
 766:quantum/rgblight.c ****     // do nothing
 767:quantum/rgblight.c ****     /********
 768:quantum/rgblight.c ****     dprintf("rgblight_task() what happened?\n");
 769:quantum/rgblight.c ****     dprintf("is_static_effect %d\n", is_static_effect(rgblight_config.mode));
 770:quantum/rgblight.c ****     dprintf("mode = %d, base_mode = %d, timer_enabled %d, ",
 771:quantum/rgblight.c ****             rgblight_config.mode, rgblight_status.base_mode,
 772:quantum/rgblight.c ****             rgblight_status.timer_enabled);
 773:quantum/rgblight.c ****     dprintf("last_timer = %d\n",anim->last_timer);
 774:quantum/rgblight.c ****     **/
 775:quantum/rgblight.c **** }
  22               		.loc 1 775 1 view .LVU1
  23               	/* epilogue start */
  24 0000 0895      		ret
  25               		.cfi_endproc
  26               	.LFE151:
  28               		.section	.text.rgblight_set_clipping_range,"ax",@progbits
  29               	.global	rgblight_set_clipping_range
  31               	rgblight_set_clipping_range:
  32               	.LVL1:
  33               	.LFB79:
 105:quantum/rgblight.c ****   clipping_start_pos = start_pos;
  34               		.loc 1 105 71 view -0
  35               		.cfi_startproc
  36               	/* prologue: function */
  37               	/* frame size = 0 */
  38               	/* stack size = 0 */
  39               	.L__stack_usage = 0
 106:quantum/rgblight.c ****   clipping_num_leds = num_leds;
  40               		.loc 1 106 3 view .LVU3
 106:quantum/rgblight.c ****   clipping_num_leds = num_leds;
  41               		.loc 1 106 22 is_stmt 0 view .LVU4
  42 0000 8093 0000 		sts clipping_start_pos,r24
 107:quantum/rgblight.c **** }
  43               		.loc 1 107 3 is_stmt 1 view .LVU5
 107:quantum/rgblight.c **** }
  44               		.loc 1 107 21 is_stmt 0 view .LVU6
  45 0004 6093 0000 		sts clipping_num_leds,r22
  46               	/* epilogue start */
 108:quantum/rgblight.c **** 
  47               		.loc 1 108 1 view .LVU7
  48 0008 0895      		ret
  49               		.cfi_endproc
  50               	.LFE79:
  52               		.section	.text.sethsv,"ax",@progbits
  53               	.global	sethsv
  55               	sethsv:
  56               	.LVL2:
  57               	.LFB80:
 111:quantum/rgblight.c ****   HSV hsv = { hue, sat, val > RGBLIGHT_LIMIT_VAL ? RGBLIGHT_LIMIT_VAL : val };
  58               		.loc 1 111 68 is_stmt 1 view -0
  59               		.cfi_startproc
 111:quantum/rgblight.c ****   HSV hsv = { hue, sat, val > RGBLIGHT_LIMIT_VAL ? RGBLIGHT_LIMIT_VAL : val };
  60               		.loc 1 111 68 is_stmt 0 view .LVU9
  61 0000 CF93      		push r28
  62               	.LCFI0:
  63               		.cfi_def_cfa_offset 3
  64               		.cfi_offset 28, -2
  65 0002 DF93      		push r29
  66               	.LCFI1:
  67               		.cfi_def_cfa_offset 4
  68               		.cfi_offset 29, -3
  69               	/* prologue: function */
  70               	/* frame size = 0 */
  71               	/* stack size = 2 */
  72               	.L__stack_usage = 2
  73 0004 762F      		mov r23,r22
  74 0006 E901      		movw r28,r18
 112:quantum/rgblight.c ****   RGB rgb = hsv_to_rgb(hsv);
  75               		.loc 1 112 3 is_stmt 1 view .LVU10
 113:quantum/rgblight.c ****   setrgb(rgb.r, rgb.g, rgb.b, led1);
  76               		.loc 1 113 3 view .LVU11
 113:quantum/rgblight.c ****   setrgb(rgb.r, rgb.g, rgb.b, led1);
  77               		.loc 1 113 13 is_stmt 0 view .LVU12
  78 0008 682F      		mov r22,r24
  79               	.LVL3:
 113:quantum/rgblight.c ****   setrgb(rgb.r, rgb.g, rgb.b, led1);
  80               		.loc 1 113 13 view .LVU13
  81 000a 842F      		mov r24,r20
  82               	.LVL4:
 113:quantum/rgblight.c ****   setrgb(rgb.r, rgb.g, rgb.b, led1);
  83               		.loc 1 113 13 view .LVU14
  84 000c 0E94 0000 		call hsv_to_rgb
  85               	.LVL5:
 114:quantum/rgblight.c **** }
  86               		.loc 1 114 3 is_stmt 1 view .LVU15
  87               	.LBB20:
  88               	.LBI20:
 117:quantum/rgblight.c ****   (*led1).r = r;
  89               		.loc 1 117 6 view .LVU16
  90               	.LBB21:
 118:quantum/rgblight.c ****   (*led1).g = g;
  91               		.loc 1 118 3 view .LVU17
 119:quantum/rgblight.c ****   (*led1).b = b;
  92               		.loc 1 119 3 view .LVU18
 119:quantum/rgblight.c ****   (*led1).b = b;
  93               		.loc 1 119 13 is_stmt 0 view .LVU19
  94 0010 362F      		mov r19,r22
 119:quantum/rgblight.c ****   (*led1).b = b;
  95               		.loc 1 119 13 view .LVU20
  96 0012 272F      		mov r18,r23
  97 0014 3983      		std Y+1,r19
  98 0016 2883      		st Y,r18
 120:quantum/rgblight.c **** }
  99               		.loc 1 120 3 is_stmt 1 view .LVU21
 120:quantum/rgblight.c **** }
 100               		.loc 1 120 13 is_stmt 0 view .LVU22
 101 0018 8A83      		std Y+2,r24
 102               	.LVL6:
 103               	/* epilogue start */
 120:quantum/rgblight.c **** }
 104               		.loc 1 120 13 view .LVU23
 105               	.LBE21:
 106               	.LBE20:
 115:quantum/rgblight.c **** 
 107               		.loc 1 115 1 view .LVU24
 108 001a DF91      		pop r29
 109 001c CF91      		pop r28
 110               	.LVL7:
 115:quantum/rgblight.c **** 
 111               		.loc 1 115 1 view .LVU25
 112 001e 0895      		ret
 113               		.cfi_endproc
 114               	.LFE80:
 116               		.section	.text.setrgb,"ax",@progbits
 117               	.global	setrgb
 119               	setrgb:
 120               	.LVL8:
 121               	.LFB81:
 117:quantum/rgblight.c ****   (*led1).r = r;
 122               		.loc 1 117 62 is_stmt 1 view -0
 123               		.cfi_startproc
 124               	/* prologue: function */
 125               	/* frame size = 0 */
 126               	/* stack size = 0 */
 127               	.L__stack_usage = 0
 117:quantum/rgblight.c ****   (*led1).r = r;
 128               		.loc 1 117 62 is_stmt 0 view .LVU27
 129 0000 F901      		movw r30,r18
 118:quantum/rgblight.c ****   (*led1).g = g;
 130               		.loc 1 118 3 is_stmt 1 view .LVU28
 118:quantum/rgblight.c ****   (*led1).g = g;
 131               		.loc 1 118 13 is_stmt 0 view .LVU29
 132 0002 8183      		std Z+1,r24
 119:quantum/rgblight.c ****   (*led1).b = b;
 133               		.loc 1 119 3 is_stmt 1 view .LVU30
 119:quantum/rgblight.c ****   (*led1).b = b;
 134               		.loc 1 119 13 is_stmt 0 view .LVU31
 135 0004 6083      		st Z,r22
 120:quantum/rgblight.c **** }
 136               		.loc 1 120 3 is_stmt 1 view .LVU32
 120:quantum/rgblight.c **** }
 137               		.loc 1 120 13 is_stmt 0 view .LVU33
 138 0006 4283      		std Z+2,r20
 139               	/* epilogue start */
 121:quantum/rgblight.c **** 
 140               		.loc 1 121 1 view .LVU34
 141 0008 0895      		ret
 142               		.cfi_endproc
 143               	.LFE81:
 145               		.section	.text.rgblight_check_config,"ax",@progbits
 146               	.global	rgblight_check_config
 148               	rgblight_check_config:
 149               	.LFB82:
 123:quantum/rgblight.c ****   /* Add some out of bound checks for RGB light config */
 150               		.loc 1 123 34 is_stmt 1 view -0
 151               		.cfi_startproc
 152               	/* prologue: function */
 153               	/* frame size = 0 */
 154               	/* stack size = 0 */
 155               	.L__stack_usage = 0
 126:quantum/rgblight.c ****     rgblight_config.mode = RGBLIGHT_MODE_STATIC_LIGHT;
 156               		.loc 1 126 3 view .LVU36
 126:quantum/rgblight.c ****     rgblight_config.mode = RGBLIGHT_MODE_STATIC_LIGHT;
 157               		.loc 1 126 28 is_stmt 0 view .LVU37
 158 0000 8091 0000 		lds r24,rgblight_config
 159 0004 982F      		mov r25,r24
 160 0006 9E7F      		andi r25,lo8(-2)
 126:quantum/rgblight.c ****     rgblight_config.mode = RGBLIGHT_MODE_STATIC_LIGHT;
 161               		.loc 1 126 6 view .LVU38
 162 0008 01F4      		brne .L6
 127:quantum/rgblight.c ****   }
 163               		.loc 1 127 5 is_stmt 1 view .LVU39
 127:quantum/rgblight.c ****   }
 164               		.loc 1 127 26 is_stmt 0 view .LVU40
 165 000a 8170      		andi r24,lo8(1)
 166 000c 8260      		ori r24,lo8(2)
 167               	.L8:
 130:quantum/rgblight.c ****   }
 168               		.loc 1 130 26 view .LVU41
 169 000e 8093 0000 		sts rgblight_config,r24
 133:quantum/rgblight.c ****     rgblight_config.val = RGBLIGHT_LIMIT_VAL;
 170               		.loc 1 133 3 is_stmt 1 view .LVU42
 171               	.L5:
 172               	/* epilogue start */
 136:quantum/rgblight.c **** 
 173               		.loc 1 136 1 is_stmt 0 view .LVU43
 174 0012 0895      		ret
 175               	.L6:
 129:quantum/rgblight.c ****     rgblight_config.mode = RGBLIGHT_MODES;
 176               		.loc 1 129 8 is_stmt 1 view .LVU44
 129:quantum/rgblight.c ****     rgblight_config.mode = RGBLIGHT_MODES;
 177               		.loc 1 129 11 is_stmt 0 view .LVU45
 178 0014 8A34      		cpi r24,lo8(74)
 179 0016 00F0      		brlo .L5
 130:quantum/rgblight.c ****   }
 180               		.loc 1 130 5 is_stmt 1 view .LVU46
 130:quantum/rgblight.c ****   }
 181               		.loc 1 130 26 is_stmt 0 view .LVU47
 182 0018 8170      		andi r24,lo8(1)
 183 001a 8864      		ori r24,lo8(72)
 184 001c 00C0      		rjmp .L8
 185               		.cfi_endproc
 186               	.LFE82:
 188               		.section	.text.eeconfig_read_rgblight,"ax",@progbits
 189               	.global	eeconfig_read_rgblight
 191               	eeconfig_read_rgblight:
 192               	.LFB83:
 138:quantum/rgblight.c ****   #if defined(__AVR__) || defined(STM32_EEPROM_ENABLE) || defined(PROTOCOL_ARM_ATSAM) || defined(EE
 193               		.loc 1 138 39 is_stmt 1 view -0
 194               		.cfi_startproc
 195               	/* prologue: function */
 196               	/* frame size = 0 */
 197               	/* stack size = 0 */
 198               	.L__stack_usage = 0
 140:quantum/rgblight.c ****   #else
 199               		.loc 1 140 5 view .LVU49
 140:quantum/rgblight.c ****   #else
 200               		.loc 1 140 12 is_stmt 0 view .LVU50
 201 0000 88E0      		ldi r24,lo8(8)
 202 0002 90E0      		ldi r25,0
 203 0004 0C94 0000 		jmp eeprom_read_dword
 204               	.LVL9:
 205               		.cfi_endproc
 206               	.LFE83:
 208               		.section	.text.eeconfig_update_rgblight,"ax",@progbits
 209               	.global	eeconfig_update_rgblight
 211               	eeconfig_update_rgblight:
 212               	.LVL10:
 213               	.LFB84:
 146:quantum/rgblight.c ****   #if defined(__AVR__) || defined(STM32_EEPROM_ENABLE) || defined(PROTOCOL_ARM_ATSAM) || defined(EE
 214               		.loc 1 146 45 is_stmt 1 view -0
 215               		.cfi_startproc
 146:quantum/rgblight.c ****   #if defined(__AVR__) || defined(STM32_EEPROM_ENABLE) || defined(PROTOCOL_ARM_ATSAM) || defined(EE
 216               		.loc 1 146 45 is_stmt 0 view .LVU52
 217 0000 CF92      		push r12
 218               	.LCFI2:
 219               		.cfi_def_cfa_offset 3
 220               		.cfi_offset 12, -2
 221 0002 DF92      		push r13
 222               	.LCFI3:
 223               		.cfi_def_cfa_offset 4
 224               		.cfi_offset 13, -3
 225 0004 EF92      		push r14
 226               	.LCFI4:
 227               		.cfi_def_cfa_offset 5
 228               		.cfi_offset 14, -4
 229 0006 FF92      		push r15
 230               	.LCFI5:
 231               		.cfi_def_cfa_offset 6
 232               		.cfi_offset 15, -5
 233               	/* prologue: function */
 234               	/* frame size = 0 */
 235               	/* stack size = 4 */
 236               	.L__stack_usage = 4
 237 0008 6B01      		movw r12,r22
 238 000a 7C01      		movw r14,r24
 148:quantum/rgblight.c ****     eeprom_update_dword(EECONFIG_RGBLIGHT, val);
 239               		.loc 1 148 5 is_stmt 1 view .LVU53
 240 000c 0E94 0000 		call rgblight_check_config
 241               	.LVL11:
 149:quantum/rgblight.c ****   #endif
 242               		.loc 1 149 5 view .LVU54
 243 0010 B701      		movw r22,r14
 244 0012 A601      		movw r20,r12
 245 0014 88E0      		ldi r24,lo8(8)
 246 0016 90E0      		ldi r25,0
 247               	/* epilogue start */
 151:quantum/rgblight.c **** 
 248               		.loc 1 151 1 is_stmt 0 view .LVU55
 249 0018 FF90      		pop r15
 250 001a EF90      		pop r14
 251 001c DF90      		pop r13
 252 001e CF90      		pop r12
 149:quantum/rgblight.c ****   #endif
 253               		.loc 1 149 5 view .LVU56
 254 0020 0C94 0000 		jmp eeprom_update_dword
 255               	.LVL12:
 256               		.cfi_endproc
 257               	.LFE84:
 259               		.section	.text.eeconfig_update_rgblight_default,"ax",@progbits
 260               	.global	eeconfig_update_rgblight_default
 262               	eeconfig_update_rgblight_default:
 263               	.LFB85:
 153:quantum/rgblight.c ****   //dprintf("eeconfig_update_rgblight_default\n");
 264               		.loc 1 153 45 is_stmt 1 view -0
 265               		.cfi_startproc
 266               	/* prologue: function */
 267               	/* frame size = 0 */
 268               	/* stack size = 0 */
 269               	.L__stack_usage = 0
 155:quantum/rgblight.c ****   rgblight_config.mode = RGBLIGHT_MODE_STATIC_LIGHT;
 270               		.loc 1 155 3 view .LVU58
 156:quantum/rgblight.c ****   rgblight_config.hue = 0;
 271               		.loc 1 156 3 view .LVU59
 157:quantum/rgblight.c ****   rgblight_config.sat = UINT8_MAX;
 272               		.loc 1 157 3 view .LVU60
 158:quantum/rgblight.c ****   rgblight_config.val = RGBLIGHT_LIMIT_VAL;
 273               		.loc 1 158 3 view .LVU61
 159:quantum/rgblight.c ****   rgblight_config.speed = 0;
 274               		.loc 1 159 3 view .LVU62
 160:quantum/rgblight.c ****   RGBLIGHT_SPLIT_SET_CHANGE_MODEHSVS;
 275               		.loc 1 160 3 view .LVU63
 155:quantum/rgblight.c ****   rgblight_config.mode = RGBLIGHT_MODE_STATIC_LIGHT;
 276               		.loc 1 155 26 is_stmt 0 view .LVU64
 277 0000 E0E0      		ldi r30,lo8(rgblight_config)
 278 0002 F0E0      		ldi r31,hi8(rgblight_config)
 279 0004 83E0      		ldi r24,lo8(3)
 280 0006 8083      		st Z,r24
 157:quantum/rgblight.c ****   rgblight_config.sat = UINT8_MAX;
 281               		.loc 1 157 23 view .LVU65
 282 0008 1182      		std Z+1,__zero_reg__
 158:quantum/rgblight.c ****   rgblight_config.val = RGBLIGHT_LIMIT_VAL;
 283               		.loc 1 158 23 view .LVU66
 284 000a 8FEF      		ldi r24,lo8(-1)
 285 000c 8283      		std Z+2,r24
 159:quantum/rgblight.c ****   rgblight_config.speed = 0;
 286               		.loc 1 159 23 view .LVU67
 287 000e 8383      		std Z+3,r24
 160:quantum/rgblight.c ****   RGBLIGHT_SPLIT_SET_CHANGE_MODEHSVS;
 288               		.loc 1 160 25 view .LVU68
 289 0010 1482      		std Z+4,__zero_reg__
 161:quantum/rgblight.c ****   eeconfig_update_rgblight(rgblight_config.raw);
 290               		.loc 1 161 37 is_stmt 1 view .LVU69
 162:quantum/rgblight.c **** }
 291               		.loc 1 162 3 view .LVU70
 292 0012 6081      		ld r22,Z
 293 0014 7181      		ldd r23,Z+1
 294 0016 8281      		ldd r24,Z+2
 295 0018 9381      		ldd r25,Z+3
 296 001a 0C94 0000 		jmp eeconfig_update_rgblight
 297               	.LVL13:
 298               		.cfi_endproc
 299               	.LFE85:
 301               		.section	.text.eeconfig_debug_rgblight,"ax",@progbits
 302               	.global	eeconfig_debug_rgblight
 304               	eeconfig_debug_rgblight:
 305               	.LFB86:
 165:quantum/rgblight.c ****   dprintf("rgblight_config eprom\n");
 306               		.loc 1 165 36 view -0
 307               		.cfi_startproc
 308               	/* prologue: function */
 309               	/* frame size = 0 */
 310               	/* stack size = 0 */
 311               	.L__stack_usage = 0
 166:quantum/rgblight.c ****   dprintf("rgblight_config.enable = %d\n", rgblight_config.enable);
 312               		.loc 1 166 37 view .LVU72
 167:quantum/rgblight.c ****   dprintf("rghlight_config.mode = %d\n", rgblight_config.mode);
 313               		.loc 1 167 67 view .LVU73
 168:quantum/rgblight.c ****   dprintf("rgblight_config.hue = %d\n", rgblight_config.hue);
 314               		.loc 1 168 63 view .LVU74
 169:quantum/rgblight.c ****   dprintf("rgblight_config.sat = %d\n", rgblight_config.sat);
 315               		.loc 1 169 61 view .LVU75
 170:quantum/rgblight.c ****   dprintf("rgblight_config.val = %d\n", rgblight_config.val);
 316               		.loc 1 170 61 view .LVU76
 171:quantum/rgblight.c ****   dprintf("rgblight_config.speed = %d\n", rgblight_config.speed);
 317               		.loc 1 171 61 view .LVU77
 172:quantum/rgblight.c **** }
 318               		.loc 1 172 65 view .LVU78
 319               	/* epilogue start */
 173:quantum/rgblight.c **** 
 320               		.loc 1 173 1 is_stmt 0 view .LVU79
 321 0000 0895      		ret
 322               		.cfi_endproc
 323               	.LFE86:
 325               		.section	.text.rgblight_read_dword,"ax",@progbits
 326               	.global	rgblight_read_dword
 328               	rgblight_read_dword:
 329               	.LFB88:
 212:quantum/rgblight.c ****   return rgblight_config.raw;
 330               		.loc 1 212 36 is_stmt 1 view -0
 331               		.cfi_startproc
 332               	/* prologue: function */
 333               	/* frame size = 0 */
 334               	/* stack size = 0 */
 335               	.L__stack_usage = 0
 213:quantum/rgblight.c **** }
 336               		.loc 1 213 3 view .LVU81
 213:quantum/rgblight.c **** }
 337               		.loc 1 213 25 is_stmt 0 view .LVU82
 338 0000 6091 0000 		lds r22,rgblight_config
 339 0004 7091 0000 		lds r23,rgblight_config+1
 340 0008 8091 0000 		lds r24,rgblight_config+2
 341 000c 9091 0000 		lds r25,rgblight_config+3
 342               	/* epilogue start */
 214:quantum/rgblight.c **** 
 343               		.loc 1 214 1 view .LVU83
 344 0010 0895      		ret
 345               		.cfi_endproc
 346               	.LFE88:
 348               		.section	.text.rgblight_get_mode,"ax",@progbits
 349               	.global	rgblight_get_mode
 351               	rgblight_get_mode:
 352               	.LFB98:
 273:quantum/rgblight.c ****   if (!rgblight_config.enable) {
 353               		.loc 1 273 33 is_stmt 1 view -0
 354               		.cfi_startproc
 355               	/* prologue: function */
 356               	/* frame size = 0 */
 357               	/* stack size = 0 */
 358               	.L__stack_usage = 0
 274:quantum/rgblight.c ****     return false;
 359               		.loc 1 274 3 view .LVU85
 274:quantum/rgblight.c ****     return false;
 360               		.loc 1 274 23 is_stmt 0 view .LVU86
 361 0000 8091 0000 		lds r24,rgblight_config
 274:quantum/rgblight.c ****     return false;
 362               		.loc 1 274 6 view .LVU87
 363 0004 80FF      		sbrs r24,0
 364 0006 00C0      		rjmp .L16
 278:quantum/rgblight.c **** }
 365               		.loc 1 278 3 is_stmt 1 view .LVU88
 278:quantum/rgblight.c **** }
 366               		.loc 1 278 25 is_stmt 0 view .LVU89
 367 0008 8695      		lsr r24
 368 000a 0895      		ret
 369               	.L16:
 275:quantum/rgblight.c ****   }
 370               		.loc 1 275 12 view .LVU90
 371 000c 80E0      		ldi r24,0
 372               	/* epilogue start */
 279:quantum/rgblight.c **** 
 373               		.loc 1 279 1 view .LVU91
 374 000e 0895      		ret
 375               		.cfi_endproc
 376               	.LFE98:
 378               		.section	.text.rgblight_increase_speed,"ax",@progbits
 379               	.global	rgblight_increase_speed
 381               	rgblight_increase_speed:
 382               	.LFB126:
 440:quantum/rgblight.c ****     if (rgblight_config.speed < 3)
 383               		.loc 1 440 36 is_stmt 1 view -0
 384               		.cfi_startproc
 385               	/* prologue: function */
 386               	/* frame size = 0 */
 387               	/* stack size = 0 */
 388               	.L__stack_usage = 0
 441:quantum/rgblight.c ****         rgblight_config.speed++;
 389               		.loc 1 441 5 view .LVU93
 441:quantum/rgblight.c ****         rgblight_config.speed++;
 390               		.loc 1 441 24 is_stmt 0 view .LVU94
 391 0000 8091 0000 		lds r24,rgblight_config+4
 441:quantum/rgblight.c ****         rgblight_config.speed++;
 392               		.loc 1 441 8 view .LVU95
 393 0004 8330      		cpi r24,lo8(3)
 394 0006 00F4      		brsh .L18
 442:quantum/rgblight.c ****     //RGBLIGHT_SPLIT_SET_CHANGE_HSVS; // NEED?
 395               		.loc 1 442 9 is_stmt 1 view .LVU96
 442:quantum/rgblight.c ****     //RGBLIGHT_SPLIT_SET_CHANGE_HSVS; // NEED?
 396               		.loc 1 442 30 is_stmt 0 view .LVU97
 397 0008 8F5F      		subi r24,lo8(-(1))
 398 000a 8093 0000 		sts rgblight_config+4,r24
 399               	.L18:
 444:quantum/rgblight.c **** }
 400               		.loc 1 444 5 is_stmt 1 view .LVU98
 401 000e 6091 0000 		lds r22,rgblight_config
 402 0012 7091 0000 		lds r23,rgblight_config+1
 403 0016 8091 0000 		lds r24,rgblight_config+2
 404 001a 9091 0000 		lds r25,rgblight_config+3
 405 001e 0C94 0000 		jmp eeconfig_update_rgblight
 406               	.LVL14:
 407               		.cfi_endproc
 408               	.LFE126:
 410               		.section	.text.rgblight_decrease_speed,"ax",@progbits
 411               	.global	rgblight_decrease_speed
 413               	rgblight_decrease_speed:
 414               	.LFB127:
 447:quantum/rgblight.c ****     if (rgblight_config.speed > 0)
 415               		.loc 1 447 36 view -0
 416               		.cfi_startproc
 417               	/* prologue: function */
 418               	/* frame size = 0 */
 419               	/* stack size = 0 */
 420               	.L__stack_usage = 0
 448:quantum/rgblight.c ****         rgblight_config.speed--;
 421               		.loc 1 448 5 view .LVU100
 448:quantum/rgblight.c ****         rgblight_config.speed--;
 422               		.loc 1 448 24 is_stmt 0 view .LVU101
 423 0000 8091 0000 		lds r24,rgblight_config+4
 448:quantum/rgblight.c ****         rgblight_config.speed--;
 424               		.loc 1 448 8 view .LVU102
 425 0004 8823      		tst r24
 426 0006 01F0      		breq .L20
 449:quantum/rgblight.c ****     //RGBLIGHT_SPLIT_SET_CHANGE_HSVS; // NEED??
 427               		.loc 1 449 9 is_stmt 1 view .LVU103
 449:quantum/rgblight.c ****     //RGBLIGHT_SPLIT_SET_CHANGE_HSVS; // NEED??
 428               		.loc 1 449 30 is_stmt 0 view .LVU104
 429 0008 8150      		subi r24,lo8(-(-1))
 430 000a 8093 0000 		sts rgblight_config+4,r24
 431               	.L20:
 451:quantum/rgblight.c **** }
 432               		.loc 1 451 5 is_stmt 1 view .LVU105
 433 000e 6091 0000 		lds r22,rgblight_config
 434 0012 7091 0000 		lds r23,rgblight_config+1
 435 0016 8091 0000 		lds r24,rgblight_config+2
 436 001a 9091 0000 		lds r25,rgblight_config+3
 437 001e 0C94 0000 		jmp eeconfig_update_rgblight
 438               	.LVL15:
 439               		.cfi_endproc
 440               	.LFE127:
 442               		.section	.text.rgblight_get_hue,"ax",@progbits
 443               	.global	rgblight_get_hue
 445               	rgblight_get_hue:
 446               	.LFB132:
 545:quantum/rgblight.c ****   return rgblight_config.hue;
 447               		.loc 1 545 32 view -0
 448               		.cfi_startproc
 449               	/* prologue: function */
 450               	/* frame size = 0 */
 451               	/* stack size = 0 */
 452               	.L__stack_usage = 0
 546:quantum/rgblight.c **** }
 453               		.loc 1 546 3 view .LVU107
 547:quantum/rgblight.c **** 
 454               		.loc 1 547 1 is_stmt 0 view .LVU108
 455 0000 8091 0000 		lds r24,rgblight_config+1
 456               	/* epilogue start */
 457 0004 0895      		ret
 458               		.cfi_endproc
 459               	.LFE132:
 461               		.section	.text.rgblight_get_sat,"ax",@progbits
 462               	.global	rgblight_get_sat
 464               	rgblight_get_sat:
 465               	.LFB133:
 549:quantum/rgblight.c ****   return rgblight_config.sat;
 466               		.loc 1 549 32 is_stmt 1 view -0
 467               		.cfi_startproc
 468               	/* prologue: function */
 469               	/* frame size = 0 */
 470               	/* stack size = 0 */
 471               	.L__stack_usage = 0
 550:quantum/rgblight.c **** }
 472               		.loc 1 550 3 view .LVU110
 551:quantum/rgblight.c **** 
 473               		.loc 1 551 1 is_stmt 0 view .LVU111
 474 0000 8091 0000 		lds r24,rgblight_config+2
 475               	/* epilogue start */
 476 0004 0895      		ret
 477               		.cfi_endproc
 478               	.LFE133:
 480               		.section	.text.rgblight_get_val,"ax",@progbits
 481               	.global	rgblight_get_val
 483               	rgblight_get_val:
 484               	.LFB134:
 553:quantum/rgblight.c ****   return rgblight_config.val;
 485               		.loc 1 553 32 is_stmt 1 view -0
 486               		.cfi_startproc
 487               	/* prologue: function */
 488               	/* frame size = 0 */
 489               	/* stack size = 0 */
 490               	.L__stack_usage = 0
 554:quantum/rgblight.c **** }
 491               		.loc 1 554 3 view .LVU113
 555:quantum/rgblight.c **** 
 492               		.loc 1 555 1 is_stmt 0 view .LVU114
 493 0000 8091 0000 		lds r24,rgblight_config+3
 494               	/* epilogue start */
 495 0004 0895      		ret
 496               		.cfi_endproc
 497               	.LFE134:
 499               		.section	.text.rgblight_set,"ax",@progbits
 500               	.global	rgblight_set
 502               	rgblight_set:
 503               	.LFB145:
 635:quantum/rgblight.c ****   LED_TYPE *start_led = led + clipping_start_pos;
 504               		.loc 1 635 25 is_stmt 1 view -0
 505               		.cfi_startproc
 506               	/* prologue: function */
 507               	/* frame size = 0 */
 508               	/* stack size = 0 */
 509               	.L__stack_usage = 0
 636:quantum/rgblight.c ****   uint16_t num_leds = clipping_num_leds;
 510               		.loc 1 636 3 view .LVU116
 636:quantum/rgblight.c ****   uint16_t num_leds = clipping_num_leds;
 511               		.loc 1 636 29 is_stmt 0 view .LVU117
 512 0000 8091 0000 		lds r24,clipping_start_pos
 513 0004 24E0      		ldi r18,lo8(4)
 514 0006 829F      		mul r24,r18
 515 0008 C001      		movw r24,r0
 516 000a 1124      		clr __zero_reg__
 636:quantum/rgblight.c ****   uint16_t num_leds = clipping_num_leds;
 517               		.loc 1 636 13 view .LVU118
 518 000c 8050      		subi r24,lo8(-(led))
 519 000e 9040      		sbci r25,hi8(-(led))
 520               	.LVL16:
 637:quantum/rgblight.c ****   if (rgblight_config.enable) {
 521               		.loc 1 637 3 is_stmt 1 view .LVU119
 637:quantum/rgblight.c ****   if (rgblight_config.enable) {
 522               		.loc 1 637 12 is_stmt 0 view .LVU120
 523 0010 6091 0000 		lds r22,clipping_num_leds
 524 0014 70E0      		ldi r23,0
 525               	.LVL17:
 638:quantum/rgblight.c ****     #ifdef RGBLIGHT_LED_MAP
 526               		.loc 1 638 3 is_stmt 1 view .LVU121
 638:quantum/rgblight.c ****     #ifdef RGBLIGHT_LED_MAP
 527               		.loc 1 638 7 is_stmt 0 view .LVU122
 528 0016 2091 0000 		lds r18,rgblight_config
 529 001a E0E0      		ldi r30,lo8(led)
 530 001c F0E0      		ldi r31,hi8(led)
 638:quantum/rgblight.c ****     #ifdef RGBLIGHT_LED_MAP
 531               		.loc 1 638 6 view .LVU123
 532 001e 20FD      		sbrc r18,0
 533               	.L31:
 658:quantum/rgblight.c ****     #else
 534               		.loc 1 658 7 is_stmt 1 view .LVU124
 535 0020 0C94 0000 		jmp ws2812_setleds_rgbw
 536               	.LVL18:
 537               	.L29:
 538               	.LBB22:
 653:quantum/rgblight.c ****       led[i].g = 0;
 539               		.loc 1 653 7 discriminator 3 view .LVU125
 653:quantum/rgblight.c ****       led[i].g = 0;
 540               		.loc 1 653 16 is_stmt 0 discriminator 3 view .LVU126
 541 0024 1182      		std Z+1,__zero_reg__
 654:quantum/rgblight.c ****       led[i].b = 0;
 542               		.loc 1 654 7 is_stmt 1 discriminator 3 view .LVU127
 654:quantum/rgblight.c ****       led[i].b = 0;
 543               		.loc 1 654 16 is_stmt 0 discriminator 3 view .LVU128
 544 0026 1082      		st Z,__zero_reg__
 655:quantum/rgblight.c ****     }
 545               		.loc 1 655 7 is_stmt 1 discriminator 3 view .LVU129
 655:quantum/rgblight.c ****     }
 546               		.loc 1 655 16 is_stmt 0 discriminator 3 view .LVU130
 547 0028 1282      		std Z+2,__zero_reg__
 548               	.LVL19:
 655:quantum/rgblight.c ****     }
 549               		.loc 1 655 16 discriminator 3 view .LVU131
 550 002a 3496      		adiw r30,4
 652:quantum/rgblight.c ****       led[i].r = 0;
 551               		.loc 1 652 5 discriminator 3 view .LVU132
 552 002c 20E0      		ldi r18,hi8(led+60)
 553 002e E030      		cpi r30,lo8(led+60)
 554 0030 F207      		cpc r31,r18
 555 0032 01F4      		brne .L29
 556 0034 00C0      		rjmp .L31
 557               	.LBE22:
 558               		.cfi_endproc
 559               	.LFE145:
 561               		.section	.text.rgblight_setrgb,"ax",@progbits
 562               	.global	rgblight_setrgb
 564               	rgblight_setrgb:
 565               	.LVL20:
 566               	.LFB135:
 557:quantum/rgblight.c ****   if (!rgblight_config.enable) { return; }
 567               		.loc 1 557 55 is_stmt 1 view -0
 568               		.cfi_startproc
 569               	/* prologue: function */
 570               	/* frame size = 0 */
 571               	/* stack size = 0 */
 572               	.L__stack_usage = 0
 558:quantum/rgblight.c **** 
 573               		.loc 1 558 3 view .LVU134
 558:quantum/rgblight.c **** 
 574               		.loc 1 558 23 is_stmt 0 view .LVU135
 575 0000 9091 0000 		lds r25,rgblight_config
 558:quantum/rgblight.c **** 
 576               		.loc 1 558 6 view .LVU136
 577 0004 90FF      		sbrs r25,0
 578 0006 00C0      		rjmp .L32
 579 0008 E0E0      		ldi r30,lo8(led)
 580 000a F0E0      		ldi r31,hi8(led)
 581               	.L34:
 582               	.LBB23:
 561:quantum/rgblight.c ****     led[i].g = g;
 583               		.loc 1 561 5 is_stmt 1 discriminator 3 view .LVU137
 561:quantum/rgblight.c ****     led[i].g = g;
 584               		.loc 1 561 14 is_stmt 0 discriminator 3 view .LVU138
 585 000c 8183      		std Z+1,r24
 562:quantum/rgblight.c ****     led[i].b = b;
 586               		.loc 1 562 5 is_stmt 1 discriminator 3 view .LVU139
 562:quantum/rgblight.c ****     led[i].b = b;
 587               		.loc 1 562 14 is_stmt 0 discriminator 3 view .LVU140
 588 000e 6083      		st Z,r22
 563:quantum/rgblight.c ****   }
 589               		.loc 1 563 5 is_stmt 1 discriminator 3 view .LVU141
 563:quantum/rgblight.c ****   }
 590               		.loc 1 563 14 is_stmt 0 discriminator 3 view .LVU142
 591 0010 4283      		std Z+2,r20
 592               	.LVL21:
 563:quantum/rgblight.c ****   }
 593               		.loc 1 563 14 discriminator 3 view .LVU143
 594 0012 3496      		adiw r30,4
 560:quantum/rgblight.c ****     led[i].r = r;
 595               		.loc 1 560 3 discriminator 3 view .LVU144
 596 0014 90E0      		ldi r25,hi8(led+60)
 597 0016 E030      		cpi r30,lo8(led+60)
 598 0018 F907      		cpc r31,r25
 599 001a 01F4      		brne .L34
 560:quantum/rgblight.c ****     led[i].r = r;
 600               		.loc 1 560 3 discriminator 3 view .LVU145
 601               	.LBE23:
 565:quantum/rgblight.c **** }
 602               		.loc 1 565 3 is_stmt 1 view .LVU146
 603 001c 0C94 0000 		jmp rgblight_set
 604               	.LVL22:
 605               	.L32:
 606               	/* epilogue start */
 566:quantum/rgblight.c **** 
 607               		.loc 1 566 1 is_stmt 0 view .LVU147
 608 0020 0895      		ret
 609               		.cfi_endproc
 610               	.LFE135:
 612               		.section	.text.rgblight_sethsv_noeeprom_old,"ax",@progbits
 613               	.global	rgblight_sethsv_noeeprom_old
 615               	rgblight_sethsv_noeeprom_old:
 616               	.LVL23:
 617               	.LFB128:
 454:quantum/rgblight.c ****   if (rgblight_config.enable) {
 618               		.loc 1 454 74 is_stmt 1 view -0
 619               		.cfi_startproc
 454:quantum/rgblight.c ****   if (rgblight_config.enable) {
 620               		.loc 1 454 74 is_stmt 0 view .LVU149
 621 0000 CF93      		push r28
 622               	.LCFI6:
 623               		.cfi_def_cfa_offset 3
 624               		.cfi_offset 28, -2
 625 0002 DF93      		push r29
 626               	.LCFI7:
 627               		.cfi_def_cfa_offset 4
 628               		.cfi_offset 29, -3
 629 0004 00D0      		rcall .
 630 0006 00D0      		rcall .
 631               	.LCFI8:
 632               		.cfi_def_cfa_offset 8
 633 0008 CDB7      		in r28,__SP_L__
 634 000a DEB7      		in r29,__SP_H__
 635               	.LCFI9:
 636               		.cfi_def_cfa_register 28
 637               	/* prologue: function */
 638               	/* frame size = 4 */
 639               	/* stack size = 6 */
 640               	.L__stack_usage = 6
 455:quantum/rgblight.c ****     LED_TYPE tmp_led;
 641               		.loc 1 455 3 is_stmt 1 view .LVU150
 455:quantum/rgblight.c ****     LED_TYPE tmp_led;
 642               		.loc 1 455 7 is_stmt 0 view .LVU151
 643 000c 9091 0000 		lds r25,rgblight_config
 455:quantum/rgblight.c ****     LED_TYPE tmp_led;
 644               		.loc 1 455 6 view .LVU152
 645 0010 90FF      		sbrs r25,0
 646 0012 00C0      		rjmp .L36
 647               	.LBB24:
 456:quantum/rgblight.c ****     sethsv(hue, sat, val, &tmp_led);
 648               		.loc 1 456 5 is_stmt 1 view .LVU153
 457:quantum/rgblight.c ****     // dprintf("rgblight set hue [MEMORY]: %u,%u,%u\n", inmem_config.hue, inmem_config.sat, inmem_c
 649               		.loc 1 457 5 view .LVU154
 650 0014 9E01      		movw r18,r28
 651 0016 2F5F      		subi r18,-1
 652 0018 3F4F      		sbci r19,-1
 653 001a 0E94 0000 		call sethsv
 654               	.LVL24:
 459:quantum/rgblight.c ****   }
 655               		.loc 1 459 5 view .LVU155
 656 001e 4B81      		ldd r20,Y+3
 657 0020 6981      		ldd r22,Y+1
 658 0022 8A81      		ldd r24,Y+2
 659 0024 0E94 0000 		call rgblight_setrgb
 660               	.LVL25:
 661               	.L36:
 662               	/* epilogue start */
 663               	.LBE24:
 461:quantum/rgblight.c **** 
 664               		.loc 1 461 1 is_stmt 0 view .LVU156
 665 0028 0F90      		pop __tmp_reg__
 666 002a 0F90      		pop __tmp_reg__
 667 002c 0F90      		pop __tmp_reg__
 668 002e 0F90      		pop __tmp_reg__
 669 0030 DF91      		pop r29
 670 0032 CF91      		pop r28
 671 0034 0895      		ret
 672               		.cfi_endproc
 673               	.LFE128:
 675               		.section	.text.rgblight_effect_breathing,"ax",@progbits
 676               	.global	rgblight_effect_breathing
 678               	rgblight_effect_breathing:
 679               	.LVL26:
 680               	.LFB153:
 776:quantum/rgblight.c **** 
 777:quantum/rgblight.c **** void rgblight_task(void) {
 778:quantum/rgblight.c ****   if (rgblight_status.timer_enabled) {
 779:quantum/rgblight.c ****     effect_func_t effect_func = rgblight_effect_dummy;
 780:quantum/rgblight.c ****     uint16_t interval_time = 2000; // dummy interval
 781:quantum/rgblight.c ****     uint8_t delta = rgblight_config.mode - rgblight_status.base_mode;
 782:quantum/rgblight.c ****     animation_status.delta = delta;
 783:quantum/rgblight.c **** 
 784:quantum/rgblight.c ****     // static light mode, do nothing here
 785:quantum/rgblight.c ****     if ( 1 == 0 ) { //dummy
 786:quantum/rgblight.c ****     }
 787:quantum/rgblight.c **** #ifdef RGBLIGHT_EFFECT_BREATHING
 788:quantum/rgblight.c ****     else if (rgblight_status.base_mode == RGBLIGHT_MODE_BREATHING) {
 789:quantum/rgblight.c ****       // breathing mode
 790:quantum/rgblight.c ****       interval_time = get_interval_time(&RGBLED_BREATHING_INTERVALS[delta], 1, 100);
 791:quantum/rgblight.c ****       effect_func = rgblight_effect_breathing;
 792:quantum/rgblight.c ****     }
 793:quantum/rgblight.c **** #endif
 794:quantum/rgblight.c **** #ifdef RGBLIGHT_EFFECT_RAINBOW_MOOD
 795:quantum/rgblight.c ****     else if (rgblight_status.base_mode == RGBLIGHT_MODE_RAINBOW_MOOD) {
 796:quantum/rgblight.c ****       // rainbow mood mode
 797:quantum/rgblight.c ****       interval_time = get_interval_time(&RGBLED_RAINBOW_MOOD_INTERVALS[delta], 5, 100);
 798:quantum/rgblight.c ****       effect_func = rgblight_effect_rainbow_mood;
 799:quantum/rgblight.c ****     }
 800:quantum/rgblight.c **** #endif
 801:quantum/rgblight.c **** #ifdef RGBLIGHT_EFFECT_RAINBOW_SWIRL
 802:quantum/rgblight.c ****     else if (rgblight_status.base_mode == RGBLIGHT_MODE_RAINBOW_SWIRL) {
 803:quantum/rgblight.c ****       // rainbow swirl mode
 804:quantum/rgblight.c ****       interval_time = get_interval_time(&RGBLED_RAINBOW_SWIRL_INTERVALS[delta / 2], 1, 100);
 805:quantum/rgblight.c ****       effect_func = rgblight_effect_rainbow_swirl;
 806:quantum/rgblight.c ****     }
 807:quantum/rgblight.c **** #endif
 808:quantum/rgblight.c **** #ifdef RGBLIGHT_EFFECT_SNAKE
 809:quantum/rgblight.c ****     else if (rgblight_status.base_mode == RGBLIGHT_MODE_SNAKE) {
 810:quantum/rgblight.c ****       // snake mode
 811:quantum/rgblight.c ****       interval_time = get_interval_time(&RGBLED_SNAKE_INTERVALS[delta / 2], 1, 200);
 812:quantum/rgblight.c ****       effect_func = rgblight_effect_snake;
 813:quantum/rgblight.c ****     }
 814:quantum/rgblight.c **** #endif
 815:quantum/rgblight.c **** #ifdef RGBLIGHT_EFFECT_KNIGHT
 816:quantum/rgblight.c ****     else if (rgblight_status.base_mode == RGBLIGHT_MODE_KNIGHT) {
 817:quantum/rgblight.c ****       // knight mode
 818:quantum/rgblight.c ****       interval_time = get_interval_time(&RGBLED_KNIGHT_INTERVALS[delta], 5, 100);
 819:quantum/rgblight.c ****       effect_func = rgblight_effect_knight;
 820:quantum/rgblight.c ****     }
 821:quantum/rgblight.c **** #endif
 822:quantum/rgblight.c **** #ifdef RGBLIGHT_EFFECT_CHRISTMAS
 823:quantum/rgblight.c ****     else if (rgblight_status.base_mode == RGBLIGHT_MODE_CHRISTMAS) {
 824:quantum/rgblight.c ****       // christmas mode
 825:quantum/rgblight.c ****       interval_time = RGBLIGHT_EFFECT_CHRISTMAS_INTERVAL;
 826:quantum/rgblight.c ****       effect_func = (effect_func_t)rgblight_effect_christmas;
 827:quantum/rgblight.c ****     }
 828:quantum/rgblight.c **** #endif
 829:quantum/rgblight.c **** #ifdef RGBLIGHT_EFFECT_RGB_TEST
 830:quantum/rgblight.c ****     else if (rgblight_status.base_mode == RGBLIGHT_MODE_RGB_TEST) {
 831:quantum/rgblight.c ****       // RGB test mode
 832:quantum/rgblight.c ****       interval_time = pgm_read_word(&RGBLED_RGBTEST_INTERVALS[0]);
 833:quantum/rgblight.c ****       effect_func = (effect_func_t)rgblight_effect_rgbtest;
 834:quantum/rgblight.c ****     }
 835:quantum/rgblight.c **** #endif
 836:quantum/rgblight.c **** #ifdef RGBLIGHT_EFFECT_ALTERNATING
 837:quantum/rgblight.c ****     else if (rgblight_status.base_mode == RGBLIGHT_MODE_ALTERNATING){
 838:quantum/rgblight.c ****       interval_time = 500;
 839:quantum/rgblight.c ****       effect_func = (effect_func_t)rgblight_effect_alternating;
 840:quantum/rgblight.c ****     }
 841:quantum/rgblight.c **** #endif
 842:quantum/rgblight.c ****     if (animation_status.restart) {
 843:quantum/rgblight.c ****       animation_status.restart = false;
 844:quantum/rgblight.c ****       animation_status.last_timer = timer_read() - interval_time - 1;
 845:quantum/rgblight.c ****       animation_status.pos16 = 0; // restart signal to local each effect
 846:quantum/rgblight.c ****     }
 847:quantum/rgblight.c ****     if (timer_elapsed(animation_status.last_timer) >= interval_time) {
 848:quantum/rgblight.c **** #if defined(RGBLIGHT_SPLIT) && !defined(RGBLIGHT_SPLIT_NO_ANIMATION_SYNC)
 849:quantum/rgblight.c ****       static uint16_t report_last_timer = 0;
 850:quantum/rgblight.c ****       static bool tick_flag = false;
 851:quantum/rgblight.c ****       uint16_t oldpos16;
 852:quantum/rgblight.c ****       if (tick_flag) {
 853:quantum/rgblight.c ****         tick_flag = false;
 854:quantum/rgblight.c ****         //dprintf("rgblight animation tick\n");
 855:quantum/rgblight.c ****         if (timer_elapsed(report_last_timer) >= 30000) {
 856:quantum/rgblight.c ****             report_last_timer = timer_read();
 857:quantum/rgblight.c ****             dprintf("rgblight animation tick report to slave\n");
 858:quantum/rgblight.c ****             RGBLIGHT_SPLIT_ANIMATION_TICK;
 859:quantum/rgblight.c ****         }
 860:quantum/rgblight.c ****       }
 861:quantum/rgblight.c ****       oldpos16 = animation_status.pos16;
 862:quantum/rgblight.c ****       //dprintf("call effect function\n");
 863:quantum/rgblight.c **** #endif
 864:quantum/rgblight.c ****       animation_status.last_timer += interval_time;
 865:quantum/rgblight.c ****       effect_func(&animation_status);
 866:quantum/rgblight.c **** #if defined(RGBLIGHT_SPLIT) && !defined(RGBLIGHT_SPLIT_NO_ANIMATION_SYNC)
 867:quantum/rgblight.c ****       //dprintf("pos16, oldpos16 = %d %d\n",
 868:quantum/rgblight.c ****       //        animation_status.pos16,oldpos16);
 869:quantum/rgblight.c ****       if (animation_status.pos16 == 0 && oldpos16 != 0) {
 870:quantum/rgblight.c ****           //dprintf("flag on\n");
 871:quantum/rgblight.c ****           tick_flag = true;
 872:quantum/rgblight.c ****       }
 873:quantum/rgblight.c **** #endif
 874:quantum/rgblight.c ****     }
 875:quantum/rgblight.c ****   }
 876:quantum/rgblight.c **** }
 877:quantum/rgblight.c **** 
 878:quantum/rgblight.c **** #endif /* RGBLIGHT_USE_TIMER */
 879:quantum/rgblight.c **** 
 880:quantum/rgblight.c **** // Effects
 881:quantum/rgblight.c **** #ifdef RGBLIGHT_EFFECT_BREATHING
 882:quantum/rgblight.c **** 
 883:quantum/rgblight.c **** #ifndef RGBLIGHT_EFFECT_BREATHE_CENTER
 884:quantum/rgblight.c ****   #ifndef RGBLIGHT_BREATHE_TABLE_SIZE
 885:quantum/rgblight.c ****     #define RGBLIGHT_BREATHE_TABLE_SIZE 256 // 256 or 128 or 64
 886:quantum/rgblight.c ****   #endif
 887:quantum/rgblight.c ****   #include <rgblight_breathe_table.h>
 888:quantum/rgblight.c **** #endif
 889:quantum/rgblight.c **** 
 890:quantum/rgblight.c **** __attribute__ ((weak))
 891:quantum/rgblight.c **** const uint8_t RGBLED_BREATHING_INTERVALS[] PROGMEM = {30, 20, 10, 5};
 892:quantum/rgblight.c **** 
 893:quantum/rgblight.c **** void rgblight_effect_breathing(animation_status_t *anim) {
 681               		.loc 1 893 58 is_stmt 1 view -0
 682               		.cfi_startproc
 683               		.loc 1 893 58 is_stmt 0 view .LVU158
 684 0000 CF93      		push r28
 685               	.LCFI10:
 686               		.cfi_def_cfa_offset 3
 687               		.cfi_offset 28, -2
 688 0002 DF93      		push r29
 689               	.LCFI11:
 690               		.cfi_def_cfa_offset 4
 691               		.cfi_offset 29, -3
 692               	/* prologue: function */
 693               	/* frame size = 0 */
 694               	/* stack size = 2 */
 695               	.L__stack_usage = 2
 696 0004 EC01      		movw r28,r24
 894:quantum/rgblight.c ****   float val;
 697               		.loc 1 894 3 is_stmt 1 view .LVU159
 895:quantum/rgblight.c **** 
 896:quantum/rgblight.c ****   // http://sean.voisen.org/blog/2011/10/breathing-led-with-arduino/
 897:quantum/rgblight.c **** #ifdef RGBLIGHT_EFFECT_BREATHE_TABLE
 898:quantum/rgblight.c ****   val = pgm_read_byte(&rgblight_effect_breathe_table[anim->pos / table_scale]);
 698               		.loc 1 898 3 view .LVU160
 699               	.LBB25:
 700               		.loc 1 898 9 view .LVU161
 701               	.LVL27:
 702               		.loc 1 898 9 view .LVU162
 703               		.loc 1 898 9 view .LVU163
 704 0006 EC81      		ldd r30,Y+4
 705 0008 F0E0      		ldi r31,0
 706 000a E050      		subi r30,lo8(-(rgblight_effect_breathe_table))
 707 000c F040      		sbci r31,hi8(-(rgblight_effect_breathe_table))
 708               	/* #APP */
 709               	 ;  898 "quantum/rgblight.c" 1
 710 000e 4491      		lpm r20, Z
 711               		
 712               	 ;  0 "" 2
 713               	.LVL28:
 714               		.loc 1 898 9 view .LVU164
 715               		.loc 1 898 9 is_stmt 0 view .LVU165
 716               	/* #NOAPP */
 717               	.LBE25:
 899:quantum/rgblight.c **** #else
 900:quantum/rgblight.c ****   val = (exp(sin((anim->pos/255.0)*M_PI)) - RGBLIGHT_EFFECT_BREATHE_CENTER/M_E)*(RGBLIGHT_EFFECT_BR
 901:quantum/rgblight.c **** #endif
 902:quantum/rgblight.c ****   rgblight_sethsv_noeeprom_old(rgblight_config.hue, rgblight_config.sat, val);
 718               		.loc 1 902 3 is_stmt 1 view .LVU166
 719 0010 E0E0      		ldi r30,lo8(rgblight_config)
 720 0012 F0E0      		ldi r31,hi8(rgblight_config)
 721 0014 6281      		ldd r22,Z+2
 722 0016 8181      		ldd r24,Z+1
 723               	.LVL29:
 724               		.loc 1 902 3 is_stmt 0 view .LVU167
 725 0018 0E94 0000 		call rgblight_sethsv_noeeprom_old
 726               	.LVL30:
 903:quantum/rgblight.c ****   anim->pos = (anim->pos + 1);
 727               		.loc 1 903 3 is_stmt 1 view .LVU168
 728               		.loc 1 903 26 is_stmt 0 view .LVU169
 729 001c 8C81      		ldd r24,Y+4
 730 001e 8F5F      		subi r24,lo8(-(1))
 731               		.loc 1 903 13 view .LVU170
 732 0020 8C83      		std Y+4,r24
 733               	/* epilogue start */
 904:quantum/rgblight.c **** }
 734               		.loc 1 904 1 view .LVU171
 735 0022 DF91      		pop r29
 736 0024 CF91      		pop r28
 737               	.LVL31:
 738               		.loc 1 904 1 view .LVU172
 739 0026 0895      		ret
 740               		.cfi_endproc
 741               	.LFE153:
 743               		.section	.text.rgblight_effect_rainbow_mood,"ax",@progbits
 744               	.global	rgblight_effect_rainbow_mood
 746               	rgblight_effect_rainbow_mood:
 747               	.LVL32:
 748               	.LFB154:
 905:quantum/rgblight.c **** #endif
 906:quantum/rgblight.c **** 
 907:quantum/rgblight.c **** #ifdef RGBLIGHT_EFFECT_RAINBOW_MOOD
 908:quantum/rgblight.c **** __attribute__ ((weak))
 909:quantum/rgblight.c **** const uint8_t RGBLED_RAINBOW_MOOD_INTERVALS[] PROGMEM = {120, 60, 30};
 910:quantum/rgblight.c **** 
 911:quantum/rgblight.c **** void rgblight_effect_rainbow_mood(animation_status_t *anim) {
 749               		.loc 1 911 61 is_stmt 1 view -0
 750               		.cfi_startproc
 751               		.loc 1 911 61 is_stmt 0 view .LVU174
 752 0000 CF93      		push r28
 753               	.LCFI12:
 754               		.cfi_def_cfa_offset 3
 755               		.cfi_offset 28, -2
 756 0002 DF93      		push r29
 757               	.LCFI13:
 758               		.cfi_def_cfa_offset 4
 759               		.cfi_offset 29, -3
 760               	/* prologue: function */
 761               	/* frame size = 0 */
 762               	/* stack size = 2 */
 763               	.L__stack_usage = 2
 764 0004 EC01      		movw r28,r24
 912:quantum/rgblight.c ****   rgblight_sethsv_noeeprom_old(anim->current_hue, rgblight_config.sat, rgblight_config.val);
 765               		.loc 1 912 3 is_stmt 1 view .LVU175
 766 0006 E0E0      		ldi r30,lo8(rgblight_config)
 767 0008 F0E0      		ldi r31,hi8(rgblight_config)
 768 000a 4381      		ldd r20,Z+3
 769 000c 6281      		ldd r22,Z+2
 770 000e 8C81      		ldd r24,Y+4
 771               	.LVL33:
 772               		.loc 1 912 3 is_stmt 0 view .LVU176
 773 0010 0E94 0000 		call rgblight_sethsv_noeeprom_old
 774               	.LVL34:
 913:quantum/rgblight.c ****   anim->current_hue++;
 775               		.loc 1 913 3 is_stmt 1 view .LVU177
 776               		.loc 1 913 20 is_stmt 0 view .LVU178
 777 0014 8C81      		ldd r24,Y+4
 778 0016 8F5F      		subi r24,lo8(-(1))
 779 0018 8C83      		std Y+4,r24
 780               	/* epilogue start */
 914:quantum/rgblight.c **** }
 781               		.loc 1 914 1 view .LVU179
 782 001a DF91      		pop r29
 783 001c CF91      		pop r28
 784               	.LVL35:
 785               		.loc 1 914 1 view .LVU180
 786 001e 0895      		ret
 787               		.cfi_endproc
 788               	.LFE154:
 790               		.section	.text.rgblight_effect_rgbtest,"ax",@progbits
 791               	.global	rgblight_effect_rgbtest
 793               	rgblight_effect_rgbtest:
 794               	.LVL36:
 795               	.LFB159:
 915:quantum/rgblight.c **** #endif
 916:quantum/rgblight.c **** 
 917:quantum/rgblight.c **** #ifdef RGBLIGHT_EFFECT_RAINBOW_SWIRL
 918:quantum/rgblight.c **** #ifndef RGBLIGHT_RAINBOW_SWIRL_RANGE
 919:quantum/rgblight.c ****   #define RGBLIGHT_RAINBOW_SWIRL_RANGE 255
 920:quantum/rgblight.c **** #endif
 921:quantum/rgblight.c **** 
 922:quantum/rgblight.c **** __attribute__ ((weak))
 923:quantum/rgblight.c **** const uint8_t RGBLED_RAINBOW_SWIRL_INTERVALS[] PROGMEM = {100, 50, 20};
 924:quantum/rgblight.c **** 
 925:quantum/rgblight.c **** void rgblight_effect_rainbow_swirl(animation_status_t *anim) {
 926:quantum/rgblight.c ****   uint8_t hue;
 927:quantum/rgblight.c ****   uint8_t i;
 928:quantum/rgblight.c **** 
 929:quantum/rgblight.c ****   for (i = 0; i < RGBLED_NUM; i++) {
 930:quantum/rgblight.c ****     hue = (RGBLIGHT_RAINBOW_SWIRL_RANGE / RGBLED_NUM * i + anim->current_hue);
 931:quantum/rgblight.c ****     sethsv(hue, rgblight_config.sat, rgblight_config.val, (LED_TYPE *)&led[i]);
 932:quantum/rgblight.c ****   }
 933:quantum/rgblight.c ****   rgblight_set();
 934:quantum/rgblight.c **** 
 935:quantum/rgblight.c ****   if (anim->delta % 2) {
 936:quantum/rgblight.c ****     anim->current_hue++;
 937:quantum/rgblight.c ****   } else {
 938:quantum/rgblight.c ****     anim->current_hue--;
 939:quantum/rgblight.c ****   }
 940:quantum/rgblight.c **** }
 941:quantum/rgblight.c **** #endif
 942:quantum/rgblight.c **** 
 943:quantum/rgblight.c **** #ifdef RGBLIGHT_EFFECT_SNAKE
 944:quantum/rgblight.c **** __attribute__ ((weak))
 945:quantum/rgblight.c **** const uint8_t RGBLED_SNAKE_INTERVALS[] PROGMEM = {100, 50, 20};
 946:quantum/rgblight.c **** 
 947:quantum/rgblight.c **** void rgblight_effect_snake(animation_status_t *anim) {
 948:quantum/rgblight.c ****   static uint8_t pos = 0;
 949:quantum/rgblight.c ****   uint8_t i, j;
 950:quantum/rgblight.c ****   int8_t k;
 951:quantum/rgblight.c ****   int8_t increment = 1;
 952:quantum/rgblight.c **** 
 953:quantum/rgblight.c ****   if (anim->delta % 2) {
 954:quantum/rgblight.c ****     increment = -1;
 955:quantum/rgblight.c ****   }
 956:quantum/rgblight.c **** 
 957:quantum/rgblight.c **** #if defined(RGBLIGHT_SPLIT) && !defined(RGBLIGHT_SPLIT_NO_ANIMATION_SYNC)
 958:quantum/rgblight.c ****   if (anim->pos == 0) { // restart signal
 959:quantum/rgblight.c ****     if (increment == 1) {
 960:quantum/rgblight.c ****       pos = RGBLED_NUM - 1;
 961:quantum/rgblight.c ****     } else {
 962:quantum/rgblight.c ****       pos = 0;
 963:quantum/rgblight.c ****     }
 964:quantum/rgblight.c ****     anim->pos = 1;
 965:quantum/rgblight.c ****   }
 966:quantum/rgblight.c **** #endif
 967:quantum/rgblight.c **** 
 968:quantum/rgblight.c ****   for (i = 0; i < RGBLED_NUM; i++) {
 969:quantum/rgblight.c ****     led[i].r = 0;
 970:quantum/rgblight.c ****     led[i].g = 0;
 971:quantum/rgblight.c ****     led[i].b = 0;
 972:quantum/rgblight.c ****     for (j = 0; j < RGBLIGHT_EFFECT_SNAKE_LENGTH; j++) {
 973:quantum/rgblight.c ****       k = pos + j * increment;
 974:quantum/rgblight.c ****       if (k < 0) {
 975:quantum/rgblight.c ****         k = k + RGBLED_NUM;
 976:quantum/rgblight.c ****       }
 977:quantum/rgblight.c ****       if (i == k) {
 978:quantum/rgblight.c ****         sethsv(rgblight_config.hue, rgblight_config.sat,
 979:quantum/rgblight.c ****                (uint8_t)(rgblight_config.val*(RGBLIGHT_EFFECT_SNAKE_LENGTH-j)/RGBLIGHT_EFFECT_SNAKE
 980:quantum/rgblight.c ****                (LED_TYPE *)&led[i]);
 981:quantum/rgblight.c ****       }
 982:quantum/rgblight.c ****     }
 983:quantum/rgblight.c ****   }
 984:quantum/rgblight.c ****   rgblight_set();
 985:quantum/rgblight.c ****   if (increment == 1) {
 986:quantum/rgblight.c ****     if (pos - 1 < 0) {
 987:quantum/rgblight.c ****       pos = RGBLED_NUM - 1;
 988:quantum/rgblight.c **** #if defined(RGBLIGHT_SPLIT) && !defined(RGBLIGHT_SPLIT_NO_ANIMATION_SYNC)
 989:quantum/rgblight.c ****       anim->pos = 0;
 990:quantum/rgblight.c **** #endif
 991:quantum/rgblight.c ****     } else {
 992:quantum/rgblight.c ****       pos -= 1;
 993:quantum/rgblight.c **** #if defined(RGBLIGHT_SPLIT) && !defined(RGBLIGHT_SPLIT_NO_ANIMATION_SYNC)
 994:quantum/rgblight.c ****       anim->pos = 1;
 995:quantum/rgblight.c **** #endif
 996:quantum/rgblight.c ****     }
 997:quantum/rgblight.c ****   } else {
 998:quantum/rgblight.c ****     pos = (pos + 1) % RGBLED_NUM;
 999:quantum/rgblight.c **** #if defined(RGBLIGHT_SPLIT) && !defined(RGBLIGHT_SPLIT_NO_ANIMATION_SYNC)
1000:quantum/rgblight.c ****     anim->pos = pos;
1001:quantum/rgblight.c **** #endif
1002:quantum/rgblight.c ****   }
1003:quantum/rgblight.c **** }
1004:quantum/rgblight.c **** #endif
1005:quantum/rgblight.c **** 
1006:quantum/rgblight.c **** #ifdef RGBLIGHT_EFFECT_KNIGHT
1007:quantum/rgblight.c **** __attribute__ ((weak))
1008:quantum/rgblight.c **** const uint8_t RGBLED_KNIGHT_INTERVALS[] PROGMEM = {127, 63, 31};
1009:quantum/rgblight.c **** 
1010:quantum/rgblight.c **** void rgblight_effect_knight(animation_status_t *anim) {
1011:quantum/rgblight.c **** 
1012:quantum/rgblight.c ****   static int8_t low_bound = 0;
1013:quantum/rgblight.c ****   static int8_t high_bound = RGBLIGHT_EFFECT_KNIGHT_LENGTH - 1;
1014:quantum/rgblight.c ****   static int8_t increment = 1;
1015:quantum/rgblight.c ****   uint8_t i, cur;
1016:quantum/rgblight.c **** 
1017:quantum/rgblight.c **** #if defined(RGBLIGHT_SPLIT) && !defined(RGBLIGHT_SPLIT_NO_ANIMATION_SYNC)
1018:quantum/rgblight.c ****   if (anim->pos == 0) { // restart signal
1019:quantum/rgblight.c ****       anim->pos = 1;
1020:quantum/rgblight.c ****       low_bound = 0;
1021:quantum/rgblight.c ****       high_bound = RGBLIGHT_EFFECT_KNIGHT_LENGTH - 1;
1022:quantum/rgblight.c ****       increment = 1;
1023:quantum/rgblight.c ****   }
1024:quantum/rgblight.c **** #endif
1025:quantum/rgblight.c ****   // Set all the LEDs to 0
1026:quantum/rgblight.c ****   for (i = 0; i < RGBLED_NUM; i++) {
1027:quantum/rgblight.c ****     led[i].r = 0;
1028:quantum/rgblight.c ****     led[i].g = 0;
1029:quantum/rgblight.c ****     led[i].b = 0;
1030:quantum/rgblight.c ****   }
1031:quantum/rgblight.c ****   // Determine which LEDs should be lit up
1032:quantum/rgblight.c ****   for (i = 0; i < RGBLIGHT_EFFECT_KNIGHT_LED_NUM; i++) {
1033:quantum/rgblight.c ****     cur = (i + RGBLIGHT_EFFECT_KNIGHT_OFFSET) % RGBLED_NUM;
1034:quantum/rgblight.c **** 
1035:quantum/rgblight.c ****     if (i >= low_bound && i <= high_bound) {
1036:quantum/rgblight.c ****       sethsv(rgblight_config.hue, rgblight_config.sat, rgblight_config.val, (LED_TYPE *)&led[cur]);
1037:quantum/rgblight.c ****     } else {
1038:quantum/rgblight.c ****       led[cur].r = 0;
1039:quantum/rgblight.c ****       led[cur].g = 0;
1040:quantum/rgblight.c ****       led[cur].b = 0;
1041:quantum/rgblight.c ****     }
1042:quantum/rgblight.c ****   }
1043:quantum/rgblight.c ****   rgblight_set();
1044:quantum/rgblight.c **** 
1045:quantum/rgblight.c ****   // Move from low_bound to high_bound changing the direction we increment each
1046:quantum/rgblight.c ****   // time a boundary is hit.
1047:quantum/rgblight.c ****   low_bound += increment;
1048:quantum/rgblight.c ****   high_bound += increment;
1049:quantum/rgblight.c **** 
1050:quantum/rgblight.c ****   if (high_bound <= 0 || low_bound >= RGBLIGHT_EFFECT_KNIGHT_LED_NUM - 1) {
1051:quantum/rgblight.c ****     increment = -increment;
1052:quantum/rgblight.c **** #if defined(RGBLIGHT_SPLIT) && !defined(RGBLIGHT_SPLIT_NO_ANIMATION_SYNC)
1053:quantum/rgblight.c ****     if (increment == 1) {
1054:quantum/rgblight.c ****         anim->pos = 0;
1055:quantum/rgblight.c ****     }
1056:quantum/rgblight.c **** #endif
1057:quantum/rgblight.c ****   }
1058:quantum/rgblight.c **** }
1059:quantum/rgblight.c **** #endif
1060:quantum/rgblight.c **** 
1061:quantum/rgblight.c **** #ifdef RGBLIGHT_EFFECT_CHRISTMAS
1062:quantum/rgblight.c **** void rgblight_effect_christmas(animation_status_t *anim) {
1063:quantum/rgblight.c ****   uint8_t hue;
1064:quantum/rgblight.c ****   uint8_t i;
1065:quantum/rgblight.c **** 
1066:quantum/rgblight.c ****   anim->current_offset = (anim->current_offset + 1) % 2;
1067:quantum/rgblight.c ****   for (i = 0; i < RGBLED_NUM; i++) {
1068:quantum/rgblight.c ****     hue = 0 + ((i/RGBLIGHT_EFFECT_CHRISTMAS_STEP + anim->current_offset) % 2) * 85;
1069:quantum/rgblight.c ****     sethsv(hue, rgblight_config.sat, rgblight_config.val, (LED_TYPE *)&led[i]);
1070:quantum/rgblight.c ****   }
1071:quantum/rgblight.c ****   rgblight_set();
1072:quantum/rgblight.c **** }
1073:quantum/rgblight.c **** #endif
1074:quantum/rgblight.c **** 
1075:quantum/rgblight.c **** #ifdef RGBLIGHT_EFFECT_RGB_TEST
1076:quantum/rgblight.c **** __attribute__ ((weak))
1077:quantum/rgblight.c **** const uint16_t RGBLED_RGBTEST_INTERVALS[] PROGMEM = {1024};
1078:quantum/rgblight.c **** 
1079:quantum/rgblight.c **** void rgblight_effect_rgbtest(animation_status_t *anim) {
 796               		.loc 1 1079 56 is_stmt 1 view -0
 797               		.cfi_startproc
 798               		.loc 1 1079 56 is_stmt 0 view .LVU182
 799 0000 0F93      		push r16
 800               	.LCFI14:
 801               		.cfi_def_cfa_offset 3
 802               		.cfi_offset 16, -2
 803 0002 1F93      		push r17
 804               	.LCFI15:
 805               		.cfi_def_cfa_offset 4
 806               		.cfi_offset 17, -3
 807 0004 CF93      		push r28
 808               	.LCFI16:
 809               		.cfi_def_cfa_offset 5
 810               		.cfi_offset 28, -4
 811 0006 DF93      		push r29
 812               	.LCFI17:
 813               		.cfi_def_cfa_offset 6
 814               		.cfi_offset 29, -5
 815 0008 00D0      		rcall .
 816 000a 00D0      		rcall .
 817               	.LCFI18:
 818               		.cfi_def_cfa_offset 10
 819 000c CDB7      		in r28,__SP_L__
 820 000e DEB7      		in r29,__SP_H__
 821               	.LCFI19:
 822               		.cfi_def_cfa_register 28
 823               	/* prologue: function */
 824               	/* frame size = 4 */
 825               	/* stack size = 8 */
 826               	.L__stack_usage = 8
 827 0010 8C01      		movw r16,r24
1080:quantum/rgblight.c ****   static uint8_t maxval = 0;
 828               		.loc 1 1080 3 is_stmt 1 view .LVU183
1081:quantum/rgblight.c ****   uint8_t g; uint8_t r; uint8_t b;
 829               		.loc 1 1081 3 view .LVU184
 830               		.loc 1 1081 14 view .LVU185
 831               		.loc 1 1081 25 view .LVU186
1082:quantum/rgblight.c **** 
1083:quantum/rgblight.c ****   if( maxval == 0 ) {
 832               		.loc 1 1083 3 view .LVU187
 833               		.loc 1 1083 5 is_stmt 0 view .LVU188
 834 0012 8091 0000 		lds r24,maxval.3199
 835               	.LVL37:
 836               		.loc 1 1083 5 view .LVU189
 837 0016 8111      		cpse r24,__zero_reg__
 838 0018 00C0      		rjmp .L44
 839               	.LBB26:
1084:quantum/rgblight.c ****       LED_TYPE tmp_led;
 840               		.loc 1 1084 7 is_stmt 1 view .LVU190
1085:quantum/rgblight.c ****       sethsv(0, 255, RGBLIGHT_LIMIT_VAL, &tmp_led);
 841               		.loc 1 1085 7 view .LVU191
 842 001a 9E01      		movw r18,r28
 843 001c 2F5F      		subi r18,-1
 844 001e 3F4F      		sbci r19,-1
 845 0020 4FEF      		ldi r20,lo8(-1)
 846 0022 6FEF      		ldi r22,lo8(-1)
 847 0024 0E94 0000 		call sethsv
 848               	.LVL38:
1086:quantum/rgblight.c ****       maxval = tmp_led.r;
 849               		.loc 1 1086 7 view .LVU192
 850               		.loc 1 1086 14 is_stmt 0 view .LVU193
 851 0028 8A81      		ldd r24,Y+2
 852 002a 8093 0000 		sts maxval.3199,r24
 853               	.L44:
 854               	.LBE26:
1087:quantum/rgblight.c ****   }
1088:quantum/rgblight.c ****   g = r = b = 0;
 855               		.loc 1 1088 3 is_stmt 1 view .LVU194
 856               	.LVL39:
1089:quantum/rgblight.c ****   switch( anim->pos ) {
 857               		.loc 1 1089 3 view .LVU195
 858               		.loc 1 1089 15 is_stmt 0 view .LVU196
 859 002e F801      		movw r30,r16
 860 0030 6481      		ldd r22,Z+4
 861               		.loc 1 1089 3 view .LVU197
 862 0032 6130      		cpi r22,lo8(1)
 863 0034 01F0      		breq .L45
1090:quantum/rgblight.c ****     case 0: r = maxval; break;
 864               		.loc 1 1090 15 view .LVU198
 865 0036 8091 0000 		lds r24,maxval.3199
 866               	.LVL40:
 867               		.loc 1 1090 25 is_stmt 1 view .LVU199
1088:quantum/rgblight.c ****   switch( anim->pos ) {
 868               		.loc 1 1088 13 is_stmt 0 view .LVU200
 869 003a 40E0      		ldi r20,0
1089:quantum/rgblight.c ****   switch( anim->pos ) {
 870               		.loc 1 1089 3 view .LVU201
 871 003c 6623      		tst r22
 872 003e 01F0      		breq .L48
1088:quantum/rgblight.c ****   switch( anim->pos ) {
 873               		.loc 1 1088 13 view .LVU202
 874 0040 40E0      		ldi r20,0
1089:quantum/rgblight.c ****   switch( anim->pos ) {
 875               		.loc 1 1089 3 view .LVU203
 876 0042 6230      		cpi r22,lo8(2)
 877 0044 01F4      		brne .L49
1091:quantum/rgblight.c ****     case 1: g = maxval; break;
1092:quantum/rgblight.c ****     case 2: b = maxval; break;
 878               		.loc 1 1092 13 is_stmt 1 view .LVU204
 879               		.loc 1 1092 15 is_stmt 0 view .LVU205
 880 0046 4091 0000 		lds r20,maxval.3199
 881               	.L49:
 882               	.LVL41:
 883               		.loc 1 1092 25 is_stmt 1 view .LVU206
1088:quantum/rgblight.c ****   switch( anim->pos ) {
 884               		.loc 1 1088 9 is_stmt 0 view .LVU207
 885 004a 80E0      		ldi r24,0
 886               	.LVL42:
1088:quantum/rgblight.c ****   switch( anim->pos ) {
 887               		.loc 1 1088 5 view .LVU208
 888 004c 60E0      		ldi r22,0
 889               		.loc 1 1092 5 view .LVU209
 890 004e 00C0      		rjmp .L48
 891               	.LVL43:
 892               	.L45:
1091:quantum/rgblight.c ****     case 1: g = maxval; break;
 893               		.loc 1 1091 13 is_stmt 1 view .LVU210
1091:quantum/rgblight.c ****     case 1: g = maxval; break;
 894               		.loc 1 1091 15 is_stmt 0 view .LVU211
 895 0050 6091 0000 		lds r22,maxval.3199
 896               	.LVL44:
1091:quantum/rgblight.c ****     case 1: g = maxval; break;
 897               		.loc 1 1091 25 is_stmt 1 view .LVU212
1088:quantum/rgblight.c ****   switch( anim->pos ) {
 898               		.loc 1 1088 13 is_stmt 0 view .LVU213
 899 0054 40E0      		ldi r20,0
1088:quantum/rgblight.c ****   switch( anim->pos ) {
 900               		.loc 1 1088 9 view .LVU214
 901 0056 80E0      		ldi r24,0
 902               	.LVL45:
 903               	.L48:
1093:quantum/rgblight.c ****   }
1094:quantum/rgblight.c ****   rgblight_setrgb(r, g, b);
 904               		.loc 1 1094 3 is_stmt 1 view .LVU215
 905 0058 0E94 0000 		call rgblight_setrgb
 906               	.LVL46:
1095:quantum/rgblight.c ****   anim->pos = (anim->pos + 1) % 3;
 907               		.loc 1 1095 3 view .LVU216
 908               		.loc 1 1095 20 is_stmt 0 view .LVU217
 909 005c F801      		movw r30,r16
 910 005e 8481      		ldd r24,Z+4
 911 0060 90E0      		ldi r25,0
 912               		.loc 1 1095 26 view .LVU218
 913 0062 0196      		adiw r24,1
 914               		.loc 1 1095 31 view .LVU219
 915 0064 63E0      		ldi r22,lo8(3)
 916 0066 70E0      		ldi r23,0
 917 0068 0E94 0000 		call __divmodhi4
 918               		.loc 1 1095 13 view .LVU220
 919 006c 8483      		std Z+4,r24
 920               	/* epilogue start */
1096:quantum/rgblight.c **** }
 921               		.loc 1 1096 1 view .LVU221
 922 006e 0F90      		pop __tmp_reg__
 923 0070 0F90      		pop __tmp_reg__
 924 0072 0F90      		pop __tmp_reg__
 925 0074 0F90      		pop __tmp_reg__
 926 0076 DF91      		pop r29
 927 0078 CF91      		pop r28
 928 007a 1F91      		pop r17
 929 007c 0F91      		pop r16
 930               	.LVL47:
 931               		.loc 1 1096 1 view .LVU222
 932 007e 0895      		ret
 933               		.cfi_endproc
 934               	.LFE159:
 936               		.section	.text.rgblight_sethsv_eeprom_helper,"ax",@progbits
 937               	.global	rgblight_sethsv_eeprom_helper
 939               	rgblight_sethsv_eeprom_helper:
 940               	.LVL48:
 941               	.LFB129:
 463:quantum/rgblight.c ****   if (rgblight_config.enable) {
 942               		.loc 1 463 97 is_stmt 1 view -0
 943               		.cfi_startproc
 463:quantum/rgblight.c ****   if (rgblight_config.enable) {
 944               		.loc 1 463 97 is_stmt 0 view .LVU224
 945 0000 5F92      		push r5
 946               	.LCFI20:
 947               		.cfi_def_cfa_offset 3
 948               		.cfi_offset 5, -2
 949 0002 6F92      		push r6
 950               	.LCFI21:
 951               		.cfi_def_cfa_offset 4
 952               		.cfi_offset 6, -3
 953 0004 7F92      		push r7
 954               	.LCFI22:
 955               		.cfi_def_cfa_offset 5
 956               		.cfi_offset 7, -4
 957 0006 8F92      		push r8
 958               	.LCFI23:
 959               		.cfi_def_cfa_offset 6
 960               		.cfi_offset 8, -5
 961 0008 9F92      		push r9
 962               	.LCFI24:
 963               		.cfi_def_cfa_offset 7
 964               		.cfi_offset 9, -6
 965 000a AF92      		push r10
 966               	.LCFI25:
 967               		.cfi_def_cfa_offset 8
 968               		.cfi_offset 10, -7
 969 000c BF92      		push r11
 970               	.LCFI26:
 971               		.cfi_def_cfa_offset 9
 972               		.cfi_offset 11, -8
 973 000e CF92      		push r12
 974               	.LCFI27:
 975               		.cfi_def_cfa_offset 10
 976               		.cfi_offset 12, -9
 977 0010 DF92      		push r13
 978               	.LCFI28:
 979               		.cfi_def_cfa_offset 11
 980               		.cfi_offset 13, -10
 981 0012 EF92      		push r14
 982               	.LCFI29:
 983               		.cfi_def_cfa_offset 12
 984               		.cfi_offset 14, -11
 985 0014 FF92      		push r15
 986               	.LCFI30:
 987               		.cfi_def_cfa_offset 13
 988               		.cfi_offset 15, -12
 989 0016 0F93      		push r16
 990               	.LCFI31:
 991               		.cfi_def_cfa_offset 14
 992               		.cfi_offset 16, -13
 993 0018 1F93      		push r17
 994               	.LCFI32:
 995               		.cfi_def_cfa_offset 15
 996               		.cfi_offset 17, -14
 997 001a CF93      		push r28
 998               	.LCFI33:
 999               		.cfi_def_cfa_offset 16
 1000               		.cfi_offset 28, -15
 1001 001c DF93      		push r29
 1002               	.LCFI34:
 1003               		.cfi_def_cfa_offset 17
 1004               		.cfi_offset 29, -16
 1005 001e 00D0      		rcall .
 1006 0020 00D0      		rcall .
 1007               	.LCFI35:
 1008               		.cfi_def_cfa_offset 21
 1009 0022 CDB7      		in r28,__SP_L__
 1010 0024 DEB7      		in r29,__SP_H__
 1011               	.LCFI36:
 1012               		.cfi_def_cfa_register 28
 1013               	/* prologue: function */
 1014               	/* frame size = 4 */
 1015               	/* stack size = 19 */
 1016               	.L__stack_usage = 19
 1017 0026 182F      		mov r17,r24
 1018 0028 762E      		mov r7,r22
 1019 002a 042F      		mov r16,r20
 1020 002c 622E      		mov r6,r18
 464:quantum/rgblight.c ****     rgblight_status.base_mode = mode_base_table[rgblight_config.mode];
 1021               		.loc 1 464 3 is_stmt 1 view .LVU225
 464:quantum/rgblight.c ****     rgblight_status.base_mode = mode_base_table[rgblight_config.mode];
 1022               		.loc 1 464 7 is_stmt 0 view .LVU226
 1023 002e 9091 0000 		lds r25,rgblight_config
 464:quantum/rgblight.c ****     rgblight_status.base_mode = mode_base_table[rgblight_config.mode];
 1024               		.loc 1 464 6 view .LVU227
 1025 0032 90FF      		sbrs r25,0
 1026 0034 00C0      		rjmp .L50
 465:quantum/rgblight.c ****     if (rgblight_config.mode == RGBLIGHT_MODE_STATIC_LIGHT) {
 1027               		.loc 1 465 5 is_stmt 1 view .LVU228
 465:quantum/rgblight.c ****     if (rgblight_config.mode == RGBLIGHT_MODE_STATIC_LIGHT) {
 1028               		.loc 1 465 64 is_stmt 0 view .LVU229
 1029 0036 E92F      		mov r30,r25
 1030 0038 E695      		lsr r30
 1031 003a AE2F      		mov r26,r30
 1032 003c B0E0      		ldi r27,0
 465:quantum/rgblight.c ****     if (rgblight_config.mode == RGBLIGHT_MODE_STATIC_LIGHT) {
 1033               		.loc 1 465 48 view .LVU230
 1034 003e A050      		subi r26,lo8(-(mode_base_table))
 1035 0040 B040      		sbci r27,hi8(-(mode_base_table))
 1036 0042 8C91      		ld r24,X
 1037               	.LVL49:
 465:quantum/rgblight.c ****     if (rgblight_config.mode == RGBLIGHT_MODE_STATIC_LIGHT) {
 1038               		.loc 1 465 31 view .LVU231
 1039 0044 8093 0000 		sts rgblight_status,r24
 466:quantum/rgblight.c ****       // same static color
 1040               		.loc 1 466 5 is_stmt 1 view .LVU232
 466:quantum/rgblight.c ****       // same static color
 1041               		.loc 1 466 30 is_stmt 0 view .LVU233
 1042 0048 9E7F      		andi r25,lo8(-2)
 466:quantum/rgblight.c ****       // same static color
 1043               		.loc 1 466 8 view .LVU234
 1044 004a 9230      		cpi r25,lo8(2)
 1045 004c 01F4      		brne .L53
 1046               	.LBB27:
 468:quantum/rgblight.c ****       sethsv(hue, sat, val, &tmp_led);
 1047               		.loc 1 468 7 is_stmt 1 view .LVU235
 469:quantum/rgblight.c ****       rgblight_setrgb(tmp_led.r, tmp_led.g, tmp_led.b);
 1048               		.loc 1 469 7 view .LVU236
 1049 004e 9E01      		movw r18,r28
 1050               	.LVL50:
 469:quantum/rgblight.c ****       rgblight_setrgb(tmp_led.r, tmp_led.g, tmp_led.b);
 1051               		.loc 1 469 7 is_stmt 0 view .LVU237
 1052 0050 2F5F      		subi r18,-1
 1053 0052 3F4F      		sbci r19,-1
 1054 0054 812F      		mov r24,r17
 1055 0056 0E94 0000 		call sethsv
 1056               	.LVL51:
 470:quantum/rgblight.c ****     } else {
 1057               		.loc 1 470 7 is_stmt 1 view .LVU238
 1058 005a 4B81      		ldd r20,Y+3
 1059 005c 6981      		ldd r22,Y+1
 1060 005e 8A81      		ldd r24,Y+2
 1061 0060 0E94 0000 		call rgblight_setrgb
 1062               	.LVL52:
 1063               	.L54:
 470:quantum/rgblight.c ****     } else {
 1064               		.loc 1 470 7 is_stmt 0 view .LVU239
 1065               	.LBE27:
 525:quantum/rgblight.c ****     rgblight_config.sat = sat;
 1066               		.loc 1 525 5 is_stmt 1 view .LVU240
 525:quantum/rgblight.c ****     rgblight_config.sat = sat;
 1067               		.loc 1 525 25 is_stmt 0 view .LVU241
 1068 0064 1093 0000 		sts rgblight_config+1,r17
 526:quantum/rgblight.c ****     rgblight_config.val = val;
 1069               		.loc 1 526 5 is_stmt 1 view .LVU242
 526:quantum/rgblight.c ****     rgblight_config.val = val;
 1070               		.loc 1 526 25 is_stmt 0 view .LVU243
 1071 0068 7092 0000 		sts rgblight_config+2,r7
 527:quantum/rgblight.c ****     if (write_to_eeprom) {
 1072               		.loc 1 527 5 is_stmt 1 view .LVU244
 527:quantum/rgblight.c ****     if (write_to_eeprom) {
 1073               		.loc 1 527 25 is_stmt 0 view .LVU245
 1074 006c 0093 0000 		sts rgblight_config+3,r16
 528:quantum/rgblight.c ****       eeconfig_update_rgblight(rgblight_config.raw);
 1075               		.loc 1 528 5 is_stmt 1 view .LVU246
 528:quantum/rgblight.c ****       eeconfig_update_rgblight(rgblight_config.raw);
 1076               		.loc 1 528 8 is_stmt 0 view .LVU247
 1077 0070 6620      		tst r6
 1078 0072 01F0      		breq .L50
 529:quantum/rgblight.c ****       xprintf("rgblight set hsv [EEPROM]: %u,%u,%u\n", rgblight_config.hue, rgblight_config.sat, rg
 1079               		.loc 1 529 7 is_stmt 1 view .LVU248
 1080 0074 6091 0000 		lds r22,rgblight_config
 1081 0078 7091 0000 		lds r23,rgblight_config+1
 1082 007c 8091 0000 		lds r24,rgblight_config+2
 1083 0080 9091 0000 		lds r25,rgblight_config+3
 1084 0084 0E94 0000 		call eeconfig_update_rgblight
 1085               	.LVL53:
 530:quantum/rgblight.c ****     } else {
 1086               		.loc 1 530 118 view .LVU249
 532:quantum/rgblight.c ****     }
 1087               		.loc 1 532 120 view .LVU250
 1088               	.L50:
 1089               	/* epilogue start */
 535:quantum/rgblight.c **** 
 1090               		.loc 1 535 1 is_stmt 0 view .LVU251
 1091 0088 0F90      		pop __tmp_reg__
 1092 008a 0F90      		pop __tmp_reg__
 1093 008c 0F90      		pop __tmp_reg__
 1094 008e 0F90      		pop __tmp_reg__
 1095 0090 DF91      		pop r29
 1096 0092 CF91      		pop r28
 1097 0094 1F91      		pop r17
 1098               	.LVL54:
 535:quantum/rgblight.c **** 
 1099               		.loc 1 535 1 view .LVU252
 1100 0096 0F91      		pop r16
 1101               	.LVL55:
 535:quantum/rgblight.c **** 
 1102               		.loc 1 535 1 view .LVU253
 1103 0098 FF90      		pop r15
 1104 009a EF90      		pop r14
 1105 009c DF90      		pop r13
 1106 009e CF90      		pop r12
 1107 00a0 BF90      		pop r11
 1108 00a2 AF90      		pop r10
 1109 00a4 9F90      		pop r9
 1110 00a6 8F90      		pop r8
 1111 00a8 7F90      		pop r7
 1112               	.LVL56:
 535:quantum/rgblight.c **** 
 1113               		.loc 1 535 1 view .LVU254
 1114 00aa 6F90      		pop r6
 1115               	.LVL57:
 535:quantum/rgblight.c **** 
 1116               		.loc 1 535 1 view .LVU255
 1117 00ac 5F90      		pop r5
 1118 00ae 0895      		ret
 1119               	.LVL58:
 1120               	.L53:
 473:quantum/rgblight.c ****       }
 1121               		.loc 1 473 7 is_stmt 1 view .LVU256
 476:quantum/rgblight.c ****         // breathing mode, ignore the change of val, use in memory value instead
 1122               		.loc 1 476 12 view .LVU257
 476:quantum/rgblight.c ****         // breathing mode, ignore the change of val, use in memory value instead
 1123               		.loc 1 476 15 is_stmt 0 view .LVU258
 1124 00b0 8230      		cpi r24,lo8(2)
 1125 00b2 01F4      		brne .L55
 478:quantum/rgblight.c ****       }
 1126               		.loc 1 478 9 is_stmt 1 view .LVU259
 478:quantum/rgblight.c ****       }
 1127               		.loc 1 478 13 is_stmt 0 view .LVU260
 1128 00b4 0091 0000 		lds r16,rgblight_config+3
 1129               	.LVL59:
 478:quantum/rgblight.c ****       }
 1130               		.loc 1 478 13 view .LVU261
 1131 00b8 00C0      		rjmp .L54
 1132               	.L55:
 482:quantum/rgblight.c ****         // rainbow mood, ignore the change of hue
 1133               		.loc 1 482 12 is_stmt 1 view .LVU262
 482:quantum/rgblight.c ****         // rainbow mood, ignore the change of hue
 1134               		.loc 1 482 15 is_stmt 0 view .LVU263
 1135 00ba 8630      		cpi r24,lo8(6)
 1136 00bc 01F4      		brne .L56
 1137               	.L57:
 484:quantum/rgblight.c ****       }
 1138               		.loc 1 484 9 is_stmt 1 view .LVU264
 484:quantum/rgblight.c ****       }
 1139               		.loc 1 484 13 is_stmt 0 view .LVU265
 1140 00be 1091 0000 		lds r17,rgblight_config+1
 1141               	.LVL60:
 484:quantum/rgblight.c ****       }
 1142               		.loc 1 484 13 view .LVU266
 1143 00c2 00C0      		rjmp .L54
 1144               	.L56:
 488:quantum/rgblight.c ****         // rainbow swirl, ignore the change of hue
 1145               		.loc 1 488 12 is_stmt 1 view .LVU267
 488:quantum/rgblight.c ****         // rainbow swirl, ignore the change of hue
 1146               		.loc 1 488 15 is_stmt 0 view .LVU268
 1147 00c4 8930      		cpi r24,lo8(9)
 1148 00c6 01F0      		breq .L57
 494:quantum/rgblight.c ****         // static gradient
 1149               		.loc 1 494 12 is_stmt 1 view .LVU269
 494:quantum/rgblight.c ****         // static gradient
 1150               		.loc 1 494 15 is_stmt 0 view .LVU270
 1151 00c8 8931      		cpi r24,lo8(25)
 1152 00ca 01F4      		brne .L54
 1153               	.LBB28:
 496:quantum/rgblight.c ****         bool direction = (delta % 2) == 0;
 1154               		.loc 1 496 9 is_stmt 1 view .LVU271
 496:quantum/rgblight.c ****         bool direction = (delta % 2) == 0;
 1155               		.loc 1 496 17 is_stmt 0 view .LVU272
 1156 00cc E951      		subi r30,lo8(-(-25))
 1157               	.LVL61:
 497:quantum/rgblight.c **** #ifdef __AVR__
 1158               		.loc 1 497 9 is_stmt 1 view .LVU273
 497:quantum/rgblight.c **** #ifdef __AVR__
 1159               		.loc 1 497 38 is_stmt 0 view .LVU274
 1160 00ce 8E2F      		mov r24,r30
 1161 00d0 8170      		andi r24,lo8(1)
 1162 00d2 582E      		mov r5,r24
 1163               	.LVL62:
 500:quantum/rgblight.c **** #else
 1164               		.loc 1 500 9 is_stmt 1 view .LVU275
 1165               	.LBB29:
 500:quantum/rgblight.c **** #else
 1166               		.loc 1 500 25 view .LVU276
 1167 00d4 E695      		lsr r30
 1168               	.LVL63:
 500:quantum/rgblight.c **** #else
 1169               		.loc 1 500 25 is_stmt 0 view .LVU277
 1170 00d6 F0E0      		ldi r31,0
 1171 00d8 E050      		subi r30,lo8(-(RGBLED_GRADIENT_RANGES))
 1172 00da F040      		sbci r31,hi8(-(RGBLED_GRADIENT_RANGES))
 1173               	.LVL64:
 500:quantum/rgblight.c **** #else
 1174               		.loc 1 500 25 is_stmt 1 view .LVU278
 500:quantum/rgblight.c **** #else
 1175               		.loc 1 500 25 view .LVU279
 1176               	/* #APP */
 1177               	 ;  500 "quantum/rgblight.c" 1
 1178 00dc A590      		lpm r10, Z+
 1179 00de B490      		lpm r11, Z
 1180               		
 1181               	 ;  0 "" 2
 1182               	.LVL65:
 500:quantum/rgblight.c **** #else
 1183               		.loc 1 500 25 view .LVU280
 500:quantum/rgblight.c **** #else
 1184               		.loc 1 500 25 is_stmt 0 view .LVU281
 1185               	/* #NOAPP */
 1186               	.LBE29:
 504:quantum/rgblight.c ****           uint8_t _hue = ((uint16_t)i * (uint16_t)range) / RGBLED_NUM;
 1187               		.loc 1 504 9 is_stmt 1 view .LVU282
 1188               	.LBB30:
 504:quantum/rgblight.c ****           uint8_t _hue = ((uint16_t)i * (uint16_t)range) / RGBLED_NUM;
 1189               		.loc 1 504 14 view .LVU283
 504:quantum/rgblight.c ****           uint8_t _hue = ((uint16_t)i * (uint16_t)range) / RGBLED_NUM;
 1190               		.loc 1 504 14 is_stmt 0 view .LVU284
 1191 00e0 BB24      		clr r11
 1192               	.LVL66:
 504:quantum/rgblight.c ****           uint8_t _hue = ((uint16_t)i * (uint16_t)range) / RGBLED_NUM;
 1193               		.loc 1 504 14 view .LVU285
 1194 00e2 80E0      		ldi r24,lo8(led)
 1195 00e4 E82E      		mov r14,r24
 1196 00e6 80E0      		ldi r24,hi8(led)
 1197 00e8 F82E      		mov r15,r24
 1198               	.LBE30:
 1199               	.LBB33:
 500:quantum/rgblight.c **** #else
 1200               		.loc 1 500 25 view .LVU286
 1201 00ea D12C      		mov r13,__zero_reg__
 1202 00ec C12C      		mov r12,__zero_reg__
 1203               	.LBE33:
 1204               	.LBB34:
 1205               	.LBB31:
 505:quantum/rgblight.c ****           if (direction) {
 1206               		.loc 1 505 58 view .LVU287
 1207 00ee 9FE0      		ldi r25,lo8(15)
 1208 00f0 892E      		mov r8,r25
 1209 00f2 912C      		mov r9,__zero_reg__
 1210               	.LVL67:
 1211               	.L60:
 505:quantum/rgblight.c ****           if (direction) {
 1212               		.loc 1 505 11 is_stmt 1 view .LVU288
 505:quantum/rgblight.c ****           if (direction) {
 1213               		.loc 1 505 58 is_stmt 0 view .LVU289
 1214 00f4 C601      		movw r24,r12
 1215 00f6 B401      		movw r22,r8
 1216 00f8 0E94 0000 		call __udivmodhi4
 1217               	.LVL68:
 506:quantum/rgblight.c ****             _hue = hue + _hue;
 1218               		.loc 1 506 11 is_stmt 1 view .LVU290
 507:quantum/rgblight.c ****           } else {
 1219               		.loc 1 507 18 is_stmt 0 view .LVU291
 1220 00fc 812F      		mov r24,r17
 506:quantum/rgblight.c ****             _hue = hue + _hue;
 1221               		.loc 1 506 14 view .LVU292
 1222 00fe 5110      		cpse r5,__zero_reg__
 1223 0100 00C0      		rjmp .L58
 507:quantum/rgblight.c ****           } else {
 1224               		.loc 1 507 13 is_stmt 1 view .LVU293
 507:quantum/rgblight.c ****           } else {
 1225               		.loc 1 507 18 is_stmt 0 view .LVU294
 1226 0102 860F      		add r24,r22
 1227               	.LVL69:
 1228               	.L59:
 511:quantum/rgblight.c ****           sethsv(_hue, sat, val, (LED_TYPE *)&led[i]);
 1229               		.loc 1 511 88 is_stmt 1 discriminator 2 view .LVU295
 512:quantum/rgblight.c ****         }
 1230               		.loc 1 512 11 discriminator 2 view .LVU296
 1231 0104 9701      		movw r18,r14
 1232 0106 402F      		mov r20,r16
 1233 0108 672D      		mov r22,r7
 1234 010a 0E94 0000 		call sethsv
 1235               	.LVL70:
 512:quantum/rgblight.c ****         }
 1236               		.loc 1 512 11 is_stmt 0 discriminator 2 view .LVU297
 1237 010e CA0C      		add r12,r10
 1238 0110 DB1C      		adc r13,r11
 1239 0112 84E0      		ldi r24,4
 1240 0114 E80E      		add r14,r24
 1241 0116 F11C      		adc r15,__zero_reg__
 1242               	.LBE31:
 504:quantum/rgblight.c ****           uint8_t _hue = ((uint16_t)i * (uint16_t)range) / RGBLED_NUM;
 1243               		.loc 1 504 9 discriminator 2 view .LVU298
 1244 0118 80E0      		ldi r24,lo8(led+60)
 1245 011a E816      		cp r14,r24
 1246 011c 80E0      		ldi r24,hi8(led+60)
 1247 011e F806      		cpc r15,r24
 1248 0120 01F4      		brne .L60
 1249               	.LBE34:
 514:quantum/rgblight.c ****       }
 1250               		.loc 1 514 9 is_stmt 1 view .LVU299
 1251 0122 0E94 0000 		call rgblight_set
 1252               	.LVL71:
 1253 0126 00C0      		rjmp .L54
 1254               	.LVL72:
 1255               	.L58:
 1256               	.LBB35:
 1257               	.LBB32:
 509:quantum/rgblight.c ****           }
 1258               		.loc 1 509 13 view .LVU300
 509:quantum/rgblight.c ****           }
 1259               		.loc 1 509 18 is_stmt 0 view .LVU301
 1260 0128 861B      		sub r24,r22
 1261               	.LVL73:
 509:quantum/rgblight.c ****           }
 1262               		.loc 1 509 18 view .LVU302
 1263 012a 00C0      		rjmp .L59
 1264               	.LBE32:
 1265               	.LBE35:
 1266               	.LBE28:
 1267               		.cfi_endproc
 1268               	.LFE129:
 1270               		.section	.text.rgblight_increase_hue_helper,"ax",@progbits
 1271               	.global	rgblight_increase_hue_helper
 1273               	rgblight_increase_hue_helper:
 1274               	.LVL74:
 1275               	.LFB108:
 380:quantum/rgblight.c ****   uint8_t hue = rgblight_config.hue + RGBLIGHT_HUE_STEP;
 1276               		.loc 1 380 57 is_stmt 1 view -0
 1277               		.cfi_startproc
 1278               	/* prologue: function */
 1279               	/* frame size = 0 */
 1280               	/* stack size = 0 */
 1281               	.L__stack_usage = 0
 381:quantum/rgblight.c ****   rgblight_sethsv_eeprom_helper(hue, rgblight_config.sat, rgblight_config.val, write_to_eeprom);
 1282               		.loc 1 381 3 view .LVU304
 382:quantum/rgblight.c **** }
 1283               		.loc 1 382 3 view .LVU305
 1284 0000 E0E0      		ldi r30,lo8(rgblight_config)
 1285 0002 F0E0      		ldi r31,hi8(rgblight_config)
 381:quantum/rgblight.c ****   rgblight_sethsv_eeprom_helper(hue, rgblight_config.sat, rgblight_config.val, write_to_eeprom);
 1286               		.loc 1 381 11 is_stmt 0 view .LVU306
 1287 0004 9181      		ldd r25,Z+1
 382:quantum/rgblight.c **** }
 1288               		.loc 1 382 3 view .LVU307
 1289 0006 282F      		mov r18,r24
 1290 0008 4381      		ldd r20,Z+3
 1291 000a 6281      		ldd r22,Z+2
 1292 000c 8CE0      		ldi r24,lo8(12)
 1293               	.LVL75:
 382:quantum/rgblight.c **** }
 1294               		.loc 1 382 3 view .LVU308
 1295 000e 890F      		add r24,r25
 1296               	.LVL76:
 382:quantum/rgblight.c **** }
 1297               		.loc 1 382 3 view .LVU309
 1298 0010 0C94 0000 		jmp rgblight_sethsv_eeprom_helper
 1299               	.LVL77:
 382:quantum/rgblight.c **** }
 1300               		.loc 1 382 3 view .LVU310
 1301               		.cfi_endproc
 1302               	.LFE108:
 1304               		.section	.text.rgblight_increase_hue_noeeprom,"ax",@progbits
 1305               	.global	rgblight_increase_hue_noeeprom
 1307               	rgblight_increase_hue_noeeprom:
 1308               	.LFB109:
 384:quantum/rgblight.c ****   rgblight_increase_hue_helper(false);
 1309               		.loc 1 384 43 is_stmt 1 view -0
 1310               		.cfi_startproc
 1311               	/* prologue: function */
 1312               	/* frame size = 0 */
 1313               	/* stack size = 0 */
 1314               	.L__stack_usage = 0
 385:quantum/rgblight.c **** }
 1315               		.loc 1 385 3 view .LVU312
 1316 0000 80E0      		ldi r24,0
 1317 0002 0C94 0000 		jmp rgblight_increase_hue_helper
 1318               	.LVL78:
 1319               		.cfi_endproc
 1320               	.LFE109:
 1322               		.section	.text.rgblight_increase_hue,"ax",@progbits
 1323               	.global	rgblight_increase_hue
 1325               	rgblight_increase_hue:
 1326               	.LFB110:
 387:quantum/rgblight.c ****   rgblight_increase_hue_helper(true);
 1327               		.loc 1 387 34 view -0
 1328               		.cfi_startproc
 1329               	/* prologue: function */
 1330               	/* frame size = 0 */
 1331               	/* stack size = 0 */
 1332               	.L__stack_usage = 0
 388:quantum/rgblight.c **** }
 1333               		.loc 1 388 3 view .LVU314
 1334 0000 81E0      		ldi r24,lo8(1)
 1335 0002 0C94 0000 		jmp rgblight_increase_hue_helper
 1336               	.LVL79:
 1337               		.cfi_endproc
 1338               	.LFE110:
 1340               		.section	.text.rgblight_decrease_hue_helper,"ax",@progbits
 1341               	.global	rgblight_decrease_hue_helper
 1343               	rgblight_decrease_hue_helper:
 1344               	.LVL80:
 1345               	.LFB111:
 390:quantum/rgblight.c ****   uint8_t hue = rgblight_config.hue - RGBLIGHT_HUE_STEP;
 1346               		.loc 1 390 57 view -0
 1347               		.cfi_startproc
 1348               	/* prologue: function */
 1349               	/* frame size = 0 */
 1350               	/* stack size = 0 */
 1351               	.L__stack_usage = 0
 391:quantum/rgblight.c ****   rgblight_sethsv_eeprom_helper(hue, rgblight_config.sat, rgblight_config.val, write_to_eeprom);
 1352               		.loc 1 391 3 view .LVU316
 392:quantum/rgblight.c **** }
 1353               		.loc 1 392 3 view .LVU317
 1354 0000 E0E0      		ldi r30,lo8(rgblight_config)
 1355 0002 F0E0      		ldi r31,hi8(rgblight_config)
 391:quantum/rgblight.c ****   rgblight_sethsv_eeprom_helper(hue, rgblight_config.sat, rgblight_config.val, write_to_eeprom);
 1356               		.loc 1 391 11 is_stmt 0 view .LVU318
 1357 0004 9181      		ldd r25,Z+1
 392:quantum/rgblight.c **** }
 1358               		.loc 1 392 3 view .LVU319
 1359 0006 282F      		mov r18,r24
 1360 0008 4381      		ldd r20,Z+3
 1361 000a 6281      		ldd r22,Z+2
 1362 000c 84EF      		ldi r24,lo8(-12)
 1363               	.LVL81:
 392:quantum/rgblight.c **** }
 1364               		.loc 1 392 3 view .LVU320
 1365 000e 890F      		add r24,r25
 1366               	.LVL82:
 392:quantum/rgblight.c **** }
 1367               		.loc 1 392 3 view .LVU321
 1368 0010 0C94 0000 		jmp rgblight_sethsv_eeprom_helper
 1369               	.LVL83:
 392:quantum/rgblight.c **** }
 1370               		.loc 1 392 3 view .LVU322
 1371               		.cfi_endproc
 1372               	.LFE111:
 1374               		.section	.text.rgblight_decrease_hue_noeeprom,"ax",@progbits
 1375               	.global	rgblight_decrease_hue_noeeprom
 1377               	rgblight_decrease_hue_noeeprom:
 1378               	.LFB112:
 394:quantum/rgblight.c ****   rgblight_decrease_hue_helper(false);
 1379               		.loc 1 394 43 is_stmt 1 view -0
 1380               		.cfi_startproc
 1381               	/* prologue: function */
 1382               	/* frame size = 0 */
 1383               	/* stack size = 0 */
 1384               	.L__stack_usage = 0
 395:quantum/rgblight.c **** }
 1385               		.loc 1 395 3 view .LVU324
 1386 0000 80E0      		ldi r24,0
 1387 0002 0C94 0000 		jmp rgblight_decrease_hue_helper
 1388               	.LVL84:
 1389               		.cfi_endproc
 1390               	.LFE112:
 1392               		.section	.text.rgblight_decrease_hue,"ax",@progbits
 1393               	.global	rgblight_decrease_hue
 1395               	rgblight_decrease_hue:
 1396               	.LFB113:
 397:quantum/rgblight.c ****   rgblight_decrease_hue_helper(true);
 1397               		.loc 1 397 34 view -0
 1398               		.cfi_startproc
 1399               	/* prologue: function */
 1400               	/* frame size = 0 */
 1401               	/* stack size = 0 */
 1402               	.L__stack_usage = 0
 398:quantum/rgblight.c **** }
 1403               		.loc 1 398 3 view .LVU326
 1404 0000 81E0      		ldi r24,lo8(1)
 1405 0002 0C94 0000 		jmp rgblight_decrease_hue_helper
 1406               	.LVL85:
 1407               		.cfi_endproc
 1408               	.LFE113:
 1410               		.section	.text.rgblight_increase_sat_helper,"ax",@progbits
 1411               	.global	rgblight_increase_sat_helper
 1413               	rgblight_increase_sat_helper:
 1414               	.LVL86:
 1415               	.LFB114:
 400:quantum/rgblight.c ****   uint8_t sat = qadd8(rgblight_config.sat, RGBLIGHT_SAT_STEP);
 1416               		.loc 1 400 57 view -0
 1417               		.cfi_startproc
 1418               	/* prologue: function */
 1419               	/* frame size = 0 */
 1420               	/* stack size = 0 */
 1421               	.L__stack_usage = 0
 401:quantum/rgblight.c ****   rgblight_sethsv_eeprom_helper(rgblight_config.hue, sat, rgblight_config.val, write_to_eeprom);
 1422               		.loc 1 401 3 view .LVU328
 1423               	.LBB36:
 1424               	.LBI36:
 1425               		.file 2 "./lib/lib8tion/math8.h"
   1:./lib/lib8tion/math8.h **** #ifndef __INC_LIB8TION_MATH_H
   2:./lib/lib8tion/math8.h **** #define __INC_LIB8TION_MATH_H
   3:./lib/lib8tion/math8.h **** 
   4:./lib/lib8tion/math8.h **** #include "scale8.h"
   5:./lib/lib8tion/math8.h **** 
   6:./lib/lib8tion/math8.h **** ///@ingroup lib8tion
   7:./lib/lib8tion/math8.h **** 
   8:./lib/lib8tion/math8.h **** ///@defgroup Math Basic math operations
   9:./lib/lib8tion/math8.h **** /// Fast, efficient 8-bit math functions specifically
  10:./lib/lib8tion/math8.h **** /// designed for high-performance LED programming.
  11:./lib/lib8tion/math8.h **** ///
  12:./lib/lib8tion/math8.h **** /// Because of the AVR(Arduino) and ARM assembly language
  13:./lib/lib8tion/math8.h **** /// implementations provided, using these functions often
  14:./lib/lib8tion/math8.h **** /// results in smaller and faster code than the equivalent
  15:./lib/lib8tion/math8.h **** /// program using plain "C" arithmetic and logic.
  16:./lib/lib8tion/math8.h **** ///@{
  17:./lib/lib8tion/math8.h **** 
  18:./lib/lib8tion/math8.h **** 
  19:./lib/lib8tion/math8.h **** /// add one byte to another, saturating at 0xFF
  20:./lib/lib8tion/math8.h **** /// @param i - first byte to add
  21:./lib/lib8tion/math8.h **** /// @param j - second byte to add
  22:./lib/lib8tion/math8.h **** /// @returns the sum of i & j, capped at 0xFF
  23:./lib/lib8tion/math8.h **** LIB8STATIC_ALWAYS_INLINE uint8_t qadd8( uint8_t i, uint8_t j)
 1426               		.loc 2 23 34 view .LVU329
 1427               	.LBB37:
  24:./lib/lib8tion/math8.h **** {
  25:./lib/lib8tion/math8.h **** #if QADD8_C == 1
  26:./lib/lib8tion/math8.h ****     uint16_t t = i + j;
  27:./lib/lib8tion/math8.h ****     if (t > 255) t = 255;
  28:./lib/lib8tion/math8.h ****     return t;
  29:./lib/lib8tion/math8.h **** #elif QADD8_AVRASM == 1
  30:./lib/lib8tion/math8.h ****     asm volatile(
 1428               		.loc 2 30 5 view .LVU330
 1429               	.LBE37:
 1430               	.LBE36:
 401:quantum/rgblight.c ****   rgblight_sethsv_eeprom_helper(rgblight_config.hue, sat, rgblight_config.val, write_to_eeprom);
 1431               		.loc 1 401 17 is_stmt 0 view .LVU331
 1432 0000 E0E0      		ldi r30,lo8(rgblight_config)
 1433 0002 F0E0      		ldi r31,hi8(rgblight_config)
 1434               	.LBB39:
 1435               	.LBB38:
 1436               		.loc 2 30 5 view .LVU332
 1437 0004 6281      		ldd r22,Z+2
 1438 0006 2FEF      		ldi r18,lo8(-1)
 1439               	/* #APP */
 1440               	 ;  30 "./lib/lib8tion/math8.h" 1
 1441 0008 620F      		add r22, r18    
 1442 000a 00F4      		brcc L_1107     
 1443 000c 6FEF      		ldi r22, 0xFF  
 1444               		L_1107: 
 1445               	 ;  0 "" 2
 1446               	.LVL87:
  31:./lib/lib8tion/math8.h ****          /* First, add j to i, conditioning the C flag */
  32:./lib/lib8tion/math8.h ****          "add %0, %1    \n\t"
  33:./lib/lib8tion/math8.h **** 
  34:./lib/lib8tion/math8.h ****          /* Now test the C flag.
  35:./lib/lib8tion/math8.h ****            If C is clear, we branch around a load of 0xFF into i.
  36:./lib/lib8tion/math8.h ****            If C is set, we go ahead and load 0xFF into i.
  37:./lib/lib8tion/math8.h ****          */
  38:./lib/lib8tion/math8.h ****          "brcc L_%=     \n\t"
  39:./lib/lib8tion/math8.h ****          "ldi %0, 0xFF  \n\t"
  40:./lib/lib8tion/math8.h ****          "L_%=: "
  41:./lib/lib8tion/math8.h ****          : "+a" (i)
  42:./lib/lib8tion/math8.h ****          : "a"  (j) );
  43:./lib/lib8tion/math8.h ****     return i;
 1447               		.loc 2 43 5 is_stmt 1 view .LVU333
 1448               		.loc 2 43 5 is_stmt 0 view .LVU334
 1449               	/* #NOAPP */
 1450               	.LBE38:
 1451               	.LBE39:
 402:quantum/rgblight.c **** }
 1452               		.loc 1 402 3 is_stmt 1 view .LVU335
 1453 000e 282F      		mov r18,r24
 1454 0010 4381      		ldd r20,Z+3
 1455 0012 8181      		ldd r24,Z+1
 1456               	.LVL88:
 402:quantum/rgblight.c **** }
 1457               		.loc 1 402 3 is_stmt 0 view .LVU336
 1458 0014 0C94 0000 		jmp rgblight_sethsv_eeprom_helper
 1459               	.LVL89:
 402:quantum/rgblight.c **** }
 1460               		.loc 1 402 3 view .LVU337
 1461               		.cfi_endproc
 1462               	.LFE114:
 1464               		.section	.text.rgblight_increase_sat_noeeprom,"ax",@progbits
 1465               	.global	rgblight_increase_sat_noeeprom
 1467               	rgblight_increase_sat_noeeprom:
 1468               	.LFB115:
 404:quantum/rgblight.c ****   rgblight_increase_sat_helper(false);
 1469               		.loc 1 404 43 is_stmt 1 view -0
 1470               		.cfi_startproc
 1471               	/* prologue: function */
 1472               	/* frame size = 0 */
 1473               	/* stack size = 0 */
 1474               	.L__stack_usage = 0
 405:quantum/rgblight.c **** }
 1475               		.loc 1 405 3 view .LVU339
 1476 0000 80E0      		ldi r24,0
 1477 0002 0C94 0000 		jmp rgblight_increase_sat_helper
 1478               	.LVL90:
 1479               		.cfi_endproc
 1480               	.LFE115:
 1482               		.section	.text.rgblight_increase_sat,"ax",@progbits
 1483               	.global	rgblight_increase_sat
 1485               	rgblight_increase_sat:
 1486               	.LFB116:
 407:quantum/rgblight.c ****   rgblight_increase_sat_helper(true);
 1487               		.loc 1 407 34 view -0
 1488               		.cfi_startproc
 1489               	/* prologue: function */
 1490               	/* frame size = 0 */
 1491               	/* stack size = 0 */
 1492               	.L__stack_usage = 0
 408:quantum/rgblight.c **** }
 1493               		.loc 1 408 3 view .LVU341
 1494 0000 81E0      		ldi r24,lo8(1)
 1495 0002 0C94 0000 		jmp rgblight_increase_sat_helper
 1496               	.LVL91:
 1497               		.cfi_endproc
 1498               	.LFE116:
 1500               		.section	.text.rgblight_decrease_sat_helper,"ax",@progbits
 1501               	.global	rgblight_decrease_sat_helper
 1503               	rgblight_decrease_sat_helper:
 1504               	.LVL92:
 1505               	.LFB117:
 410:quantum/rgblight.c ****   uint8_t sat = qsub8(rgblight_config.sat, RGBLIGHT_SAT_STEP);
 1506               		.loc 1 410 57 view -0
 1507               		.cfi_startproc
 1508               	/* prologue: function */
 1509               	/* frame size = 0 */
 1510               	/* stack size = 0 */
 1511               	.L__stack_usage = 0
 411:quantum/rgblight.c ****   rgblight_sethsv_eeprom_helper(rgblight_config.hue, sat, rgblight_config.val, write_to_eeprom);
 1512               		.loc 1 411 3 view .LVU343
 1513               	.LBB40:
 1514               	.LBI40:
  44:./lib/lib8tion/math8.h **** #elif QADD8_ARM_DSP_ASM == 1
  45:./lib/lib8tion/math8.h ****     asm volatile( "uqadd8 %0, %0, %1" : "+r" (i) : "r" (j));
  46:./lib/lib8tion/math8.h ****     return i;
  47:./lib/lib8tion/math8.h **** #else
  48:./lib/lib8tion/math8.h **** #error "No implementation for qadd8 available."
  49:./lib/lib8tion/math8.h **** #endif
  50:./lib/lib8tion/math8.h **** }
  51:./lib/lib8tion/math8.h **** 
  52:./lib/lib8tion/math8.h **** /// Add one byte to another, saturating at 0x7F
  53:./lib/lib8tion/math8.h **** /// @param i - first byte to add
  54:./lib/lib8tion/math8.h **** /// @param j - second byte to add
  55:./lib/lib8tion/math8.h **** /// @returns the sum of i & j, capped at 0xFF
  56:./lib/lib8tion/math8.h **** LIB8STATIC_ALWAYS_INLINE int8_t qadd7( int8_t i, int8_t j)
  57:./lib/lib8tion/math8.h **** {
  58:./lib/lib8tion/math8.h **** #if QADD7_C == 1
  59:./lib/lib8tion/math8.h ****     int16_t t = i + j;
  60:./lib/lib8tion/math8.h ****     if (t > 127) t = 127;
  61:./lib/lib8tion/math8.h ****     return t;
  62:./lib/lib8tion/math8.h **** #elif QADD7_AVRASM == 1
  63:./lib/lib8tion/math8.h ****     asm volatile(
  64:./lib/lib8tion/math8.h ****          /* First, add j to i, conditioning the V flag */
  65:./lib/lib8tion/math8.h ****          "add %0, %1    \n\t"
  66:./lib/lib8tion/math8.h **** 
  67:./lib/lib8tion/math8.h ****          /* Now test the V flag.
  68:./lib/lib8tion/math8.h ****           If V is clear, we branch around a load of 0x7F into i.
  69:./lib/lib8tion/math8.h ****           If V is set, we go ahead and load 0x7F into i.
  70:./lib/lib8tion/math8.h ****           */
  71:./lib/lib8tion/math8.h ****          "brvc L_%=     \n\t"
  72:./lib/lib8tion/math8.h ****          "ldi %0, 0x7F  \n\t"
  73:./lib/lib8tion/math8.h ****          "L_%=: "
  74:./lib/lib8tion/math8.h ****          : "+a" (i)
  75:./lib/lib8tion/math8.h ****          : "a"  (j) );
  76:./lib/lib8tion/math8.h **** 
  77:./lib/lib8tion/math8.h ****     return i;
  78:./lib/lib8tion/math8.h **** #elif QADD7_ARM_DSP_ASM == 1
  79:./lib/lib8tion/math8.h ****     asm volatile( "qadd8 %0, %0, %1" : "+r" (i) : "r" (j));
  80:./lib/lib8tion/math8.h ****     return i;
  81:./lib/lib8tion/math8.h **** #else
  82:./lib/lib8tion/math8.h **** #error "No implementation for qadd7 available."
  83:./lib/lib8tion/math8.h **** #endif
  84:./lib/lib8tion/math8.h **** }
  85:./lib/lib8tion/math8.h **** 
  86:./lib/lib8tion/math8.h **** /// subtract one byte from another, saturating at 0x00
  87:./lib/lib8tion/math8.h **** /// @returns i - j with a floor of 0
  88:./lib/lib8tion/math8.h **** LIB8STATIC_ALWAYS_INLINE uint8_t qsub8( uint8_t i, uint8_t j)
 1515               		.loc 2 88 34 view .LVU344
 1516               	.LBB41:
  89:./lib/lib8tion/math8.h **** {
  90:./lib/lib8tion/math8.h **** #if QSUB8_C == 1
  91:./lib/lib8tion/math8.h ****     int16_t t = i - j;
  92:./lib/lib8tion/math8.h ****     if (t < 0) t = 0;
  93:./lib/lib8tion/math8.h ****     return t;
  94:./lib/lib8tion/math8.h **** #elif QSUB8_AVRASM == 1
  95:./lib/lib8tion/math8.h **** 
  96:./lib/lib8tion/math8.h ****     asm volatile(
 1517               		.loc 2 96 5 view .LVU345
 1518               	.LBE41:
 1519               	.LBE40:
 411:quantum/rgblight.c ****   rgblight_sethsv_eeprom_helper(rgblight_config.hue, sat, rgblight_config.val, write_to_eeprom);
 1520               		.loc 1 411 17 is_stmt 0 view .LVU346
 1521 0000 E0E0      		ldi r30,lo8(rgblight_config)
 1522 0002 F0E0      		ldi r31,hi8(rgblight_config)
 1523               	.LBB43:
 1524               	.LBB42:
 1525               		.loc 2 96 5 view .LVU347
 1526 0004 6281      		ldd r22,Z+2
 1527 0006 2FEF      		ldi r18,lo8(-1)
 1528               	/* #APP */
 1529               	 ;  96 "./lib/lib8tion/math8.h" 1
 1530 0008 621B      		sub r22, r18    
 1531 000a 00F4      		brcc L_1163     
 1532 000c 60E0      		ldi r22, 0x00  
 1533               		L_1163: 
 1534               	 ;  0 "" 2
 1535               	.LVL93:
  97:./lib/lib8tion/math8.h ****          /* First, subtract j from i, conditioning the C flag */
  98:./lib/lib8tion/math8.h ****          "sub %0, %1    \n\t"
  99:./lib/lib8tion/math8.h **** 
 100:./lib/lib8tion/math8.h ****          /* Now test the C flag.
 101:./lib/lib8tion/math8.h ****           If C is clear, we branch around a load of 0x00 into i.
 102:./lib/lib8tion/math8.h ****           If C is set, we go ahead and load 0x00 into i.
 103:./lib/lib8tion/math8.h ****           */
 104:./lib/lib8tion/math8.h ****          "brcc L_%=     \n\t"
 105:./lib/lib8tion/math8.h ****          "ldi %0, 0x00  \n\t"
 106:./lib/lib8tion/math8.h ****          "L_%=: "
 107:./lib/lib8tion/math8.h ****          : "+a" (i)
 108:./lib/lib8tion/math8.h ****          : "a"  (j) );
 109:./lib/lib8tion/math8.h **** 
 110:./lib/lib8tion/math8.h ****     return i;
 1536               		.loc 2 110 5 is_stmt 1 view .LVU348
 1537               		.loc 2 110 5 is_stmt 0 view .LVU349
 1538               	/* #NOAPP */
 1539               	.LBE42:
 1540               	.LBE43:
 412:quantum/rgblight.c **** }
 1541               		.loc 1 412 3 is_stmt 1 view .LVU350
 1542 000e 282F      		mov r18,r24
 1543 0010 4381      		ldd r20,Z+3
 1544 0012 8181      		ldd r24,Z+1
 1545               	.LVL94:
 412:quantum/rgblight.c **** }
 1546               		.loc 1 412 3 is_stmt 0 view .LVU351
 1547 0014 0C94 0000 		jmp rgblight_sethsv_eeprom_helper
 1548               	.LVL95:
 412:quantum/rgblight.c **** }
 1549               		.loc 1 412 3 view .LVU352
 1550               		.cfi_endproc
 1551               	.LFE117:
 1553               		.section	.text.rgblight_decrease_sat_noeeprom,"ax",@progbits
 1554               	.global	rgblight_decrease_sat_noeeprom
 1556               	rgblight_decrease_sat_noeeprom:
 1557               	.LFB118:
 414:quantum/rgblight.c ****   rgblight_decrease_sat_helper(false);
 1558               		.loc 1 414 43 is_stmt 1 view -0
 1559               		.cfi_startproc
 1560               	/* prologue: function */
 1561               	/* frame size = 0 */
 1562               	/* stack size = 0 */
 1563               	.L__stack_usage = 0
 415:quantum/rgblight.c **** }
 1564               		.loc 1 415 3 view .LVU354
 1565 0000 80E0      		ldi r24,0
 1566 0002 0C94 0000 		jmp rgblight_decrease_sat_helper
 1567               	.LVL96:
 1568               		.cfi_endproc
 1569               	.LFE118:
 1571               		.section	.text.rgblight_decrease_sat,"ax",@progbits
 1572               	.global	rgblight_decrease_sat
 1574               	rgblight_decrease_sat:
 1575               	.LFB119:
 417:quantum/rgblight.c ****   rgblight_decrease_sat_helper(true);
 1576               		.loc 1 417 34 view -0
 1577               		.cfi_startproc
 1578               	/* prologue: function */
 1579               	/* frame size = 0 */
 1580               	/* stack size = 0 */
 1581               	.L__stack_usage = 0
 418:quantum/rgblight.c **** }
 1582               		.loc 1 418 3 view .LVU356
 1583 0000 81E0      		ldi r24,lo8(1)
 1584 0002 0C94 0000 		jmp rgblight_decrease_sat_helper
 1585               	.LVL97:
 1586               		.cfi_endproc
 1587               	.LFE119:
 1589               		.section	.text.rgblight_increase_val_helper,"ax",@progbits
 1590               	.global	rgblight_increase_val_helper
 1592               	rgblight_increase_val_helper:
 1593               	.LVL98:
 1594               	.LFB120:
 420:quantum/rgblight.c ****   uint8_t val = qadd8(rgblight_config.val, RGBLIGHT_VAL_STEP);
 1595               		.loc 1 420 57 view -0
 1596               		.cfi_startproc
 1597               	/* prologue: function */
 1598               	/* frame size = 0 */
 1599               	/* stack size = 0 */
 1600               	.L__stack_usage = 0
 421:quantum/rgblight.c ****   rgblight_sethsv_eeprom_helper(rgblight_config.hue, rgblight_config.sat, val, write_to_eeprom);
 1601               		.loc 1 421 3 view .LVU358
 1602               	.LBB44:
 1603               	.LBI44:
  23:./lib/lib8tion/math8.h **** {
 1604               		.loc 2 23 34 view .LVU359
 1605               	.LBB45:
  30:./lib/lib8tion/math8.h ****          /* First, add j to i, conditioning the C flag */
 1606               		.loc 2 30 5 view .LVU360
 1607               	.LBE45:
 1608               	.LBE44:
 421:quantum/rgblight.c ****   rgblight_sethsv_eeprom_helper(rgblight_config.hue, rgblight_config.sat, val, write_to_eeprom);
 1609               		.loc 1 421 17 is_stmt 0 view .LVU361
 1610 0000 E0E0      		ldi r30,lo8(rgblight_config)
 1611 0002 F0E0      		ldi r31,hi8(rgblight_config)
 1612               	.LBB47:
 1613               	.LBB46:
  30:./lib/lib8tion/math8.h ****          /* First, add j to i, conditioning the C flag */
 1614               		.loc 2 30 5 view .LVU362
 1615 0004 4381      		ldd r20,Z+3
 1616 0006 2CE0      		ldi r18,lo8(12)
 1617               	/* #APP */
 1618               	 ;  30 "./lib/lib8tion/math8.h" 1
 1619 0008 420F      		add r20, r18    
 1620 000a 00F4      		brcc L_1219     
 1621 000c 4FEF      		ldi r20, 0xFF  
 1622               		L_1219: 
 1623               	 ;  0 "" 2
 1624               	.LVL99:
  43:./lib/lib8tion/math8.h **** #elif QADD8_ARM_DSP_ASM == 1
 1625               		.loc 2 43 5 is_stmt 1 view .LVU363
  43:./lib/lib8tion/math8.h **** #elif QADD8_ARM_DSP_ASM == 1
 1626               		.loc 2 43 5 is_stmt 0 view .LVU364
 1627               	/* #NOAPP */
 1628               	.LBE46:
 1629               	.LBE47:
 422:quantum/rgblight.c **** }
 1630               		.loc 1 422 3 is_stmt 1 view .LVU365
 1631 000e 282F      		mov r18,r24
 1632 0010 6281      		ldd r22,Z+2
 1633 0012 8181      		ldd r24,Z+1
 1634               	.LVL100:
 422:quantum/rgblight.c **** }
 1635               		.loc 1 422 3 is_stmt 0 view .LVU366
 1636 0014 0C94 0000 		jmp rgblight_sethsv_eeprom_helper
 1637               	.LVL101:
 422:quantum/rgblight.c **** }
 1638               		.loc 1 422 3 view .LVU367
 1639               		.cfi_endproc
 1640               	.LFE120:
 1642               		.section	.text.rgblight_increase_val_noeeprom,"ax",@progbits
 1643               	.global	rgblight_increase_val_noeeprom
 1645               	rgblight_increase_val_noeeprom:
 1646               	.LFB121:
 424:quantum/rgblight.c ****   rgblight_increase_val_helper(false);
 1647               		.loc 1 424 43 is_stmt 1 view -0
 1648               		.cfi_startproc
 1649               	/* prologue: function */
 1650               	/* frame size = 0 */
 1651               	/* stack size = 0 */
 1652               	.L__stack_usage = 0
 425:quantum/rgblight.c **** }
 1653               		.loc 1 425 3 view .LVU369
 1654 0000 80E0      		ldi r24,0
 1655 0002 0C94 0000 		jmp rgblight_increase_val_helper
 1656               	.LVL102:
 1657               		.cfi_endproc
 1658               	.LFE121:
 1660               		.section	.text.rgblight_increase_val,"ax",@progbits
 1661               	.global	rgblight_increase_val
 1663               	rgblight_increase_val:
 1664               	.LFB122:
 427:quantum/rgblight.c ****   rgblight_increase_val_helper(true);
 1665               		.loc 1 427 34 view -0
 1666               		.cfi_startproc
 1667               	/* prologue: function */
 1668               	/* frame size = 0 */
 1669               	/* stack size = 0 */
 1670               	.L__stack_usage = 0
 428:quantum/rgblight.c **** }
 1671               		.loc 1 428 3 view .LVU371
 1672 0000 81E0      		ldi r24,lo8(1)
 1673 0002 0C94 0000 		jmp rgblight_increase_val_helper
 1674               	.LVL103:
 1675               		.cfi_endproc
 1676               	.LFE122:
 1678               		.section	.text.rgblight_decrease_val_helper,"ax",@progbits
 1679               	.global	rgblight_decrease_val_helper
 1681               	rgblight_decrease_val_helper:
 1682               	.LVL104:
 1683               	.LFB123:
 430:quantum/rgblight.c ****   uint8_t val = qsub8(rgblight_config.val, RGBLIGHT_VAL_STEP);
 1684               		.loc 1 430 57 view -0
 1685               		.cfi_startproc
 1686               	/* prologue: function */
 1687               	/* frame size = 0 */
 1688               	/* stack size = 0 */
 1689               	.L__stack_usage = 0
 431:quantum/rgblight.c ****   rgblight_sethsv_eeprom_helper(rgblight_config.hue, rgblight_config.sat, val, write_to_eeprom);
 1690               		.loc 1 431 3 view .LVU373
 1691               	.LBB48:
 1692               	.LBI48:
  88:./lib/lib8tion/math8.h **** {
 1693               		.loc 2 88 34 view .LVU374
 1694               	.LBB49:
  96:./lib/lib8tion/math8.h ****          /* First, subtract j from i, conditioning the C flag */
 1695               		.loc 2 96 5 view .LVU375
 1696               	.LBE49:
 1697               	.LBE48:
 431:quantum/rgblight.c ****   rgblight_sethsv_eeprom_helper(rgblight_config.hue, rgblight_config.sat, val, write_to_eeprom);
 1698               		.loc 1 431 17 is_stmt 0 view .LVU376
 1699 0000 E0E0      		ldi r30,lo8(rgblight_config)
 1700 0002 F0E0      		ldi r31,hi8(rgblight_config)
 1701               	.LBB51:
 1702               	.LBB50:
  96:./lib/lib8tion/math8.h ****          /* First, subtract j from i, conditioning the C flag */
 1703               		.loc 2 96 5 view .LVU377
 1704 0004 4381      		ldd r20,Z+3
 1705 0006 2CE0      		ldi r18,lo8(12)
 1706               	/* #APP */
 1707               	 ;  96 "./lib/lib8tion/math8.h" 1
 1708 0008 421B      		sub r20, r18    
 1709 000a 00F4      		brcc L_1275     
 1710 000c 40E0      		ldi r20, 0x00  
 1711               		L_1275: 
 1712               	 ;  0 "" 2
 1713               	.LVL105:
 1714               		.loc 2 110 5 is_stmt 1 view .LVU378
 1715               		.loc 2 110 5 is_stmt 0 view .LVU379
 1716               	/* #NOAPP */
 1717               	.LBE50:
 1718               	.LBE51:
 432:quantum/rgblight.c **** }
 1719               		.loc 1 432 3 is_stmt 1 view .LVU380
 1720 000e 282F      		mov r18,r24
 1721 0010 6281      		ldd r22,Z+2
 1722 0012 8181      		ldd r24,Z+1
 1723               	.LVL106:
 432:quantum/rgblight.c **** }
 1724               		.loc 1 432 3 is_stmt 0 view .LVU381
 1725 0014 0C94 0000 		jmp rgblight_sethsv_eeprom_helper
 1726               	.LVL107:
 432:quantum/rgblight.c **** }
 1727               		.loc 1 432 3 view .LVU382
 1728               		.cfi_endproc
 1729               	.LFE123:
 1731               		.section	.text.rgblight_decrease_val_noeeprom,"ax",@progbits
 1732               	.global	rgblight_decrease_val_noeeprom
 1734               	rgblight_decrease_val_noeeprom:
 1735               	.LFB124:
 434:quantum/rgblight.c ****   rgblight_decrease_val_helper(false);
 1736               		.loc 1 434 43 is_stmt 1 view -0
 1737               		.cfi_startproc
 1738               	/* prologue: function */
 1739               	/* frame size = 0 */
 1740               	/* stack size = 0 */
 1741               	.L__stack_usage = 0
 435:quantum/rgblight.c **** }
 1742               		.loc 1 435 3 view .LVU384
 1743 0000 80E0      		ldi r24,0
 1744 0002 0C94 0000 		jmp rgblight_decrease_val_helper
 1745               	.LVL108:
 1746               		.cfi_endproc
 1747               	.LFE124:
 1749               		.section	.text.rgblight_decrease_val,"ax",@progbits
 1750               	.global	rgblight_decrease_val
 1752               	rgblight_decrease_val:
 1753               	.LFB125:
 437:quantum/rgblight.c ****   rgblight_decrease_val_helper(true);
 1754               		.loc 1 437 34 view -0
 1755               		.cfi_startproc
 1756               	/* prologue: function */
 1757               	/* frame size = 0 */
 1758               	/* stack size = 0 */
 1759               	.L__stack_usage = 0
 438:quantum/rgblight.c **** }
 1760               		.loc 1 438 3 view .LVU386
 1761 0000 81E0      		ldi r24,lo8(1)
 1762 0002 0C94 0000 		jmp rgblight_decrease_val_helper
 1763               	.LVL109:
 1764               		.cfi_endproc
 1765               	.LFE125:
 1767               		.section	.text.rgblight_sethsv,"ax",@progbits
 1768               	.global	rgblight_sethsv
 1770               	rgblight_sethsv:
 1771               	.LVL110:
 1772               	.LFB130:
 537:quantum/rgblight.c ****   rgblight_sethsv_eeprom_helper(hue, sat, val, true);
 1773               		.loc 1 537 61 view -0
 1774               		.cfi_startproc
 1775               	/* prologue: function */
 1776               	/* frame size = 0 */
 1777               	/* stack size = 0 */
 1778               	.L__stack_usage = 0
 538:quantum/rgblight.c **** }
 1779               		.loc 1 538 3 view .LVU388
 1780 0000 21E0      		ldi r18,lo8(1)
 1781 0002 0C94 0000 		jmp rgblight_sethsv_eeprom_helper
 1782               	.LVL111:
 538:quantum/rgblight.c **** }
 1783               		.loc 1 538 3 is_stmt 0 view .LVU389
 1784               		.cfi_endproc
 1785               	.LFE130:
 1787               		.section	.text.rgblight_sethsv_noeeprom,"ax",@progbits
 1788               	.global	rgblight_sethsv_noeeprom
 1790               	rgblight_sethsv_noeeprom:
 1791               	.LVL112:
 1792               	.LFB131:
 541:quantum/rgblight.c ****   rgblight_sethsv_eeprom_helper(hue, sat, val, false);
 1793               		.loc 1 541 70 is_stmt 1 view -0
 1794               		.cfi_startproc
 1795               	/* prologue: function */
 1796               	/* frame size = 0 */
 1797               	/* stack size = 0 */
 1798               	.L__stack_usage = 0
 542:quantum/rgblight.c **** }
 1799               		.loc 1 542 3 view .LVU391
 1800 0000 20E0      		ldi r18,0
 1801 0002 0C94 0000 		jmp rgblight_sethsv_eeprom_helper
 1802               	.LVL113:
 542:quantum/rgblight.c **** }
 1803               		.loc 1 542 3 is_stmt 0 view .LVU392
 1804               		.cfi_endproc
 1805               	.LFE131:
 1807               		.section	.text.rgblight_setrgb_at,"ax",@progbits
 1808               	.global	rgblight_setrgb_at
 1810               	rgblight_setrgb_at:
 1811               	.LVL114:
 1812               	.LFB136:
 568:quantum/rgblight.c ****   if (!rgblight_config.enable || index >= RGBLED_NUM) { return; }
 1813               		.loc 1 568 73 is_stmt 1 view -0
 1814               		.cfi_startproc
 1815               	/* prologue: function */
 1816               	/* frame size = 0 */
 1817               	/* stack size = 0 */
 1818               	.L__stack_usage = 0
 569:quantum/rgblight.c **** 
 1819               		.loc 1 569 3 view .LVU394
 569:quantum/rgblight.c **** 
 1820               		.loc 1 569 23 is_stmt 0 view .LVU395
 1821 0000 9091 0000 		lds r25,rgblight_config
 569:quantum/rgblight.c **** 
 1822               		.loc 1 569 6 view .LVU396
 1823 0004 90FF      		sbrs r25,0
 1824 0006 00C0      		rjmp .L89
 569:quantum/rgblight.c **** 
 1825               		.loc 1 569 31 discriminator 2 view .LVU397
 1826 0008 2F30      		cpi r18,lo8(15)
 1827 000a 00F4      		brsh .L89
 571:quantum/rgblight.c ****   led[index].g = g;
 1828               		.loc 1 571 3 is_stmt 1 view .LVU398
 571:quantum/rgblight.c ****   led[index].g = g;
 1829               		.loc 1 571 16 is_stmt 0 view .LVU399
 1830 000c 94E0      		ldi r25,lo8(4)
 1831 000e 299F      		mul r18,r25
 1832 0010 F001      		movw r30,r0
 1833 0012 1124      		clr __zero_reg__
 1834 0014 E050      		subi r30,lo8(-(led))
 1835 0016 F040      		sbci r31,hi8(-(led))
 1836 0018 8183      		std Z+1,r24
 572:quantum/rgblight.c ****   led[index].b = b;
 1837               		.loc 1 572 3 is_stmt 1 view .LVU400
 572:quantum/rgblight.c ****   led[index].b = b;
 1838               		.loc 1 572 16 is_stmt 0 view .LVU401
 1839 001a 6083      		st Z,r22
 573:quantum/rgblight.c ****   rgblight_set();
 1840               		.loc 1 573 3 is_stmt 1 view .LVU402
 573:quantum/rgblight.c ****   rgblight_set();
 1841               		.loc 1 573 16 is_stmt 0 view .LVU403
 1842 001c 4283      		std Z+2,r20
 574:quantum/rgblight.c **** }
 1843               		.loc 1 574 3 is_stmt 1 view .LVU404
 1844 001e 0C94 0000 		jmp rgblight_set
 1845               	.LVL115:
 1846               	.L89:
 1847               	/* epilogue start */
 575:quantum/rgblight.c **** 
 1848               		.loc 1 575 1 is_stmt 0 view .LVU405
 1849 0022 0895      		ret
 1850               		.cfi_endproc
 1851               	.LFE136:
 1853               		.section	.text.rgblight_sethsv_at,"ax",@progbits
 1854               	.global	rgblight_sethsv_at
 1856               	rgblight_sethsv_at:
 1857               	.LVL116:
 1858               	.LFB137:
 577:quantum/rgblight.c ****   if (!rgblight_config.enable) { return; }
 1859               		.loc 1 577 79 is_stmt 1 view -0
 1860               		.cfi_startproc
 577:quantum/rgblight.c ****   if (!rgblight_config.enable) { return; }
 1861               		.loc 1 577 79 is_stmt 0 view .LVU407
 1862 0000 1F93      		push r17
 1863               	.LCFI37:
 1864               		.cfi_def_cfa_offset 3
 1865               		.cfi_offset 17, -2
 1866 0002 CF93      		push r28
 1867               	.LCFI38:
 1868               		.cfi_def_cfa_offset 4
 1869               		.cfi_offset 28, -3
 1870 0004 DF93      		push r29
 1871               	.LCFI39:
 1872               		.cfi_def_cfa_offset 5
 1873               		.cfi_offset 29, -4
 1874 0006 00D0      		rcall .
 1875 0008 00D0      		rcall .
 1876               	.LCFI40:
 1877               		.cfi_def_cfa_offset 9
 1878 000a CDB7      		in r28,__SP_L__
 1879 000c DEB7      		in r29,__SP_H__
 1880               	.LCFI41:
 1881               		.cfi_def_cfa_register 28
 1882               	/* prologue: function */
 1883               	/* frame size = 4 */
 1884               	/* stack size = 7 */
 1885               	.L__stack_usage = 7
 1886 000e 122F      		mov r17,r18
 578:quantum/rgblight.c **** 
 1887               		.loc 1 578 3 is_stmt 1 view .LVU408
 578:quantum/rgblight.c **** 
 1888               		.loc 1 578 23 is_stmt 0 view .LVU409
 1889 0010 9091 0000 		lds r25,rgblight_config
 578:quantum/rgblight.c **** 
 1890               		.loc 1 578 6 view .LVU410
 1891 0014 90FF      		sbrs r25,0
 1892 0016 00C0      		rjmp .L94
 580:quantum/rgblight.c ****   sethsv(hue, sat, val, &tmp_led);
 1893               		.loc 1 580 3 is_stmt 1 view .LVU411
 581:quantum/rgblight.c ****   rgblight_setrgb_at(tmp_led.r, tmp_led.g, tmp_led.b, index);
 1894               		.loc 1 581 3 view .LVU412
 1895 0018 9E01      		movw r18,r28
 1896               	.LVL117:
 581:quantum/rgblight.c ****   rgblight_setrgb_at(tmp_led.r, tmp_led.g, tmp_led.b, index);
 1897               		.loc 1 581 3 is_stmt 0 view .LVU413
 1898 001a 2F5F      		subi r18,-1
 1899 001c 3F4F      		sbci r19,-1
 1900 001e 0E94 0000 		call sethsv
 1901               	.LVL118:
 582:quantum/rgblight.c **** }
 1902               		.loc 1 582 3 is_stmt 1 view .LVU414
 1903 0022 212F      		mov r18,r17
 1904 0024 4B81      		ldd r20,Y+3
 1905 0026 6981      		ldd r22,Y+1
 1906 0028 8A81      		ldd r24,Y+2
 1907 002a 0E94 0000 		call rgblight_setrgb_at
 1908               	.LVL119:
 1909               	.L94:
 1910               	/* epilogue start */
 583:quantum/rgblight.c **** 
 1911               		.loc 1 583 1 is_stmt 0 view .LVU415
 1912 002e 0F90      		pop __tmp_reg__
 1913 0030 0F90      		pop __tmp_reg__
 1914 0032 0F90      		pop __tmp_reg__
 1915 0034 0F90      		pop __tmp_reg__
 1916 0036 DF91      		pop r29
 1917 0038 CF91      		pop r28
 1918 003a 1F91      		pop r17
 1919               	.LVL120:
 583:quantum/rgblight.c **** 
 1920               		.loc 1 583 1 view .LVU416
 1921 003c 0895      		ret
 1922               		.cfi_endproc
 1923               	.LFE137:
 1925               		.section	.text.rgblight_setrgb_range,"ax",@progbits
 1926               	.global	rgblight_setrgb_range
 1928               	rgblight_setrgb_range:
 1929               	.LVL121:
 1930               	.LFB139:
 598:quantum/rgblight.c ****   if (!rgblight_config.enable || start < 0 || start >= end || end > RGBLED_NUM) { return; }
 1931               		.loc 1 598 89 is_stmt 1 view -0
 1932               		.cfi_startproc
 598:quantum/rgblight.c ****   if (!rgblight_config.enable || start < 0 || start >= end || end > RGBLED_NUM) { return; }
 1933               		.loc 1 598 89 is_stmt 0 view .LVU418
 1934 0000 0F93      		push r16
 1935               	.LCFI42:
 1936               		.cfi_def_cfa_offset 3
 1937               		.cfi_offset 16, -2
 1938               	/* prologue: function */
 1939               	/* frame size = 0 */
 1940               	/* stack size = 1 */
 1941               	.L__stack_usage = 1
 599:quantum/rgblight.c **** 
 1942               		.loc 1 599 3 is_stmt 1 view .LVU419
 599:quantum/rgblight.c **** 
 1943               		.loc 1 599 23 is_stmt 0 view .LVU420
 1944 0002 9091 0000 		lds r25,rgblight_config
 599:quantum/rgblight.c **** 
 1945               		.loc 1 599 6 view .LVU421
 1946 0006 90FF      		sbrs r25,0
 1947 0008 00C0      		rjmp .L97
 599:quantum/rgblight.c **** 
 1948               		.loc 1 599 44 discriminator 2 view .LVU422
 1949 000a 2017      		cp r18,r16
 1950 000c 00F4      		brsh .L97
 599:quantum/rgblight.c **** 
 1951               		.loc 1 599 60 discriminator 4 view .LVU423
 1952 000e 0031      		cpi r16,lo8(16)
 1953 0010 00F4      		brsh .L97
 1954 0012 94E0      		ldi r25,lo8(4)
 1955 0014 299F      		mul r18,r25
 1956 0016 F001      		movw r30,r0
 1957 0018 1124      		clr __zero_reg__
 1958 001a E050      		subi r30,lo8(-(led))
 1959 001c F040      		sbci r31,hi8(-(led))
 1960               	.LVL122:
 1961               	.L99:
 1962               	.LBB52:
 602:quantum/rgblight.c ****     led[i].g = g;
 1963               		.loc 1 602 5 is_stmt 1 discriminator 3 view .LVU424
 602:quantum/rgblight.c ****     led[i].g = g;
 1964               		.loc 1 602 14 is_stmt 0 discriminator 3 view .LVU425
 1965 001e 8183      		std Z+1,r24
 603:quantum/rgblight.c ****     led[i].b = b;
 1966               		.loc 1 603 5 is_stmt 1 discriminator 3 view .LVU426
 603:quantum/rgblight.c ****     led[i].b = b;
 1967               		.loc 1 603 14 is_stmt 0 discriminator 3 view .LVU427
 1968 0020 6083      		st Z,r22
 604:quantum/rgblight.c ****   }
 1969               		.loc 1 604 5 is_stmt 1 discriminator 3 view .LVU428
 604:quantum/rgblight.c ****   }
 1970               		.loc 1 604 14 is_stmt 0 discriminator 3 view .LVU429
 1971 0022 4283      		std Z+2,r20
 601:quantum/rgblight.c ****     led[i].r = r;
 1972               		.loc 1 601 37 discriminator 3 view .LVU430
 1973 0024 2F5F      		subi r18,lo8(-(1))
 1974               	.LVL123:
 601:quantum/rgblight.c ****     led[i].r = r;
 1975               		.loc 1 601 37 discriminator 3 view .LVU431
 1976 0026 3496      		adiw r30,4
 601:quantum/rgblight.c ****     led[i].r = r;
 1977               		.loc 1 601 3 discriminator 3 view .LVU432
 1978 0028 0213      		cpse r16,r18
 1979 002a 00C0      		rjmp .L99
 601:quantum/rgblight.c ****     led[i].r = r;
 1980               		.loc 1 601 3 discriminator 3 view .LVU433
 1981               	.LBE52:
 606:quantum/rgblight.c ****   wait_ms(1);
 1982               		.loc 1 606 3 is_stmt 1 view .LVU434
 1983 002c 0E94 0000 		call rgblight_set
 1984               	.LVL124:
 607:quantum/rgblight.c **** }
 1985               		.loc 1 607 3 view .LVU435
 1986               	.LBB53:
 1987               	.LBI53:
 1988               		.file 3 "/usr/local/Cellar/avr-gcc/8.3.0/avr/include/util/delay.h"
   1:/usr/local/Cellar/avr-gcc/8.3.0/avr/include/util/delay.h **** /* Copyright (c) 2002, Marek Michalkiewicz
   2:/usr/local/Cellar/avr-gcc/8.3.0/avr/include/util/delay.h ****    Copyright (c) 2004,2005,2007 Joerg Wunsch
   3:/usr/local/Cellar/avr-gcc/8.3.0/avr/include/util/delay.h ****    Copyright (c) 2007  Florin-Viorel Petrov
   4:/usr/local/Cellar/avr-gcc/8.3.0/avr/include/util/delay.h ****    All rights reserved.
   5:/usr/local/Cellar/avr-gcc/8.3.0/avr/include/util/delay.h **** 
   6:/usr/local/Cellar/avr-gcc/8.3.0/avr/include/util/delay.h ****    Redistribution and use in source and binary forms, with or without
   7:/usr/local/Cellar/avr-gcc/8.3.0/avr/include/util/delay.h ****    modification, are permitted provided that the following conditions are met:
   8:/usr/local/Cellar/avr-gcc/8.3.0/avr/include/util/delay.h **** 
   9:/usr/local/Cellar/avr-gcc/8.3.0/avr/include/util/delay.h ****    * Redistributions of source code must retain the above copyright
  10:/usr/local/Cellar/avr-gcc/8.3.0/avr/include/util/delay.h ****      notice, this list of conditions and the following disclaimer.
  11:/usr/local/Cellar/avr-gcc/8.3.0/avr/include/util/delay.h **** 
  12:/usr/local/Cellar/avr-gcc/8.3.0/avr/include/util/delay.h ****    * Redistributions in binary form must reproduce the above copyright
  13:/usr/local/Cellar/avr-gcc/8.3.0/avr/include/util/delay.h ****      notice, this list of conditions and the following disclaimer in
  14:/usr/local/Cellar/avr-gcc/8.3.0/avr/include/util/delay.h ****      the documentation and/or other materials provided with the
  15:/usr/local/Cellar/avr-gcc/8.3.0/avr/include/util/delay.h ****      distribution.
  16:/usr/local/Cellar/avr-gcc/8.3.0/avr/include/util/delay.h **** 
  17:/usr/local/Cellar/avr-gcc/8.3.0/avr/include/util/delay.h ****    * Neither the name of the copyright holders nor the names of
  18:/usr/local/Cellar/avr-gcc/8.3.0/avr/include/util/delay.h ****      contributors may be used to endorse or promote products derived
  19:/usr/local/Cellar/avr-gcc/8.3.0/avr/include/util/delay.h ****      from this software without specific prior written permission.
  20:/usr/local/Cellar/avr-gcc/8.3.0/avr/include/util/delay.h **** 
  21:/usr/local/Cellar/avr-gcc/8.3.0/avr/include/util/delay.h ****   THIS SOFTWARE IS PROVIDED BY THE COPYRIGHT HOLDERS AND CONTRIBUTORS "AS IS"
  22:/usr/local/Cellar/avr-gcc/8.3.0/avr/include/util/delay.h ****   AND ANY EXPRESS OR IMPLIED WARRANTIES, INCLUDING, BUT NOT LIMITED TO, THE
  23:/usr/local/Cellar/avr-gcc/8.3.0/avr/include/util/delay.h ****   IMPLIED WARRANTIES OF MERCHANTABILITY AND FITNESS FOR A PARTICULAR PURPOSE
  24:/usr/local/Cellar/avr-gcc/8.3.0/avr/include/util/delay.h ****   ARE DISCLAIMED. IN NO EVENT SHALL THE COPYRIGHT OWNER OR CONTRIBUTORS BE
  25:/usr/local/Cellar/avr-gcc/8.3.0/avr/include/util/delay.h ****   LIABLE FOR ANY DIRECT, INDIRECT, INCIDENTAL, SPECIAL, EXEMPLARY, OR
  26:/usr/local/Cellar/avr-gcc/8.3.0/avr/include/util/delay.h ****   CONSEQUENTIAL DAMAGES (INCLUDING, BUT NOT LIMITED TO, PROCUREMENT OF
  27:/usr/local/Cellar/avr-gcc/8.3.0/avr/include/util/delay.h ****   SUBSTITUTE GOODS OR SERVICES; LOSS OF USE, DATA, OR PROFITS; OR BUSINESS
  28:/usr/local/Cellar/avr-gcc/8.3.0/avr/include/util/delay.h ****   INTERRUPTION) HOWEVER CAUSED AND ON ANY THEORY OF LIABILITY, WHETHER IN
  29:/usr/local/Cellar/avr-gcc/8.3.0/avr/include/util/delay.h ****   CONTRACT, STRICT LIABILITY, OR TORT (INCLUDING NEGLIGENCE OR OTHERWISE)
  30:/usr/local/Cellar/avr-gcc/8.3.0/avr/include/util/delay.h ****   ARISING IN ANY WAY OUT OF THE USE OF THIS SOFTWARE, EVEN IF ADVISED OF THE
  31:/usr/local/Cellar/avr-gcc/8.3.0/avr/include/util/delay.h ****   POSSIBILITY OF SUCH DAMAGE. */
  32:/usr/local/Cellar/avr-gcc/8.3.0/avr/include/util/delay.h **** 
  33:/usr/local/Cellar/avr-gcc/8.3.0/avr/include/util/delay.h **** /* $Id: delay.h.in 2506 2016-02-08 10:05:45Z joerg_wunsch $ */
  34:/usr/local/Cellar/avr-gcc/8.3.0/avr/include/util/delay.h **** 
  35:/usr/local/Cellar/avr-gcc/8.3.0/avr/include/util/delay.h **** #ifndef _UTIL_DELAY_H_
  36:/usr/local/Cellar/avr-gcc/8.3.0/avr/include/util/delay.h **** #define _UTIL_DELAY_H_ 1
  37:/usr/local/Cellar/avr-gcc/8.3.0/avr/include/util/delay.h **** 
  38:/usr/local/Cellar/avr-gcc/8.3.0/avr/include/util/delay.h **** #ifndef __DOXYGEN__
  39:/usr/local/Cellar/avr-gcc/8.3.0/avr/include/util/delay.h **** #  ifndef __HAS_DELAY_CYCLES
  40:/usr/local/Cellar/avr-gcc/8.3.0/avr/include/util/delay.h **** #    define __HAS_DELAY_CYCLES 1
  41:/usr/local/Cellar/avr-gcc/8.3.0/avr/include/util/delay.h **** #  endif
  42:/usr/local/Cellar/avr-gcc/8.3.0/avr/include/util/delay.h **** #endif  /* __DOXYGEN__ */
  43:/usr/local/Cellar/avr-gcc/8.3.0/avr/include/util/delay.h **** 
  44:/usr/local/Cellar/avr-gcc/8.3.0/avr/include/util/delay.h **** #include <inttypes.h>
  45:/usr/local/Cellar/avr-gcc/8.3.0/avr/include/util/delay.h **** #include <util/delay_basic.h>
  46:/usr/local/Cellar/avr-gcc/8.3.0/avr/include/util/delay.h **** #include <math.h>
  47:/usr/local/Cellar/avr-gcc/8.3.0/avr/include/util/delay.h **** 
  48:/usr/local/Cellar/avr-gcc/8.3.0/avr/include/util/delay.h **** /** \file */
  49:/usr/local/Cellar/avr-gcc/8.3.0/avr/include/util/delay.h **** /** \defgroup util_delay <util/delay.h>: Convenience functions for busy-wait delay loops
  50:/usr/local/Cellar/avr-gcc/8.3.0/avr/include/util/delay.h ****     \code
  51:/usr/local/Cellar/avr-gcc/8.3.0/avr/include/util/delay.h ****     #define F_CPU 1000000UL  // 1 MHz
  52:/usr/local/Cellar/avr-gcc/8.3.0/avr/include/util/delay.h ****     //#define F_CPU 14.7456E6
  53:/usr/local/Cellar/avr-gcc/8.3.0/avr/include/util/delay.h ****     #include <util/delay.h>
  54:/usr/local/Cellar/avr-gcc/8.3.0/avr/include/util/delay.h ****     \endcode
  55:/usr/local/Cellar/avr-gcc/8.3.0/avr/include/util/delay.h **** 
  56:/usr/local/Cellar/avr-gcc/8.3.0/avr/include/util/delay.h ****     \note As an alternative method, it is possible to pass the
  57:/usr/local/Cellar/avr-gcc/8.3.0/avr/include/util/delay.h ****     F_CPU macro down to the compiler from the Makefile.
  58:/usr/local/Cellar/avr-gcc/8.3.0/avr/include/util/delay.h ****     Obviously, in that case, no \c \#define statement should be
  59:/usr/local/Cellar/avr-gcc/8.3.0/avr/include/util/delay.h ****     used.
  60:/usr/local/Cellar/avr-gcc/8.3.0/avr/include/util/delay.h **** 
  61:/usr/local/Cellar/avr-gcc/8.3.0/avr/include/util/delay.h ****     The functions in this header file are wrappers around the basic
  62:/usr/local/Cellar/avr-gcc/8.3.0/avr/include/util/delay.h ****     busy-wait functions from <util/delay_basic.h>.  They are meant as
  63:/usr/local/Cellar/avr-gcc/8.3.0/avr/include/util/delay.h ****     convenience functions where actual time values can be specified
  64:/usr/local/Cellar/avr-gcc/8.3.0/avr/include/util/delay.h ****     rather than a number of cycles to wait for.  The idea behind is
  65:/usr/local/Cellar/avr-gcc/8.3.0/avr/include/util/delay.h ****     that compile-time constant expressions will be eliminated by
  66:/usr/local/Cellar/avr-gcc/8.3.0/avr/include/util/delay.h ****     compiler optimization so floating-point expressions can be used
  67:/usr/local/Cellar/avr-gcc/8.3.0/avr/include/util/delay.h ****     to calculate the number of delay cycles needed based on the CPU
  68:/usr/local/Cellar/avr-gcc/8.3.0/avr/include/util/delay.h ****     frequency passed by the macro F_CPU.
  69:/usr/local/Cellar/avr-gcc/8.3.0/avr/include/util/delay.h **** 
  70:/usr/local/Cellar/avr-gcc/8.3.0/avr/include/util/delay.h ****     \note In order for these functions to work as intended, compiler
  71:/usr/local/Cellar/avr-gcc/8.3.0/avr/include/util/delay.h ****     optimizations <em>must</em> be enabled, and the delay time
  72:/usr/local/Cellar/avr-gcc/8.3.0/avr/include/util/delay.h ****     <em>must</em> be an expression that is a known constant at
  73:/usr/local/Cellar/avr-gcc/8.3.0/avr/include/util/delay.h ****     compile-time.  If these requirements are not met, the resulting
  74:/usr/local/Cellar/avr-gcc/8.3.0/avr/include/util/delay.h ****     delay will be much longer (and basically unpredictable), and
  75:/usr/local/Cellar/avr-gcc/8.3.0/avr/include/util/delay.h ****     applications that otherwise do not use floating-point calculations
  76:/usr/local/Cellar/avr-gcc/8.3.0/avr/include/util/delay.h ****     will experience severe code bloat by the floating-point library
  77:/usr/local/Cellar/avr-gcc/8.3.0/avr/include/util/delay.h ****     routines linked into the application.
  78:/usr/local/Cellar/avr-gcc/8.3.0/avr/include/util/delay.h **** 
  79:/usr/local/Cellar/avr-gcc/8.3.0/avr/include/util/delay.h ****     The functions available allow the specification of microsecond, and
  80:/usr/local/Cellar/avr-gcc/8.3.0/avr/include/util/delay.h ****     millisecond delays directly, using the application-supplied macro
  81:/usr/local/Cellar/avr-gcc/8.3.0/avr/include/util/delay.h ****     F_CPU as the CPU clock frequency (in Hertz).
  82:/usr/local/Cellar/avr-gcc/8.3.0/avr/include/util/delay.h **** 
  83:/usr/local/Cellar/avr-gcc/8.3.0/avr/include/util/delay.h **** */
  84:/usr/local/Cellar/avr-gcc/8.3.0/avr/include/util/delay.h **** 
  85:/usr/local/Cellar/avr-gcc/8.3.0/avr/include/util/delay.h **** #if !defined(__DOXYGEN__)
  86:/usr/local/Cellar/avr-gcc/8.3.0/avr/include/util/delay.h **** static __inline__ void _delay_us(double __us) __attribute__((__always_inline__));
  87:/usr/local/Cellar/avr-gcc/8.3.0/avr/include/util/delay.h **** static __inline__ void _delay_ms(double __ms) __attribute__((__always_inline__));
  88:/usr/local/Cellar/avr-gcc/8.3.0/avr/include/util/delay.h **** #endif
  89:/usr/local/Cellar/avr-gcc/8.3.0/avr/include/util/delay.h **** 
  90:/usr/local/Cellar/avr-gcc/8.3.0/avr/include/util/delay.h **** #ifndef F_CPU
  91:/usr/local/Cellar/avr-gcc/8.3.0/avr/include/util/delay.h **** /* prevent compiler error by supplying a default */
  92:/usr/local/Cellar/avr-gcc/8.3.0/avr/include/util/delay.h **** # warning "F_CPU not defined for <util/delay.h>"
  93:/usr/local/Cellar/avr-gcc/8.3.0/avr/include/util/delay.h **** /** \ingroup util_delay
  94:/usr/local/Cellar/avr-gcc/8.3.0/avr/include/util/delay.h ****     \def F_CPU
  95:/usr/local/Cellar/avr-gcc/8.3.0/avr/include/util/delay.h ****     \brief CPU frequency in Hz
  96:/usr/local/Cellar/avr-gcc/8.3.0/avr/include/util/delay.h **** 
  97:/usr/local/Cellar/avr-gcc/8.3.0/avr/include/util/delay.h ****     The macro F_CPU specifies the CPU frequency to be considered by
  98:/usr/local/Cellar/avr-gcc/8.3.0/avr/include/util/delay.h ****     the delay macros.  This macro is normally supplied by the
  99:/usr/local/Cellar/avr-gcc/8.3.0/avr/include/util/delay.h ****     environment (e.g. from within a project header, or the project's
 100:/usr/local/Cellar/avr-gcc/8.3.0/avr/include/util/delay.h ****     Makefile).  The value 1 MHz here is only provided as a "vanilla"
 101:/usr/local/Cellar/avr-gcc/8.3.0/avr/include/util/delay.h ****     fallback if no such user-provided definition could be found.
 102:/usr/local/Cellar/avr-gcc/8.3.0/avr/include/util/delay.h **** 
 103:/usr/local/Cellar/avr-gcc/8.3.0/avr/include/util/delay.h ****     In terms of the delay functions, the CPU frequency can be given as
 104:/usr/local/Cellar/avr-gcc/8.3.0/avr/include/util/delay.h ****     a floating-point constant (e.g. 3.6864E6 for 3.6864 MHz).
 105:/usr/local/Cellar/avr-gcc/8.3.0/avr/include/util/delay.h ****     However, the macros in <util/setbaud.h> require it to be an
 106:/usr/local/Cellar/avr-gcc/8.3.0/avr/include/util/delay.h ****     integer value.
 107:/usr/local/Cellar/avr-gcc/8.3.0/avr/include/util/delay.h ****  */
 108:/usr/local/Cellar/avr-gcc/8.3.0/avr/include/util/delay.h **** # define F_CPU 1000000UL
 109:/usr/local/Cellar/avr-gcc/8.3.0/avr/include/util/delay.h **** #endif
 110:/usr/local/Cellar/avr-gcc/8.3.0/avr/include/util/delay.h **** 
 111:/usr/local/Cellar/avr-gcc/8.3.0/avr/include/util/delay.h **** #ifndef __OPTIMIZE__
 112:/usr/local/Cellar/avr-gcc/8.3.0/avr/include/util/delay.h **** # warning "Compiler optimizations disabled; functions from <util/delay.h> won't work as designed"
 113:/usr/local/Cellar/avr-gcc/8.3.0/avr/include/util/delay.h **** #endif
 114:/usr/local/Cellar/avr-gcc/8.3.0/avr/include/util/delay.h **** 
 115:/usr/local/Cellar/avr-gcc/8.3.0/avr/include/util/delay.h **** #if __HAS_DELAY_CYCLES && defined(__OPTIMIZE__) && \
 116:/usr/local/Cellar/avr-gcc/8.3.0/avr/include/util/delay.h ****   !defined(__DELAY_BACKWARD_COMPATIBLE__) &&	   \
 117:/usr/local/Cellar/avr-gcc/8.3.0/avr/include/util/delay.h ****   __STDC_HOSTED__
 118:/usr/local/Cellar/avr-gcc/8.3.0/avr/include/util/delay.h **** #  include <math.h>
 119:/usr/local/Cellar/avr-gcc/8.3.0/avr/include/util/delay.h **** #endif
 120:/usr/local/Cellar/avr-gcc/8.3.0/avr/include/util/delay.h **** 
 121:/usr/local/Cellar/avr-gcc/8.3.0/avr/include/util/delay.h **** /**
 122:/usr/local/Cellar/avr-gcc/8.3.0/avr/include/util/delay.h ****    \ingroup util_delay
 123:/usr/local/Cellar/avr-gcc/8.3.0/avr/include/util/delay.h **** 
 124:/usr/local/Cellar/avr-gcc/8.3.0/avr/include/util/delay.h ****    Perform a delay of \c __ms milliseconds, using _delay_loop_2().
 125:/usr/local/Cellar/avr-gcc/8.3.0/avr/include/util/delay.h **** 
 126:/usr/local/Cellar/avr-gcc/8.3.0/avr/include/util/delay.h ****    The macro F_CPU is supposed to be defined to a
 127:/usr/local/Cellar/avr-gcc/8.3.0/avr/include/util/delay.h ****    constant defining the CPU clock frequency (in Hertz).
 128:/usr/local/Cellar/avr-gcc/8.3.0/avr/include/util/delay.h **** 
 129:/usr/local/Cellar/avr-gcc/8.3.0/avr/include/util/delay.h ****    The maximal possible delay is 262.14 ms / F_CPU in MHz.
 130:/usr/local/Cellar/avr-gcc/8.3.0/avr/include/util/delay.h **** 
 131:/usr/local/Cellar/avr-gcc/8.3.0/avr/include/util/delay.h ****    When the user request delay which exceed the maximum possible one,
 132:/usr/local/Cellar/avr-gcc/8.3.0/avr/include/util/delay.h ****    _delay_ms() provides a decreased resolution functionality. In this
 133:/usr/local/Cellar/avr-gcc/8.3.0/avr/include/util/delay.h ****    mode _delay_ms() will work with a resolution of 1/10 ms, providing
 134:/usr/local/Cellar/avr-gcc/8.3.0/avr/include/util/delay.h ****    delays up to 6.5535 seconds (independent from CPU frequency).  The
 135:/usr/local/Cellar/avr-gcc/8.3.0/avr/include/util/delay.h ****    user will not be informed about decreased resolution.
 136:/usr/local/Cellar/avr-gcc/8.3.0/avr/include/util/delay.h **** 
 137:/usr/local/Cellar/avr-gcc/8.3.0/avr/include/util/delay.h ****    If the avr-gcc toolchain has __builtin_avr_delay_cycles()
 138:/usr/local/Cellar/avr-gcc/8.3.0/avr/include/util/delay.h ****    support, maximal possible delay is 4294967.295 ms/ F_CPU in MHz. For
 139:/usr/local/Cellar/avr-gcc/8.3.0/avr/include/util/delay.h ****    values greater than the maximal possible delay, overflows results in
 140:/usr/local/Cellar/avr-gcc/8.3.0/avr/include/util/delay.h ****    no delay i.e., 0ms.
 141:/usr/local/Cellar/avr-gcc/8.3.0/avr/include/util/delay.h **** 
 142:/usr/local/Cellar/avr-gcc/8.3.0/avr/include/util/delay.h ****    Conversion of \c __ms into clock cycles may not always result in
 143:/usr/local/Cellar/avr-gcc/8.3.0/avr/include/util/delay.h ****    integer.  By default, the clock cycles rounded up to next
 144:/usr/local/Cellar/avr-gcc/8.3.0/avr/include/util/delay.h ****    integer. This ensures that the user gets at least \c __ms
 145:/usr/local/Cellar/avr-gcc/8.3.0/avr/include/util/delay.h ****    microseconds of delay.
 146:/usr/local/Cellar/avr-gcc/8.3.0/avr/include/util/delay.h **** 
 147:/usr/local/Cellar/avr-gcc/8.3.0/avr/include/util/delay.h ****    Alternatively, by defining the macro \c __DELAY_ROUND_DOWN__, or
 148:/usr/local/Cellar/avr-gcc/8.3.0/avr/include/util/delay.h ****    \c __DELAY_ROUND_CLOSEST__, before including this header file, the
 149:/usr/local/Cellar/avr-gcc/8.3.0/avr/include/util/delay.h ****    algorithm can be made to round down, or round to closest integer,
 150:/usr/local/Cellar/avr-gcc/8.3.0/avr/include/util/delay.h ****    respectively.
 151:/usr/local/Cellar/avr-gcc/8.3.0/avr/include/util/delay.h **** 
 152:/usr/local/Cellar/avr-gcc/8.3.0/avr/include/util/delay.h ****    \note
 153:/usr/local/Cellar/avr-gcc/8.3.0/avr/include/util/delay.h **** 
 154:/usr/local/Cellar/avr-gcc/8.3.0/avr/include/util/delay.h ****    The implementation of _delay_ms() based on
 155:/usr/local/Cellar/avr-gcc/8.3.0/avr/include/util/delay.h ****    __builtin_avr_delay_cycles() is not backward compatible with older
 156:/usr/local/Cellar/avr-gcc/8.3.0/avr/include/util/delay.h ****    implementations.  In order to get functionality backward compatible
 157:/usr/local/Cellar/avr-gcc/8.3.0/avr/include/util/delay.h ****    with previous versions, the macro \c "__DELAY_BACKWARD_COMPATIBLE__"
 158:/usr/local/Cellar/avr-gcc/8.3.0/avr/include/util/delay.h ****    must be defined before including this header file. Also, the
 159:/usr/local/Cellar/avr-gcc/8.3.0/avr/include/util/delay.h ****    backward compatible algorithm will be chosen if the code is
 160:/usr/local/Cellar/avr-gcc/8.3.0/avr/include/util/delay.h ****    compiled in a <em>freestanding environment</em> (GCC option
 161:/usr/local/Cellar/avr-gcc/8.3.0/avr/include/util/delay.h ****    \c -ffreestanding), as the math functions required for rounding are
 162:/usr/local/Cellar/avr-gcc/8.3.0/avr/include/util/delay.h ****    not available to the compiler then.
 163:/usr/local/Cellar/avr-gcc/8.3.0/avr/include/util/delay.h **** 
 164:/usr/local/Cellar/avr-gcc/8.3.0/avr/include/util/delay.h ****  */
 165:/usr/local/Cellar/avr-gcc/8.3.0/avr/include/util/delay.h **** void
 166:/usr/local/Cellar/avr-gcc/8.3.0/avr/include/util/delay.h **** _delay_ms(double __ms)
 1989               		.loc 3 166 1 view .LVU436
 1990               	.LBB54:
 167:/usr/local/Cellar/avr-gcc/8.3.0/avr/include/util/delay.h **** {
 168:/usr/local/Cellar/avr-gcc/8.3.0/avr/include/util/delay.h **** 	double __tmp ;
 1991               		.loc 3 168 2 view .LVU437
 169:/usr/local/Cellar/avr-gcc/8.3.0/avr/include/util/delay.h **** #if __HAS_DELAY_CYCLES && defined(__OPTIMIZE__) && \
 170:/usr/local/Cellar/avr-gcc/8.3.0/avr/include/util/delay.h ****   !defined(__DELAY_BACKWARD_COMPATIBLE__) &&	   \
 171:/usr/local/Cellar/avr-gcc/8.3.0/avr/include/util/delay.h ****   __STDC_HOSTED__
 172:/usr/local/Cellar/avr-gcc/8.3.0/avr/include/util/delay.h **** 	uint32_t __ticks_dc;
 1992               		.loc 3 172 2 view .LVU438
 173:/usr/local/Cellar/avr-gcc/8.3.0/avr/include/util/delay.h **** 	extern void __builtin_avr_delay_cycles(unsigned long);
 1993               		.loc 3 173 2 view .LVU439
 174:/usr/local/Cellar/avr-gcc/8.3.0/avr/include/util/delay.h **** 	__tmp = ((F_CPU) / 1e3) * __ms;
 1994               		.loc 3 174 2 view .LVU440
 175:/usr/local/Cellar/avr-gcc/8.3.0/avr/include/util/delay.h **** 
 176:/usr/local/Cellar/avr-gcc/8.3.0/avr/include/util/delay.h **** 	#if defined(__DELAY_ROUND_DOWN__)
 177:/usr/local/Cellar/avr-gcc/8.3.0/avr/include/util/delay.h **** 		__ticks_dc = (uint32_t)fabs(__tmp);
 178:/usr/local/Cellar/avr-gcc/8.3.0/avr/include/util/delay.h **** 
 179:/usr/local/Cellar/avr-gcc/8.3.0/avr/include/util/delay.h **** 	#elif defined(__DELAY_ROUND_CLOSEST__)
 180:/usr/local/Cellar/avr-gcc/8.3.0/avr/include/util/delay.h **** 		__ticks_dc = (uint32_t)(fabs(__tmp)+0.5);
 181:/usr/local/Cellar/avr-gcc/8.3.0/avr/include/util/delay.h **** 
 182:/usr/local/Cellar/avr-gcc/8.3.0/avr/include/util/delay.h **** 	#else
 183:/usr/local/Cellar/avr-gcc/8.3.0/avr/include/util/delay.h **** 		//round up by default
 184:/usr/local/Cellar/avr-gcc/8.3.0/avr/include/util/delay.h **** 		__ticks_dc = (uint32_t)(ceil(fabs(__tmp)));
 1995               		.loc 3 184 3 view .LVU441
 185:/usr/local/Cellar/avr-gcc/8.3.0/avr/include/util/delay.h **** 	#endif
 186:/usr/local/Cellar/avr-gcc/8.3.0/avr/include/util/delay.h **** 
 187:/usr/local/Cellar/avr-gcc/8.3.0/avr/include/util/delay.h **** 	__builtin_avr_delay_cycles(__ticks_dc);
 1996               		.loc 3 187 2 view .LVU442
 1997 0030 8FE9      		ldi r24,lo8(3999)
 1998 0032 9FE0      		ldi r25,hi8(3999)
 1999 0034 0197      	1:	sbiw r24,1
 2000 0036 01F4      		brne 1b
 2001 0038 00C0      		rjmp .
 2002 003a 0000      		nop
 2003               	.LVL125:
 2004               	.L97:
 2005               	/* epilogue start */
 2006               		.loc 3 187 2 is_stmt 0 view .LVU443
 2007               	.LBE54:
 2008               	.LBE53:
 608:quantum/rgblight.c **** 
 2009               		.loc 1 608 1 view .LVU444
 2010 003c 0F91      		pop r16
 2011               	.LVL126:
 608:quantum/rgblight.c **** 
 2012               		.loc 1 608 1 view .LVU445
 2013 003e 0895      		ret
 2014               		.cfi_endproc
 2015               	.LFE139:
 2017               		.section	.text.rgblight_sethsv_range,"ax",@progbits
 2018               	.global	rgblight_sethsv_range
 2020               	rgblight_sethsv_range:
 2021               	.LVL127:
 2022               	.LFB140:
 610:quantum/rgblight.c ****   if (!rgblight_config.enable) { return; }
 2023               		.loc 1 610 95 is_stmt 1 view -0
 2024               		.cfi_startproc
 610:quantum/rgblight.c ****   if (!rgblight_config.enable) { return; }
 2025               		.loc 1 610 95 is_stmt 0 view .LVU447
 2026 0000 0F93      		push r16
 2027               	.LCFI43:
 2028               		.cfi_def_cfa_offset 3
 2029               		.cfi_offset 16, -2
 2030 0002 1F93      		push r17
 2031               	.LCFI44:
 2032               		.cfi_def_cfa_offset 4
 2033               		.cfi_offset 17, -3
 2034 0004 CF93      		push r28
 2035               	.LCFI45:
 2036               		.cfi_def_cfa_offset 5
 2037               		.cfi_offset 28, -4
 2038 0006 DF93      		push r29
 2039               	.LCFI46:
 2040               		.cfi_def_cfa_offset 6
 2041               		.cfi_offset 29, -5
 2042 0008 00D0      		rcall .
 2043 000a 00D0      		rcall .
 2044               	.LCFI47:
 2045               		.cfi_def_cfa_offset 10
 2046 000c CDB7      		in r28,__SP_L__
 2047 000e DEB7      		in r29,__SP_H__
 2048               	.LCFI48:
 2049               		.cfi_def_cfa_register 28
 2050               	/* prologue: function */
 2051               	/* frame size = 4 */
 2052               	/* stack size = 8 */
 2053               	.L__stack_usage = 8
 2054 0010 122F      		mov r17,r18
 611:quantum/rgblight.c **** 
 2055               		.loc 1 611 3 is_stmt 1 view .LVU448
 611:quantum/rgblight.c **** 
 2056               		.loc 1 611 23 is_stmt 0 view .LVU449
 2057 0012 9091 0000 		lds r25,rgblight_config
 611:quantum/rgblight.c **** 
 2058               		.loc 1 611 6 view .LVU450
 2059 0016 90FF      		sbrs r25,0
 2060 0018 00C0      		rjmp .L104
 613:quantum/rgblight.c ****   sethsv(hue, sat, val, &tmp_led);
 2061               		.loc 1 613 3 is_stmt 1 view .LVU451
 614:quantum/rgblight.c ****   rgblight_setrgb_range(tmp_led.r, tmp_led.g, tmp_led.b, start, end);
 2062               		.loc 1 614 3 view .LVU452
 2063 001a 9E01      		movw r18,r28
 2064               	.LVL128:
 614:quantum/rgblight.c ****   rgblight_setrgb_range(tmp_led.r, tmp_led.g, tmp_led.b, start, end);
 2065               		.loc 1 614 3 is_stmt 0 view .LVU453
 2066 001c 2F5F      		subi r18,-1
 2067 001e 3F4F      		sbci r19,-1
 2068 0020 0E94 0000 		call sethsv
 2069               	.LVL129:
 615:quantum/rgblight.c **** }
 2070               		.loc 1 615 3 is_stmt 1 view .LVU454
 2071 0024 212F      		mov r18,r17
 2072 0026 4B81      		ldd r20,Y+3
 2073 0028 6981      		ldd r22,Y+1
 2074 002a 8A81      		ldd r24,Y+2
 2075 002c 0E94 0000 		call rgblight_setrgb_range
 2076               	.LVL130:
 2077               	.L104:
 2078               	/* epilogue start */
 616:quantum/rgblight.c **** 
 2079               		.loc 1 616 1 is_stmt 0 view .LVU455
 2080 0030 0F90      		pop __tmp_reg__
 2081 0032 0F90      		pop __tmp_reg__
 2082 0034 0F90      		pop __tmp_reg__
 2083 0036 0F90      		pop __tmp_reg__
 2084 0038 DF91      		pop r29
 2085 003a CF91      		pop r28
 2086 003c 1F91      		pop r17
 2087               	.LVL131:
 616:quantum/rgblight.c **** 
 2088               		.loc 1 616 1 view .LVU456
 2089 003e 0F91      		pop r16
 2090               	.LVL132:
 616:quantum/rgblight.c **** 
 2091               		.loc 1 616 1 view .LVU457
 2092 0040 0895      		ret
 2093               		.cfi_endproc
 2094               	.LFE140:
 2096               		.section	.text.rgblight_sethsv_master,"ax",@progbits
 2097               	.global	rgblight_sethsv_master
 2099               	rgblight_sethsv_master:
 2100               	.LVL133:
 2101               	.LFB143:
 626:quantum/rgblight.c ****   rgblight_sethsv_range(hue, sat, val, 0, (uint8_t) RGBLED_NUM/2);
 2102               		.loc 1 626 68 is_stmt 1 view -0
 2103               		.cfi_startproc
 626:quantum/rgblight.c ****   rgblight_sethsv_range(hue, sat, val, 0, (uint8_t) RGBLED_NUM/2);
 2104               		.loc 1 626 68 is_stmt 0 view .LVU459
 2105 0000 0F93      		push r16
 2106               	.LCFI49:
 2107               		.cfi_def_cfa_offset 3
 2108               		.cfi_offset 16, -2
 2109               	/* prologue: function */
 2110               	/* frame size = 0 */
 2111               	/* stack size = 1 */
 2112               	.L__stack_usage = 1
 627:quantum/rgblight.c **** }
 2113               		.loc 1 627 3 is_stmt 1 view .LVU460
 2114 0002 07E0      		ldi r16,lo8(7)
 2115 0004 20E0      		ldi r18,0
 2116 0006 0E94 0000 		call rgblight_sethsv_range
 2117               	.LVL134:
 2118               	/* epilogue start */
 628:quantum/rgblight.c **** 
 2119               		.loc 1 628 1 is_stmt 0 view .LVU461
 2120 000a 0F91      		pop r16
 2121 000c 0895      		ret
 2122               		.cfi_endproc
 2123               	.LFE143:
 2125               		.section	.text.rgblight_sethsv_slave,"ax",@progbits
 2126               	.global	rgblight_sethsv_slave
 2128               	rgblight_sethsv_slave:
 2129               	.LVL135:
 2130               	.LFB144:
 630:quantum/rgblight.c ****   rgblight_sethsv_range(hue, sat, val, (uint8_t) RGBLED_NUM/2, (uint8_t) RGBLED_NUM);
 2131               		.loc 1 630 67 is_stmt 1 view -0
 2132               		.cfi_startproc
 630:quantum/rgblight.c ****   rgblight_sethsv_range(hue, sat, val, (uint8_t) RGBLED_NUM/2, (uint8_t) RGBLED_NUM);
 2133               		.loc 1 630 67 is_stmt 0 view .LVU463
 2134 0000 0F93      		push r16
 2135               	.LCFI50:
 2136               		.cfi_def_cfa_offset 3
 2137               		.cfi_offset 16, -2
 2138               	/* prologue: function */
 2139               	/* frame size = 0 */
 2140               	/* stack size = 1 */
 2141               	.L__stack_usage = 1
 631:quantum/rgblight.c **** }
 2142               		.loc 1 631 3 is_stmt 1 view .LVU464
 2143 0002 0FE0      		ldi r16,lo8(15)
 2144 0004 27E0      		ldi r18,lo8(7)
 2145 0006 0E94 0000 		call rgblight_sethsv_range
 2146               	.LVL136:
 2147               	/* epilogue start */
 632:quantum/rgblight.c **** 
 2148               		.loc 1 632 1 is_stmt 0 view .LVU465
 2149 000a 0F91      		pop r16
 2150 000c 0895      		ret
 2151               		.cfi_endproc
 2152               	.LFE144:
 2154               		.section	.text.rgblight_setrgb_master,"ax",@progbits
 2155               	.global	rgblight_setrgb_master
 2157               	rgblight_setrgb_master:
 2158               	.LVL137:
 2159               	.LFB141:
 618:quantum/rgblight.c ****   rgblight_setrgb_range(r, g, b, 0 , (uint8_t) RGBLED_NUM/2);
 2160               		.loc 1 618 62 is_stmt 1 view -0
 2161               		.cfi_startproc
 618:quantum/rgblight.c ****   rgblight_setrgb_range(r, g, b, 0 , (uint8_t) RGBLED_NUM/2);
 2162               		.loc 1 618 62 is_stmt 0 view .LVU467
 2163 0000 0F93      		push r16
 2164               	.LCFI51:
 2165               		.cfi_def_cfa_offset 3
 2166               		.cfi_offset 16, -2
 2167               	/* prologue: function */
 2168               	/* frame size = 0 */
 2169               	/* stack size = 1 */
 2170               	.L__stack_usage = 1
 619:quantum/rgblight.c **** }
 2171               		.loc 1 619 3 is_stmt 1 view .LVU468
 2172 0002 07E0      		ldi r16,lo8(7)
 2173 0004 20E0      		ldi r18,0
 2174 0006 0E94 0000 		call rgblight_setrgb_range
 2175               	.LVL138:
 2176               	/* epilogue start */
 620:quantum/rgblight.c **** 
 2177               		.loc 1 620 1 is_stmt 0 view .LVU469
 2178 000a 0F91      		pop r16
 2179 000c 0895      		ret
 2180               		.cfi_endproc
 2181               	.LFE141:
 2183               		.section	.text.rgblight_setrgb_slave,"ax",@progbits
 2184               	.global	rgblight_setrgb_slave
 2186               	rgblight_setrgb_slave:
 2187               	.LVL139:
 2188               	.LFB142:
 622:quantum/rgblight.c ****   rgblight_setrgb_range(r, g, b, (uint8_t) RGBLED_NUM/2, (uint8_t) RGBLED_NUM);
 2189               		.loc 1 622 61 is_stmt 1 view -0
 2190               		.cfi_startproc
 622:quantum/rgblight.c ****   rgblight_setrgb_range(r, g, b, (uint8_t) RGBLED_NUM/2, (uint8_t) RGBLED_NUM);
 2191               		.loc 1 622 61 is_stmt 0 view .LVU471
 2192 0000 0F93      		push r16
 2193               	.LCFI52:
 2194               		.cfi_def_cfa_offset 3
 2195               		.cfi_offset 16, -2
 2196               	/* prologue: function */
 2197               	/* frame size = 0 */
 2198               	/* stack size = 1 */
 2199               	.L__stack_usage = 1
 623:quantum/rgblight.c **** }
 2200               		.loc 1 623 3 is_stmt 1 view .LVU472
 2201 0002 0FE0      		ldi r16,lo8(15)
 2202 0004 27E0      		ldi r18,lo8(7)
 2203 0006 0E94 0000 		call rgblight_setrgb_range
 2204               	.LVL140:
 2205               	/* epilogue start */
 624:quantum/rgblight.c **** 
 2206               		.loc 1 624 1 is_stmt 0 view .LVU473
 2207 000a 0F91      		pop r16
 2208 000c 0895      		ret
 2209               		.cfi_endproc
 2210               	.LFE142:
 2212               		.section	.text.rgblight_effect_rainbow_swirl,"ax",@progbits
 2213               	.global	rgblight_effect_rainbow_swirl
 2215               	rgblight_effect_rainbow_swirl:
 2216               	.LVL141:
 2217               	.LFB155:
 925:quantum/rgblight.c ****   uint8_t hue;
 2218               		.loc 1 925 62 is_stmt 1 view -0
 2219               		.cfi_startproc
 925:quantum/rgblight.c ****   uint8_t hue;
 2220               		.loc 1 925 62 is_stmt 0 view .LVU475
 2221 0000 EF92      		push r14
 2222               	.LCFI53:
 2223               		.cfi_def_cfa_offset 3
 2224               		.cfi_offset 14, -2
 2225 0002 FF92      		push r15
 2226               	.LCFI54:
 2227               		.cfi_def_cfa_offset 4
 2228               		.cfi_offset 15, -3
 2229 0004 1F93      		push r17
 2230               	.LCFI55:
 2231               		.cfi_def_cfa_offset 5
 2232               		.cfi_offset 17, -4
 2233 0006 CF93      		push r28
 2234               	.LCFI56:
 2235               		.cfi_def_cfa_offset 6
 2236               		.cfi_offset 28, -5
 2237 0008 DF93      		push r29
 2238               	.LCFI57:
 2239               		.cfi_def_cfa_offset 7
 2240               		.cfi_offset 29, -6
 2241               	/* prologue: function */
 2242               	/* frame size = 0 */
 2243               	/* stack size = 5 */
 2244               	.L__stack_usage = 5
 2245 000a EC01      		movw r28,r24
 926:quantum/rgblight.c ****   uint8_t i;
 2246               		.loc 1 926 3 is_stmt 1 view .LVU476
 927:quantum/rgblight.c **** 
 2247               		.loc 1 927 3 view .LVU477
 929:quantum/rgblight.c ****     hue = (RGBLIGHT_RAINBOW_SWIRL_RANGE / RGBLED_NUM * i + anim->current_hue);
 2248               		.loc 1 929 3 view .LVU478
 2249               	.LVL142:
 929:quantum/rgblight.c ****     hue = (RGBLIGHT_RAINBOW_SWIRL_RANGE / RGBLED_NUM * i + anim->current_hue);
 2250               		.loc 1 929 3 is_stmt 0 view .LVU479
 2251 000c 80E0      		ldi r24,lo8(led)
 2252 000e E82E      		mov r14,r24
 2253 0010 80E0      		ldi r24,hi8(led)
 2254 0012 F82E      		mov r15,r24
 2255               	.LVL143:
 925:quantum/rgblight.c ****   uint8_t hue;
 2256               		.loc 1 925 62 view .LVU480
 2257 0014 10E0      		ldi r17,0
 2258               	.LVL144:
 2259               	.L112:
 930:quantum/rgblight.c ****     sethsv(hue, rgblight_config.sat, rgblight_config.val, (LED_TYPE *)&led[i]);
 2260               		.loc 1 930 5 is_stmt 1 discriminator 3 view .LVU481
 931:quantum/rgblight.c ****   }
 2261               		.loc 1 931 5 discriminator 3 view .LVU482
 930:quantum/rgblight.c ****     sethsv(hue, rgblight_config.sat, rgblight_config.val, (LED_TYPE *)&led[i]);
 2262               		.loc 1 930 9 is_stmt 0 discriminator 3 view .LVU483
 2263 0016 8C81      		ldd r24,Y+4
 931:quantum/rgblight.c ****   }
 2264               		.loc 1 931 5 discriminator 3 view .LVU484
 2265 0018 9701      		movw r18,r14
 2266 001a 4091 0000 		lds r20,rgblight_config+3
 2267 001e 6091 0000 		lds r22,rgblight_config+2
 2268 0022 810F      		add r24,r17
 2269               	.LVL145:
 931:quantum/rgblight.c ****   }
 2270               		.loc 1 931 5 discriminator 3 view .LVU485
 2271 0024 0E94 0000 		call sethsv
 2272               	.LVL146:
 931:quantum/rgblight.c ****   }
 2273               		.loc 1 931 5 discriminator 3 view .LVU486
 2274 0028 1F5E      		subi r17,lo8(-(17))
 2275 002a 84E0      		ldi r24,4
 2276 002c E80E      		add r14,r24
 2277 002e F11C      		adc r15,__zero_reg__
 929:quantum/rgblight.c ****     hue = (RGBLIGHT_RAINBOW_SWIRL_RANGE / RGBLED_NUM * i + anim->current_hue);
 2278               		.loc 1 929 3 discriminator 3 view .LVU487
 2279 0030 1F3F      		cpi r17,lo8(-1)
 2280 0032 01F4      		brne .L112
 933:quantum/rgblight.c **** 
 2281               		.loc 1 933 3 is_stmt 1 view .LVU488
 2282 0034 0E94 0000 		call rgblight_set
 2283               	.LVL147:
 935:quantum/rgblight.c ****     anim->current_hue++;
 2284               		.loc 1 935 3 view .LVU489
 935:quantum/rgblight.c ****     anim->current_hue++;
 2285               		.loc 1 935 7 is_stmt 0 view .LVU490
 2286 0038 9A81      		ldd r25,Y+2
 2287 003a 8C81      		ldd r24,Y+4
 935:quantum/rgblight.c ****     anim->current_hue++;
 2288               		.loc 1 935 6 view .LVU491
 2289 003c 90FF      		sbrs r25,0
 2290 003e 00C0      		rjmp .L113
 936:quantum/rgblight.c ****   } else {
 2291               		.loc 1 936 5 is_stmt 1 view .LVU492
 936:quantum/rgblight.c ****   } else {
 2292               		.loc 1 936 22 is_stmt 0 view .LVU493
 2293 0040 8F5F      		subi r24,lo8(-(1))
 2294               	.L116:
 938:quantum/rgblight.c ****   }
 2295               		.loc 1 938 22 view .LVU494
 2296 0042 8C83      		std Y+4,r24
 2297               	/* epilogue start */
 940:quantum/rgblight.c **** #endif
 2298               		.loc 1 940 1 view .LVU495
 2299 0044 DF91      		pop r29
 2300 0046 CF91      		pop r28
 2301               	.LVL148:
 940:quantum/rgblight.c **** #endif
 2302               		.loc 1 940 1 view .LVU496
 2303 0048 1F91      		pop r17
 2304 004a FF90      		pop r15
 2305 004c EF90      		pop r14
 2306 004e 0895      		ret
 2307               	.LVL149:
 2308               	.L113:
 938:quantum/rgblight.c ****   }
 2309               		.loc 1 938 5 is_stmt 1 view .LVU497
 938:quantum/rgblight.c ****   }
 2310               		.loc 1 938 22 is_stmt 0 view .LVU498
 2311 0050 8150      		subi r24,lo8(-(-1))
 2312 0052 00C0      		rjmp .L116
 2313               		.cfi_endproc
 2314               	.LFE155:
 2316               		.section	.text.rgblight_effect_snake,"ax",@progbits
 2317               	.global	rgblight_effect_snake
 2319               	rgblight_effect_snake:
 2320               	.LVL150:
 2321               	.LFB156:
 947:quantum/rgblight.c ****   static uint8_t pos = 0;
 2322               		.loc 1 947 54 is_stmt 1 view -0
 2323               		.cfi_startproc
 947:quantum/rgblight.c ****   static uint8_t pos = 0;
 2324               		.loc 1 947 54 is_stmt 0 view .LVU500
 2325 0000 CF92      		push r12
 2326               	.LCFI58:
 2327               		.cfi_def_cfa_offset 3
 2328               		.cfi_offset 12, -2
 2329 0002 DF92      		push r13
 2330               	.LCFI59:
 2331               		.cfi_def_cfa_offset 4
 2332               		.cfi_offset 13, -3
 2333 0004 EF92      		push r14
 2334               	.LCFI60:
 2335               		.cfi_def_cfa_offset 5
 2336               		.cfi_offset 14, -4
 2337 0006 FF92      		push r15
 2338               	.LCFI61:
 2339               		.cfi_def_cfa_offset 6
 2340               		.cfi_offset 15, -5
 2341 0008 0F93      		push r16
 2342               	.LCFI62:
 2343               		.cfi_def_cfa_offset 7
 2344               		.cfi_offset 16, -6
 2345 000a 1F93      		push r17
 2346               	.LCFI63:
 2347               		.cfi_def_cfa_offset 8
 2348               		.cfi_offset 17, -7
 2349 000c CF93      		push r28
 2350               	.LCFI64:
 2351               		.cfi_def_cfa_offset 9
 2352               		.cfi_offset 28, -8
 2353 000e DF93      		push r29
 2354               	.LCFI65:
 2355               		.cfi_def_cfa_offset 10
 2356               		.cfi_offset 29, -9
 2357               	/* prologue: function */
 2358               	/* frame size = 0 */
 2359               	/* stack size = 8 */
 2360               	.L__stack_usage = 8
 948:quantum/rgblight.c ****   uint8_t i, j;
 2361               		.loc 1 948 3 is_stmt 1 view .LVU501
 949:quantum/rgblight.c ****   int8_t k;
 2362               		.loc 1 949 3 view .LVU502
 950:quantum/rgblight.c ****   int8_t increment = 1;
 2363               		.loc 1 950 3 view .LVU503
 951:quantum/rgblight.c **** 
 2364               		.loc 1 951 3 view .LVU504
 2365               	.LVL151:
 953:quantum/rgblight.c ****     increment = -1;
 2366               		.loc 1 953 3 view .LVU505
 953:quantum/rgblight.c ****     increment = -1;
 2367               		.loc 1 953 7 is_stmt 0 view .LVU506
 2368 0010 FC01      		movw r30,r24
 2369 0012 8281      		ldd r24,Z+2
 2370               	.LVL152:
 954:quantum/rgblight.c ****   }
 2371               		.loc 1 954 15 view .LVU507
 2372 0014 DD24      		clr r13
 2373 0016 DA94      		dec r13
 953:quantum/rgblight.c ****     increment = -1;
 2374               		.loc 1 953 6 view .LVU508
 2375 0018 80FD      		sbrc r24,0
 2376 001a 00C0      		rjmp .L118
 951:quantum/rgblight.c **** 
 2377               		.loc 1 951 10 view .LVU509
 2378 001c DD24      		clr r13
 2379 001e D394      		inc r13
 2380               	.L118:
 2381               	.LVL153:
 968:quantum/rgblight.c ****     led[i].r = 0;
 2382               		.loc 1 968 3 is_stmt 1 view .LVU510
 968:quantum/rgblight.c ****     led[i].r = 0;
 2383               		.loc 1 968 3 is_stmt 0 view .LVU511
 2384 0020 00E0      		ldi r16,lo8(led)
 2385 0022 10E0      		ldi r17,hi8(led)
 954:quantum/rgblight.c ****   }
 2386               		.loc 1 954 15 view .LVU512
 2387 0024 D0E0      		ldi r29,0
 2388 0026 C0E0      		ldi r28,0
 2389               	.LVL154:
 2390               	.L122:
 969:quantum/rgblight.c ****     led[i].g = 0;
 2391               		.loc 1 969 5 is_stmt 1 view .LVU513
 969:quantum/rgblight.c ****     led[i].g = 0;
 2392               		.loc 1 969 14 is_stmt 0 view .LVU514
 2393 0028 F801      		movw r30,r16
 2394 002a 1182      		std Z+1,__zero_reg__
 970:quantum/rgblight.c ****     led[i].b = 0;
 2395               		.loc 1 970 5 is_stmt 1 view .LVU515
 970:quantum/rgblight.c ****     led[i].b = 0;
 2396               		.loc 1 970 14 is_stmt 0 view .LVU516
 2397 002c 1082      		st Z,__zero_reg__
 971:quantum/rgblight.c ****     for (j = 0; j < RGBLIGHT_EFFECT_SNAKE_LENGTH; j++) {
 2398               		.loc 1 971 5 is_stmt 1 view .LVU517
 971:quantum/rgblight.c ****     for (j = 0; j < RGBLIGHT_EFFECT_SNAKE_LENGTH; j++) {
 2399               		.loc 1 971 14 is_stmt 0 view .LVU518
 2400 002e 1282      		std Z+2,__zero_reg__
 972:quantum/rgblight.c ****       k = pos + j * increment;
 2401               		.loc 1 972 5 is_stmt 1 view .LVU519
 2402               	.LVL155:
 971:quantum/rgblight.c ****     for (j = 0; j < RGBLIGHT_EFFECT_SNAKE_LENGTH; j++) {
 2403               		.loc 1 971 14 is_stmt 0 view .LVU520
 2404 0030 94E0      		ldi r25,lo8(4)
 2405 0032 E92E      		mov r14,r25
 2406 0034 F12C      		mov r15,__zero_reg__
 2407 0036 C12C      		mov r12,__zero_reg__
 2408               	.LVL156:
 2409               	.L121:
 973:quantum/rgblight.c ****       if (k < 0) {
 2410               		.loc 1 973 7 is_stmt 1 view .LVU521
 973:quantum/rgblight.c ****       if (k < 0) {
 2411               		.loc 1 973 15 is_stmt 0 view .LVU522
 2412 0038 8091 0000 		lds r24,pos.3161
 2413 003c 8C0D      		add r24,r12
 2414               	.LVL157:
 974:quantum/rgblight.c ****         k = k + RGBLED_NUM;
 2415               		.loc 1 974 7 is_stmt 1 view .LVU523
 974:quantum/rgblight.c ****         k = k + RGBLED_NUM;
 2416               		.loc 1 974 10 is_stmt 0 view .LVU524
 2417 003e 87FD      		sbrc r24,7
 975:quantum/rgblight.c ****       }
 2418               		.loc 1 975 9 is_stmt 1 view .LVU525
 975:quantum/rgblight.c ****       }
 2419               		.loc 1 975 15 is_stmt 0 view .LVU526
 2420 0040 815F      		subi r24,lo8(-(15))
 2421               	.LVL158:
 2422               	.L119:
 977:quantum/rgblight.c ****         sethsv(rgblight_config.hue, rgblight_config.sat,
 2423               		.loc 1 977 7 is_stmt 1 view .LVU527
 977:quantum/rgblight.c ****         sethsv(rgblight_config.hue, rgblight_config.sat,
 2424               		.loc 1 977 13 is_stmt 0 view .LVU528
 2425 0042 082E      		mov __tmp_reg__,r24
 2426 0044 000C      		lsl r0
 2427 0046 990B      		sbc r25,r25
 977:quantum/rgblight.c ****         sethsv(rgblight_config.hue, rgblight_config.sat,
 2428               		.loc 1 977 10 view .LVU529
 2429 0048 8C17      		cp r24,r28
 2430 004a 9D07      		cpc r25,r29
 2431 004c 01F4      		brne .L120
 978:quantum/rgblight.c ****                (uint8_t)(rgblight_config.val*(RGBLIGHT_EFFECT_SNAKE_LENGTH-j)/RGBLIGHT_EFFECT_SNAKE
 2432               		.loc 1 978 9 is_stmt 1 view .LVU530
 979:quantum/rgblight.c ****                (LED_TYPE *)&led[i]);
 2433               		.loc 1 979 41 is_stmt 0 view .LVU531
 2434 004e 8091 0000 		lds r24,rgblight_config+3
 2435               	.LVL159:
 979:quantum/rgblight.c ****                (LED_TYPE *)&led[i]);
 2436               		.loc 1 979 45 view .LVU532
 2437 0052 8E9D      		mul r24,r14
 2438 0054 A001      		movw r20,r0
 2439 0056 8F9D      		mul r24,r15
 2440 0058 500D      		add r21,r0
 2441 005a 1124      		clr __zero_reg__
 979:quantum/rgblight.c ****                (LED_TYPE *)&led[i]);
 2442               		.loc 1 979 78 view .LVU533
 2443 005c 5595      		asr r21
 2444 005e 4795      		ror r20
 2445 0060 5595      		asr r21
 2446 0062 4795      		ror r20
 978:quantum/rgblight.c ****                (uint8_t)(rgblight_config.val*(RGBLIGHT_EFFECT_SNAKE_LENGTH-j)/RGBLIGHT_EFFECT_SNAKE
 2447               		.loc 1 978 9 view .LVU534
 2448 0064 9801      		movw r18,r16
 2449 0066 6091 0000 		lds r22,rgblight_config+2
 2450 006a 8091 0000 		lds r24,rgblight_config+1
 2451 006e 0E94 0000 		call sethsv
 2452               	.LVL160:
 2453               	.L120:
 978:quantum/rgblight.c ****                (uint8_t)(rgblight_config.val*(RGBLIGHT_EFFECT_SNAKE_LENGTH-j)/RGBLIGHT_EFFECT_SNAKE
 2454               		.loc 1 978 9 view .LVU535
 2455 0072 CD0C      		add r12,r13
 2456 0074 F1E0      		ldi r31,1
 2457 0076 EF1A      		sub r14,r31
 2458 0078 F108      		sbc r15,__zero_reg__
 972:quantum/rgblight.c ****       k = pos + j * increment;
 2459               		.loc 1 972 5 discriminator 2 view .LVU536
 2460 007a 01F4      		brne .L121
 2461               	.LVL161:
 972:quantum/rgblight.c ****       k = pos + j * increment;
 2462               		.loc 1 972 5 discriminator 2 view .LVU537
 2463 007c 2196      		adiw r28,1
 2464               	.LVL162:
 972:quantum/rgblight.c ****       k = pos + j * increment;
 2465               		.loc 1 972 5 discriminator 2 view .LVU538
 2466 007e 0C5F      		subi r16,-4
 2467 0080 1F4F      		sbci r17,-1
 968:quantum/rgblight.c ****     led[i].r = 0;
 2468               		.loc 1 968 3 discriminator 2 view .LVU539
 2469 0082 CF30      		cpi r28,15
 2470 0084 D105      		cpc r29,__zero_reg__
 2471 0086 01F4      		brne .L122
 984:quantum/rgblight.c ****   if (increment == 1) {
 2472               		.loc 1 984 3 is_stmt 1 view .LVU540
 2473 0088 0E94 0000 		call rgblight_set
 2474               	.LVL163:
 985:quantum/rgblight.c ****     if (pos - 1 < 0) {
 2475               		.loc 1 985 3 view .LVU541
 2476 008c 8091 0000 		lds r24,pos.3161
 985:quantum/rgblight.c ****     if (pos - 1 < 0) {
 2477               		.loc 1 985 6 is_stmt 0 view .LVU542
 2478 0090 91E0      		ldi r25,lo8(1)
 2479 0092 D912      		cpse r13,r25
 2480 0094 00C0      		rjmp .L123
 986:quantum/rgblight.c ****       pos = RGBLED_NUM - 1;
 2481               		.loc 1 986 5 is_stmt 1 view .LVU543
 986:quantum/rgblight.c ****       pos = RGBLED_NUM - 1;
 2482               		.loc 1 986 8 is_stmt 0 view .LVU544
 2483 0096 8111      		cpse r24,__zero_reg__
 2484 0098 00C0      		rjmp .L124
 987:quantum/rgblight.c **** #if defined(RGBLIGHT_SPLIT) && !defined(RGBLIGHT_SPLIT_NO_ANIMATION_SYNC)
 2485               		.loc 1 987 7 is_stmt 1 view .LVU545
 987:quantum/rgblight.c **** #if defined(RGBLIGHT_SPLIT) && !defined(RGBLIGHT_SPLIT_NO_ANIMATION_SYNC)
 2486               		.loc 1 987 11 is_stmt 0 view .LVU546
 2487 009a 8EE0      		ldi r24,lo8(14)
 2488               	.L129:
 998:quantum/rgblight.c **** #if defined(RGBLIGHT_SPLIT) && !defined(RGBLIGHT_SPLIT_NO_ANIMATION_SYNC)
 2489               		.loc 1 998 9 view .LVU547
 2490 009c 8093 0000 		sts pos.3161,r24
 2491               	/* epilogue start */
1003:quantum/rgblight.c **** #endif
 2492               		.loc 1 1003 1 view .LVU548
 2493 00a0 DF91      		pop r29
 2494 00a2 CF91      		pop r28
 2495               	.LVL164:
1003:quantum/rgblight.c **** #endif
 2496               		.loc 1 1003 1 view .LVU549
 2497 00a4 1F91      		pop r17
 2498 00a6 0F91      		pop r16
 2499 00a8 FF90      		pop r15
 2500 00aa EF90      		pop r14
 2501 00ac DF90      		pop r13
 2502               	.LVL165:
1003:quantum/rgblight.c **** #endif
 2503               		.loc 1 1003 1 view .LVU550
 2504 00ae CF90      		pop r12
 2505 00b0 0895      		ret
 2506               	.LVL166:
 2507               	.L124:
 992:quantum/rgblight.c **** #if defined(RGBLIGHT_SPLIT) && !defined(RGBLIGHT_SPLIT_NO_ANIMATION_SYNC)
 2508               		.loc 1 992 7 is_stmt 1 view .LVU551
 992:quantum/rgblight.c **** #if defined(RGBLIGHT_SPLIT) && !defined(RGBLIGHT_SPLIT_NO_ANIMATION_SYNC)
 2509               		.loc 1 992 11 is_stmt 0 view .LVU552
 2510 00b2 8150      		subi r24,lo8(-(-1))
 2511 00b4 00C0      		rjmp .L129
 2512               	.L123:
 998:quantum/rgblight.c **** #if defined(RGBLIGHT_SPLIT) && !defined(RGBLIGHT_SPLIT_NO_ANIMATION_SYNC)
 2513               		.loc 1 998 5 is_stmt 1 view .LVU553
 998:quantum/rgblight.c **** #if defined(RGBLIGHT_SPLIT) && !defined(RGBLIGHT_SPLIT_NO_ANIMATION_SYNC)
 2514               		.loc 1 998 16 is_stmt 0 view .LVU554
 2515 00b6 90E0      		ldi r25,0
 2516 00b8 0196      		adiw r24,1
 998:quantum/rgblight.c **** #if defined(RGBLIGHT_SPLIT) && !defined(RGBLIGHT_SPLIT_NO_ANIMATION_SYNC)
 2517               		.loc 1 998 21 view .LVU555
 2518 00ba BE01      		movw r22,r28
 2519 00bc 0E94 0000 		call __divmodhi4
 2520 00c0 00C0      		rjmp .L129
 2521               		.cfi_endproc
 2522               	.LFE156:
 2524               		.section	.text.rgblight_effect_knight,"ax",@progbits
 2525               	.global	rgblight_effect_knight
 2527               	rgblight_effect_knight:
 2528               	.LVL167:
 2529               	.LFB157:
1010:quantum/rgblight.c **** 
 2530               		.loc 1 1010 55 is_stmt 1 view -0
 2531               		.cfi_startproc
1010:quantum/rgblight.c **** 
 2532               		.loc 1 1010 55 is_stmt 0 view .LVU557
 2533 0000 0F93      		push r16
 2534               	.LCFI66:
 2535               		.cfi_def_cfa_offset 3
 2536               		.cfi_offset 16, -2
 2537 0002 1F93      		push r17
 2538               	.LCFI67:
 2539               		.cfi_def_cfa_offset 4
 2540               		.cfi_offset 17, -3
 2541 0004 CF93      		push r28
 2542               	.LCFI68:
 2543               		.cfi_def_cfa_offset 5
 2544               		.cfi_offset 28, -4
 2545 0006 DF93      		push r29
 2546               	.LCFI69:
 2547               		.cfi_def_cfa_offset 6
 2548               		.cfi_offset 29, -5
 2549               	/* prologue: function */
 2550               	/* frame size = 0 */
 2551               	/* stack size = 4 */
 2552               	.L__stack_usage = 4
1012:quantum/rgblight.c ****   static int8_t high_bound = RGBLIGHT_EFFECT_KNIGHT_LENGTH - 1;
 2553               		.loc 1 1012 3 is_stmt 1 view .LVU558
1013:quantum/rgblight.c ****   static int8_t increment = 1;
 2554               		.loc 1 1013 3 view .LVU559
1014:quantum/rgblight.c ****   uint8_t i, cur;
 2555               		.loc 1 1014 3 view .LVU560
1015:quantum/rgblight.c **** 
 2556               		.loc 1 1015 3 view .LVU561
1026:quantum/rgblight.c ****     led[i].r = 0;
 2557               		.loc 1 1026 3 view .LVU562
 2558               	.LVL168:
1026:quantum/rgblight.c ****     led[i].r = 0;
 2559               		.loc 1 1026 3 is_stmt 0 view .LVU563
 2560 0008 C0E0      		ldi r28,lo8(led)
 2561 000a D0E0      		ldi r29,hi8(led)
1010:quantum/rgblight.c **** 
 2562               		.loc 1 1010 55 view .LVU564
 2563 000c FE01      		movw r30,r28
 2564               	.LVL169:
 2565               	.L131:
1027:quantum/rgblight.c ****     led[i].g = 0;
 2566               		.loc 1 1027 5 is_stmt 1 discriminator 3 view .LVU565
1027:quantum/rgblight.c ****     led[i].g = 0;
 2567               		.loc 1 1027 14 is_stmt 0 discriminator 3 view .LVU566
 2568 000e 1182      		std Z+1,__zero_reg__
1028:quantum/rgblight.c ****     led[i].b = 0;
 2569               		.loc 1 1028 5 is_stmt 1 discriminator 3 view .LVU567
1028:quantum/rgblight.c ****     led[i].b = 0;
 2570               		.loc 1 1028 14 is_stmt 0 discriminator 3 view .LVU568
 2571 0010 1082      		st Z,__zero_reg__
1029:quantum/rgblight.c ****   }
 2572               		.loc 1 1029 5 is_stmt 1 discriminator 3 view .LVU569
1029:quantum/rgblight.c ****   }
 2573               		.loc 1 1029 14 is_stmt 0 discriminator 3 view .LVU570
 2574 0012 1282      		std Z+2,__zero_reg__
1029:quantum/rgblight.c ****   }
 2575               		.loc 1 1029 14 discriminator 3 view .LVU571
 2576 0014 3496      		adiw r30,4
1026:quantum/rgblight.c ****     led[i].r = 0;
 2577               		.loc 1 1026 3 discriminator 3 view .LVU572
 2578 0016 80E0      		ldi r24,hi8(led+60)
 2579 0018 E030      		cpi r30,lo8(led+60)
 2580 001a F807      		cpc r31,r24
 2581 001c 01F4      		brne .L131
 2582 001e 10E0      		ldi r17,0
 2583 0020 00E0      		ldi r16,0
 2584               	.L134:
 2585               	.LVL170:
1033:quantum/rgblight.c **** 
 2586               		.loc 1 1033 5 is_stmt 1 view .LVU573
1035:quantum/rgblight.c ****       sethsv(rgblight_config.hue, rgblight_config.sat, rgblight_config.val, (LED_TYPE *)&led[cur]);
 2587               		.loc 1 1035 5 view .LVU574
1035:quantum/rgblight.c ****       sethsv(rgblight_config.hue, rgblight_config.sat, rgblight_config.val, (LED_TYPE *)&led[cur]);
 2588               		.loc 1 1035 11 is_stmt 0 view .LVU575
 2589 0022 8091 0000 		lds r24,low_bound.3176
 2590 0026 082E      		mov __tmp_reg__,r24
 2591 0028 000C      		lsl r0
 2592 002a 990B      		sbc r25,r25
1035:quantum/rgblight.c ****       sethsv(rgblight_config.hue, rgblight_config.sat, rgblight_config.val, (LED_TYPE *)&led[cur]);
 2593               		.loc 1 1035 8 view .LVU576
 2594 002c 0817      		cp r16,r24
 2595 002e 1907      		cpc r17,r25
 2596 0030 04F0      		brlt .L132
1035:quantum/rgblight.c ****       sethsv(rgblight_config.hue, rgblight_config.sat, rgblight_config.val, (LED_TYPE *)&led[cur]);
 2597               		.loc 1 1035 29 discriminator 1 view .LVU577
 2598 0032 8091 0000 		lds r24,high_bound.3177
 2599 0036 082E      		mov __tmp_reg__,r24
 2600 0038 000C      		lsl r0
 2601 003a 990B      		sbc r25,r25
1035:quantum/rgblight.c ****       sethsv(rgblight_config.hue, rgblight_config.sat, rgblight_config.val, (LED_TYPE *)&led[cur]);
 2602               		.loc 1 1035 24 discriminator 1 view .LVU578
 2603 003c 8017      		cp r24,r16
 2604 003e 9107      		cpc r25,r17
 2605 0040 04F0      		brlt .L132
1036:quantum/rgblight.c ****     } else {
 2606               		.loc 1 1036 7 is_stmt 1 view .LVU579
 2607 0042 9E01      		movw r18,r28
 2608 0044 4091 0000 		lds r20,rgblight_config+3
 2609 0048 6091 0000 		lds r22,rgblight_config+2
 2610 004c 8091 0000 		lds r24,rgblight_config+1
 2611 0050 0E94 0000 		call sethsv
 2612               	.LVL171:
 2613               	.L133:
1036:quantum/rgblight.c ****     } else {
 2614               		.loc 1 1036 7 is_stmt 0 view .LVU580
 2615 0054 0F5F      		subi r16,-1
 2616 0056 1F4F      		sbci r17,-1
 2617               	.LVL172:
1036:quantum/rgblight.c ****     } else {
 2618               		.loc 1 1036 7 view .LVU581
 2619 0058 2496      		adiw r28,4
1032:quantum/rgblight.c ****     cur = (i + RGBLIGHT_EFFECT_KNIGHT_OFFSET) % RGBLED_NUM;
 2620               		.loc 1 1032 3 discriminator 2 view .LVU582
 2621 005a 0F30      		cpi r16,15
 2622 005c 1105      		cpc r17,__zero_reg__
 2623 005e 01F4      		brne .L134
1043:quantum/rgblight.c **** 
 2624               		.loc 1 1043 3 is_stmt 1 view .LVU583
 2625 0060 0E94 0000 		call rgblight_set
 2626               	.LVL173:
1047:quantum/rgblight.c ****   high_bound += increment;
 2627               		.loc 1 1047 3 view .LVU584
1047:quantum/rgblight.c ****   high_bound += increment;
 2628               		.loc 1 1047 13 is_stmt 0 view .LVU585
 2629 0064 8091 0000 		lds r24,increment.3178
 2630 0068 9091 0000 		lds r25,low_bound.3176
 2631 006c 980F      		add r25,r24
 2632 006e 9093 0000 		sts low_bound.3176,r25
1048:quantum/rgblight.c **** 
 2633               		.loc 1 1048 3 is_stmt 1 view .LVU586
1048:quantum/rgblight.c **** 
 2634               		.loc 1 1048 14 is_stmt 0 view .LVU587
 2635 0072 2091 0000 		lds r18,high_bound.3177
 2636 0076 280F      		add r18,r24
 2637 0078 2093 0000 		sts high_bound.3177,r18
1050:quantum/rgblight.c ****     increment = -increment;
 2638               		.loc 1 1050 3 is_stmt 1 view .LVU588
1050:quantum/rgblight.c ****     increment = -increment;
 2639               		.loc 1 1050 6 is_stmt 0 view .LVU589
 2640 007c 1216      		cp __zero_reg__,r18
 2641 007e 04F4      		brge .L135
1050:quantum/rgblight.c ****     increment = -increment;
 2642               		.loc 1 1050 23 discriminator 1 view .LVU590
 2643 0080 9E30      		cpi r25,lo8(14)
 2644 0082 04F0      		brlt .L130
 2645               	.L135:
1051:quantum/rgblight.c **** #if defined(RGBLIGHT_SPLIT) && !defined(RGBLIGHT_SPLIT_NO_ANIMATION_SYNC)
 2646               		.loc 1 1051 5 is_stmt 1 view .LVU591
1051:quantum/rgblight.c **** #if defined(RGBLIGHT_SPLIT) && !defined(RGBLIGHT_SPLIT_NO_ANIMATION_SYNC)
 2647               		.loc 1 1051 15 is_stmt 0 view .LVU592
 2648 0084 8195      		neg r24
 2649 0086 8093 0000 		sts increment.3178,r24
 2650               	.L130:
 2651               	/* epilogue start */
1058:quantum/rgblight.c **** #endif
 2652               		.loc 1 1058 1 view .LVU593
 2653 008a DF91      		pop r29
 2654 008c CF91      		pop r28
 2655 008e 1F91      		pop r17
 2656 0090 0F91      		pop r16
 2657               	.LVL174:
1058:quantum/rgblight.c **** #endif
 2658               		.loc 1 1058 1 view .LVU594
 2659 0092 0895      		ret
 2660               	.LVL175:
 2661               	.L132:
1038:quantum/rgblight.c ****       led[cur].g = 0;
 2662               		.loc 1 1038 7 is_stmt 1 view .LVU595
1038:quantum/rgblight.c ****       led[cur].g = 0;
 2663               		.loc 1 1038 18 is_stmt 0 view .LVU596
 2664 0094 1982      		std Y+1,__zero_reg__
1039:quantum/rgblight.c ****       led[cur].b = 0;
 2665               		.loc 1 1039 7 is_stmt 1 view .LVU597
1039:quantum/rgblight.c ****       led[cur].b = 0;
 2666               		.loc 1 1039 18 is_stmt 0 view .LVU598
 2667 0096 1882      		st Y,__zero_reg__
1040:quantum/rgblight.c ****     }
 2668               		.loc 1 1040 7 is_stmt 1 view .LVU599
1040:quantum/rgblight.c ****     }
 2669               		.loc 1 1040 18 is_stmt 0 view .LVU600
 2670 0098 1A82      		std Y+2,__zero_reg__
 2671 009a 00C0      		rjmp .L133
 2672               		.cfi_endproc
 2673               	.LFE157:
 2675               		.section	.text.rgblight_effect_christmas,"ax",@progbits
 2676               	.global	rgblight_effect_christmas
 2678               	rgblight_effect_christmas:
 2679               	.LVL176:
 2680               	.LFB158:
1062:quantum/rgblight.c ****   uint8_t hue;
 2681               		.loc 1 1062 58 is_stmt 1 view -0
 2682               		.cfi_startproc
1062:quantum/rgblight.c ****   uint8_t hue;
 2683               		.loc 1 1062 58 is_stmt 0 view .LVU602
 2684 0000 EF92      		push r14
 2685               	.LCFI70:
 2686               		.cfi_def_cfa_offset 3
 2687               		.cfi_offset 14, -2
 2688 0002 FF92      		push r15
 2689               	.LCFI71:
 2690               		.cfi_def_cfa_offset 4
 2691               		.cfi_offset 15, -3
 2692 0004 0F93      		push r16
 2693               	.LCFI72:
 2694               		.cfi_def_cfa_offset 5
 2695               		.cfi_offset 16, -4
 2696 0006 1F93      		push r17
 2697               	.LCFI73:
 2698               		.cfi_def_cfa_offset 6
 2699               		.cfi_offset 17, -5
 2700 0008 CF93      		push r28
 2701               	.LCFI74:
 2702               		.cfi_def_cfa_offset 7
 2703               		.cfi_offset 28, -6
 2704 000a DF93      		push r29
 2705               	.LCFI75:
 2706               		.cfi_def_cfa_offset 8
 2707               		.cfi_offset 29, -7
 2708               	/* prologue: function */
 2709               	/* frame size = 0 */
 2710               	/* stack size = 6 */
 2711               	.L__stack_usage = 6
 2712 000c EC01      		movw r28,r24
1063:quantum/rgblight.c ****   uint8_t i;
 2713               		.loc 1 1063 3 is_stmt 1 view .LVU603
1064:quantum/rgblight.c **** 
 2714               		.loc 1 1064 3 view .LVU604
1066:quantum/rgblight.c ****   for (i = 0; i < RGBLED_NUM; i++) {
 2715               		.loc 1 1066 3 view .LVU605
1066:quantum/rgblight.c ****   for (i = 0; i < RGBLED_NUM; i++) {
 2716               		.loc 1 1066 48 is_stmt 0 view .LVU606
 2717 000e 8C81      		ldd r24,Y+4
 2718 0010 9D81      		ldd r25,Y+5
 2719               	.LVL177:
1066:quantum/rgblight.c ****   for (i = 0; i < RGBLED_NUM; i++) {
 2720               		.loc 1 1066 48 view .LVU607
 2721 0012 0196      		adiw r24,1
1066:quantum/rgblight.c ****   for (i = 0; i < RGBLED_NUM; i++) {
 2722               		.loc 1 1066 53 view .LVU608
 2723 0014 8170      		andi r24,1
 2724 0016 9927      		clr r25
1066:quantum/rgblight.c ****   for (i = 0; i < RGBLED_NUM; i++) {
 2725               		.loc 1 1066 24 view .LVU609
 2726 0018 9D83      		std Y+5,r25
 2727 001a 8C83      		std Y+4,r24
1067:quantum/rgblight.c ****     hue = 0 + ((i/RGBLIGHT_EFFECT_CHRISTMAS_STEP + anim->current_offset) % 2) * 85;
 2728               		.loc 1 1067 3 is_stmt 1 view .LVU610
 2729               	.LVL178:
1067:quantum/rgblight.c ****     hue = 0 + ((i/RGBLIGHT_EFFECT_CHRISTMAS_STEP + anim->current_offset) % 2) * 85;
 2730               		.loc 1 1067 3 is_stmt 0 view .LVU611
 2731 001c 80E0      		ldi r24,lo8(led)
 2732 001e E82E      		mov r14,r24
 2733 0020 80E0      		ldi r24,hi8(led)
 2734 0022 F82E      		mov r15,r24
1067:quantum/rgblight.c ****     hue = 0 + ((i/RGBLIGHT_EFFECT_CHRISTMAS_STEP + anim->current_offset) % 2) * 85;
 2735               		.loc 1 1067 10 view .LVU612
 2736 0024 10E0      		ldi r17,0
1068:quantum/rgblight.c ****     sethsv(hue, rgblight_config.sat, rgblight_config.val, (LED_TYPE *)&led[i]);
 2737               		.loc 1 1068 9 view .LVU613
 2738 0026 05E5      		ldi r16,lo8(85)
 2739               	.LVL179:
 2740               	.L140:
1068:quantum/rgblight.c ****     sethsv(hue, rgblight_config.sat, rgblight_config.val, (LED_TYPE *)&led[i]);
 2741               		.loc 1 1068 5 is_stmt 1 discriminator 3 view .LVU614
1069:quantum/rgblight.c ****   }
 2742               		.loc 1 1069 5 discriminator 3 view .LVU615
1068:quantum/rgblight.c ****     sethsv(hue, rgblight_config.sat, rgblight_config.val, (LED_TYPE *)&led[i]);
 2743               		.loc 1 1068 18 is_stmt 0 discriminator 3 view .LVU616
 2744 0028 812F      		mov r24,r17
 2745 002a 8695      		lsr r24
1068:quantum/rgblight.c ****     sethsv(hue, rgblight_config.sat, rgblight_config.val, (LED_TYPE *)&led[i]);
 2746               		.loc 1 1068 50 discriminator 3 view .LVU617
 2747 002c 2C81      		ldd r18,Y+4
 2748 002e 3D81      		ldd r19,Y+5
 2749 0030 820F      		add r24,r18
 2750 0032 932F      		mov r25,r19
 2751 0034 911D      		adc r25,__zero_reg__
1068:quantum/rgblight.c ****     sethsv(hue, rgblight_config.sat, rgblight_config.val, (LED_TYPE *)&led[i]);
 2752               		.loc 1 1068 9 discriminator 3 view .LVU618
 2753 0036 8170      		andi r24,lo8(1)
1069:quantum/rgblight.c ****   }
 2754               		.loc 1 1069 5 discriminator 3 view .LVU619
 2755 0038 9701      		movw r18,r14
 2756 003a 4091 0000 		lds r20,rgblight_config+3
 2757 003e 6091 0000 		lds r22,rgblight_config+2
 2758 0042 809F      		mul r24,r16
 2759 0044 802D      		mov r24,r0
 2760 0046 1124      		clr r1
 2761 0048 0E94 0000 		call sethsv
 2762               	.LVL180:
1067:quantum/rgblight.c ****     hue = 0 + ((i/RGBLIGHT_EFFECT_CHRISTMAS_STEP + anim->current_offset) % 2) * 85;
 2763               		.loc 1 1067 32 discriminator 3 view .LVU620
 2764 004c 1F5F      		subi r17,lo8(-(1))
 2765               	.LVL181:
1067:quantum/rgblight.c ****     hue = 0 + ((i/RGBLIGHT_EFFECT_CHRISTMAS_STEP + anim->current_offset) % 2) * 85;
 2766               		.loc 1 1067 32 discriminator 3 view .LVU621
 2767 004e 84E0      		ldi r24,4
 2768 0050 E80E      		add r14,r24
 2769 0052 F11C      		adc r15,__zero_reg__
1067:quantum/rgblight.c ****     hue = 0 + ((i/RGBLIGHT_EFFECT_CHRISTMAS_STEP + anim->current_offset) % 2) * 85;
 2770               		.loc 1 1067 3 discriminator 3 view .LVU622
 2771 0054 1F30      		cpi r17,lo8(15)
 2772 0056 01F4      		brne .L140
1071:quantum/rgblight.c **** }
 2773               		.loc 1 1071 3 is_stmt 1 view .LVU623
 2774               	/* epilogue start */
1072:quantum/rgblight.c **** #endif
 2775               		.loc 1 1072 1 is_stmt 0 view .LVU624
 2776 0058 DF91      		pop r29
 2777 005a CF91      		pop r28
 2778               	.LVL182:
1072:quantum/rgblight.c **** #endif
 2779               		.loc 1 1072 1 view .LVU625
 2780 005c 1F91      		pop r17
 2781               	.LVL183:
1072:quantum/rgblight.c **** #endif
 2782               		.loc 1 1072 1 view .LVU626
 2783 005e 0F91      		pop r16
 2784 0060 FF90      		pop r15
 2785 0062 EF90      		pop r14
1071:quantum/rgblight.c **** }
 2786               		.loc 1 1071 3 view .LVU627
 2787 0064 0C94 0000 		jmp rgblight_set
 2788               	.LVL184:
 2789               		.cfi_endproc
 2790               	.LFE158:
 2792               		.section	.text.rgblight_effect_alternating,"ax",@progbits
 2793               	.global	rgblight_effect_alternating
 2795               	rgblight_effect_alternating:
 2796               	.LVL185:
 2797               	.LFB160:
1097:quantum/rgblight.c **** #endif
1098:quantum/rgblight.c **** 
1099:quantum/rgblight.c **** #ifdef RGBLIGHT_EFFECT_ALTERNATING
1100:quantum/rgblight.c **** void rgblight_effect_alternating(animation_status_t *anim) {
 2798               		.loc 1 1100 60 is_stmt 1 view -0
 2799               		.cfi_startproc
 2800               		.loc 1 1100 60 is_stmt 0 view .LVU629
 2801 0000 EF92      		push r14
 2802               	.LCFI76:
 2803               		.cfi_def_cfa_offset 3
 2804               		.cfi_offset 14, -2
 2805 0002 FF92      		push r15
 2806               	.LCFI77:
 2807               		.cfi_def_cfa_offset 4
 2808               		.cfi_offset 15, -3
 2809 0004 0F93      		push r16
 2810               	.LCFI78:
 2811               		.cfi_def_cfa_offset 5
 2812               		.cfi_offset 16, -4
 2813 0006 1F93      		push r17
 2814               	.LCFI79:
 2815               		.cfi_def_cfa_offset 6
 2816               		.cfi_offset 17, -5
 2817 0008 CF93      		push r28
 2818               	.LCFI80:
 2819               		.cfi_def_cfa_offset 7
 2820               		.cfi_offset 28, -6
 2821 000a DF93      		push r29
 2822               	.LCFI81:
 2823               		.cfi_def_cfa_offset 8
 2824               		.cfi_offset 29, -7
 2825               	/* prologue: function */
 2826               	/* frame size = 0 */
 2827               	/* stack size = 6 */
 2828               	.L__stack_usage = 6
 2829 000c 8C01      		movw r16,r24
1101:quantum/rgblight.c **** 
1102:quantum/rgblight.c ****   for(int i = 0; i<RGBLED_NUM; i++){
 2830               		.loc 1 1102 3 is_stmt 1 view .LVU630
 2831               	.LBB55:
 2832               		.loc 1 1102 7 view .LVU631
 2833               	.LVL186:
 2834               		.loc 1 1102 7 is_stmt 0 view .LVU632
 2835 000e C0E0      		ldi r28,lo8(led)
 2836 0010 D0E0      		ldi r29,hi8(led)
 2837               		.loc 1 1102 11 view .LVU633
 2838 0012 F12C      		mov r15,__zero_reg__
 2839 0014 E12C      		mov r14,__zero_reg__
 2840               	.LVL187:
 2841               	.L146:
1103:quantum/rgblight.c ****       if(i<RGBLED_NUM/2 && anim->pos){
 2842               		.loc 1 1103 7 is_stmt 1 view .LVU634
 2843 0016 F801      		movw r30,r16
 2844 0018 9481      		ldd r25,Z+4
 2845 001a 6091 0000 		lds r22,rgblight_config+2
 2846 001e 8091 0000 		lds r24,rgblight_config+1
 2847               		.loc 1 1103 9 is_stmt 0 view .LVU635
 2848 0022 F7E0      		ldi r31,7
 2849 0024 EF16      		cp r14,r31
 2850 0026 F104      		cpc r15,__zero_reg__
 2851 0028 04F4      		brge .L143
 2852               		.loc 1 1103 25 discriminator 1 view .LVU636
 2853 002a 9923      		tst r25
 2854 002c 01F0      		breq .L144
 2855               	.L152:
1104:quantum/rgblight.c ****           sethsv(rgblight_config.hue, rgblight_config.sat, rgblight_config.val, (LED_TYPE *)&led[i]
1105:quantum/rgblight.c ****       }else if (i>=RGBLED_NUM/2 && !anim->pos){
1106:quantum/rgblight.c ****           sethsv(rgblight_config.hue, rgblight_config.sat, rgblight_config.val, (LED_TYPE *)&led[i]
 2856               		.loc 1 1106 11 is_stmt 1 view .LVU637
 2857 002e 9E01      		movw r18,r28
 2858 0030 4091 0000 		lds r20,rgblight_config+3
 2859               	.L151:
1107:quantum/rgblight.c ****       }else{
1108:quantum/rgblight.c ****           sethsv(rgblight_config.hue, rgblight_config.sat, 0, (LED_TYPE *)&led[i]);
 2860               		.loc 1 1108 11 is_stmt 0 view .LVU638
 2861 0034 0E94 0000 		call sethsv
 2862               	.LVL188:
1102:quantum/rgblight.c ****       if(i<RGBLED_NUM/2 && anim->pos){
 2863               		.loc 1 1102 33 view .LVU639
 2864 0038 2FEF      		ldi r18,-1
 2865 003a E21A      		sub r14,r18
 2866 003c F20A      		sbc r15,r18
 2867               	.LVL189:
1102:quantum/rgblight.c ****       if(i<RGBLED_NUM/2 && anim->pos){
 2868               		.loc 1 1102 33 view .LVU640
 2869 003e 2496      		adiw r28,4
1102:quantum/rgblight.c ****       if(i<RGBLED_NUM/2 && anim->pos){
 2870               		.loc 1 1102 3 view .LVU641
 2871 0040 8FE0      		ldi r24,15
 2872 0042 E816      		cp r14,r24
 2873 0044 F104      		cpc r15,__zero_reg__
 2874 0046 01F4      		brne .L146
 2875               	.LBE55:
1109:quantum/rgblight.c ****       }
1110:quantum/rgblight.c ****   }
1111:quantum/rgblight.c ****   rgblight_set();
 2876               		.loc 1 1111 3 is_stmt 1 view .LVU642
 2877 0048 0E94 0000 		call rgblight_set
 2878               	.LVL190:
1112:quantum/rgblight.c ****   anim->pos = (anim->pos + 1) % 2;
 2879               		.loc 1 1112 3 view .LVU643
 2880               		.loc 1 1112 20 is_stmt 0 view .LVU644
 2881 004c F801      		movw r30,r16
 2882 004e 8481      		ldd r24,Z+4
 2883 0050 90E0      		ldi r25,0
 2884               		.loc 1 1112 26 view .LVU645
 2885 0052 0196      		adiw r24,1
 2886               		.loc 1 1112 31 view .LVU646
 2887 0054 8170      		andi r24,1
 2888 0056 9927      		clr r25
 2889               		.loc 1 1112 13 view .LVU647
 2890 0058 8483      		std Z+4,r24
 2891               	/* epilogue start */
1113:quantum/rgblight.c **** }
 2892               		.loc 1 1113 1 view .LVU648
 2893 005a DF91      		pop r29
 2894 005c CF91      		pop r28
 2895 005e 1F91      		pop r17
 2896 0060 0F91      		pop r16
 2897               	.LVL191:
 2898               		.loc 1 1113 1 view .LVU649
 2899 0062 FF90      		pop r15
 2900 0064 EF90      		pop r14
 2901               	.LVL192:
 2902               		.loc 1 1113 1 view .LVU650
 2903 0066 0895      		ret
 2904               	.LVL193:
 2905               	.L143:
 2906               	.LBB56:
1105:quantum/rgblight.c ****           sethsv(rgblight_config.hue, rgblight_config.sat, rgblight_config.val, (LED_TYPE *)&led[i]
 2907               		.loc 1 1105 13 is_stmt 1 discriminator 1 view .LVU651
1105:quantum/rgblight.c ****           sethsv(rgblight_config.hue, rgblight_config.sat, rgblight_config.val, (LED_TYPE *)&led[i]
 2908               		.loc 1 1105 33 is_stmt 0 discriminator 1 view .LVU652
 2909 0068 9923      		tst r25
 2910 006a 01F0      		breq .L152
 2911               	.L144:
1108:quantum/rgblight.c ****       }
 2912               		.loc 1 1108 11 is_stmt 1 view .LVU653
 2913 006c 9E01      		movw r18,r28
 2914 006e 40E0      		ldi r20,0
 2915 0070 00C0      		rjmp .L151
 2916               	.LBE56:
 2917               		.cfi_endproc
 2918               	.LFE160:
 2920               		.section	.text.rgblight_disable,"ax",@progbits
 2921               	.global	rgblight_disable
 2923               	rgblight_disable:
 2924               	.LFB106:
 357:quantum/rgblight.c ****   rgblight_config.enable = 0;
 2925               		.loc 1 357 29 view -0
 2926               		.cfi_startproc
 2927               	/* prologue: function */
 2928               	/* frame size = 0 */
 2929               	/* stack size = 0 */
 2930               	.L__stack_usage = 0
 358:quantum/rgblight.c ****   eeconfig_update_rgblight(rgblight_config.raw);
 2931               		.loc 1 358 3 view .LVU655
 358:quantum/rgblight.c ****   eeconfig_update_rgblight(rgblight_config.raw);
 2932               		.loc 1 358 26 is_stmt 0 view .LVU656
 2933 0000 E0E0      		ldi r30,lo8(rgblight_config)
 2934 0002 F0E0      		ldi r31,hi8(rgblight_config)
 2935 0004 8081      		ld r24,Z
 2936 0006 8E7F      		andi r24,lo8(~(1<<0))
 2937 0008 8083      		st Z,r24
 359:quantum/rgblight.c ****   xprintf("rgblight disable [EEPROM]: rgblight_config.enable = %u\n", rgblight_config.enable);
 2938               		.loc 1 359 3 is_stmt 1 view .LVU657
 2939 000a 6081      		ld r22,Z
 2940 000c 7181      		ldd r23,Z+1
 2941 000e 8281      		ldd r24,Z+2
 2942 0010 9381      		ldd r25,Z+3
 2943 0012 0E94 0000 		call eeconfig_update_rgblight
 2944               	.LVL194:
 360:quantum/rgblight.c **** #ifdef RGBLIGHT_USE_TIMER
 2945               		.loc 1 360 94 view .LVU658
 362:quantum/rgblight.c **** #endif
 2946               		.loc 1 362 7 view .LVU659
 2947               	.LBB61:
 2948               	.LBI61:
 717:quantum/rgblight.c ****   // OLD!!!! Animation timer -- AVR Timer3
 2949               		.loc 1 717 6 view .LVU660
 2950               	.LBB62:
 734:quantum/rgblight.c ****   RGBLIGHT_SPLIT_SET_CHANGE_TIMER_ENABLE;
 2951               		.loc 1 734 3 view .LVU661
 734:quantum/rgblight.c ****   RGBLIGHT_SPLIT_SET_CHANGE_TIMER_ENABLE;
 2952               		.loc 1 734 33 is_stmt 0 view .LVU662
 2953 0016 1092 0000 		sts rgblight_status+1,__zero_reg__
 735:quantum/rgblight.c **** }
 2954               		.loc 1 735 41 is_stmt 1 view .LVU663
 2955               	.LBE62:
 2956               	.LBE61:
 364:quantum/rgblight.c ****   wait_ms(50);
 2957               		.loc 1 364 33 view .LVU664
 365:quantum/rgblight.c ****   rgblight_set();
 2958               		.loc 1 365 3 view .LVU665
 2959               	.LVL195:
 2960               	.LBB63:
 2961               	.LBI63:
 166:/usr/local/Cellar/avr-gcc/8.3.0/avr/include/util/delay.h **** {
 2962               		.loc 3 166 1 view .LVU666
 2963               	.LBB64:
 168:/usr/local/Cellar/avr-gcc/8.3.0/avr/include/util/delay.h **** #if __HAS_DELAY_CYCLES && defined(__OPTIMIZE__) && \
 2964               		.loc 3 168 2 view .LVU667
 172:/usr/local/Cellar/avr-gcc/8.3.0/avr/include/util/delay.h **** 	extern void __builtin_avr_delay_cycles(unsigned long);
 2965               		.loc 3 172 2 view .LVU668
 173:/usr/local/Cellar/avr-gcc/8.3.0/avr/include/util/delay.h **** 	__tmp = ((F_CPU) / 1e3) * __ms;
 2966               		.loc 3 173 2 view .LVU669
 174:/usr/local/Cellar/avr-gcc/8.3.0/avr/include/util/delay.h **** 
 2967               		.loc 3 174 2 view .LVU670
 184:/usr/local/Cellar/avr-gcc/8.3.0/avr/include/util/delay.h **** 	#endif
 2968               		.loc 3 184 3 view .LVU671
 2969               		.loc 3 187 2 view .LVU672
 2970 001a 2FEF      		ldi r18,lo8(159999)
 2971 001c 80E7      		ldi r24,hi8(159999)
 2972 001e 92E0      		ldi r25,hlo8(159999)
 2973 0020 2150      	1:	subi r18,1
 2974 0022 8040      		sbci r24,0
 2975 0024 9040      		sbci r25,0
 2976 0026 01F4      		brne 1b
 2977 0028 00C0      		rjmp .
 2978 002a 0000      		nop
 2979               	.LVL196:
 2980               		.loc 3 187 2 is_stmt 0 view .LVU673
 2981               	.LBE64:
 2982               	.LBE63:
 366:quantum/rgblight.c **** }
 2983               		.loc 1 366 3 is_stmt 1 view .LVU674
 2984 002c 0C94 0000 		jmp rgblight_set
 2985               	.LVL197:
 2986               		.cfi_endproc
 2987               	.LFE106:
 2989               		.section	.text.rgblight_disable_noeeprom,"ax",@progbits
 2990               	.global	rgblight_disable_noeeprom
 2992               	rgblight_disable_noeeprom:
 2993               	.LFB107:
 369:quantum/rgblight.c ****   rgblight_config.enable = 0;
 2994               		.loc 1 369 38 view -0
 2995               		.cfi_startproc
 2996               	/* prologue: function */
 2997               	/* frame size = 0 */
 2998               	/* stack size = 0 */
 2999               	.L__stack_usage = 0
 370:quantum/rgblight.c ****   xprintf("rgblight disable [noEEPROM]: rgblight_config.enable = %u\n", rgblight_config.enable);
 3000               		.loc 1 370 3 view .LVU676
 370:quantum/rgblight.c ****   xprintf("rgblight disable [noEEPROM]: rgblight_config.enable = %u\n", rgblight_config.enable);
 3001               		.loc 1 370 26 is_stmt 0 view .LVU677
 3002 0000 E0E0      		ldi r30,lo8(rgblight_config)
 3003 0002 F0E0      		ldi r31,hi8(rgblight_config)
 3004 0004 8081      		ld r24,Z
 3005 0006 8E7F      		andi r24,lo8(~(1<<0))
 3006 0008 8083      		st Z,r24
 371:quantum/rgblight.c **** #ifdef RGBLIGHT_USE_TIMER
 3007               		.loc 1 371 96 is_stmt 1 view .LVU678
 373:quantum/rgblight.c **** #endif
 3008               		.loc 1 373 5 view .LVU679
 3009               	.LBB69:
 3010               	.LBI69:
 717:quantum/rgblight.c ****   // OLD!!!! Animation timer -- AVR Timer3
 3011               		.loc 1 717 6 view .LVU680
 3012               	.LBB70:
 734:quantum/rgblight.c ****   RGBLIGHT_SPLIT_SET_CHANGE_TIMER_ENABLE;
 3013               		.loc 1 734 3 view .LVU681
 734:quantum/rgblight.c ****   RGBLIGHT_SPLIT_SET_CHANGE_TIMER_ENABLE;
 3014               		.loc 1 734 33 is_stmt 0 view .LVU682
 3015 000a 1092 0000 		sts rgblight_status+1,__zero_reg__
 735:quantum/rgblight.c **** }
 3016               		.loc 1 735 41 is_stmt 1 view .LVU683
 3017               	.LBE70:
 3018               	.LBE69:
 375:quantum/rgblight.c ****   wait_ms(50);
 3019               		.loc 1 375 33 view .LVU684
 376:quantum/rgblight.c ****   rgblight_set();
 3020               		.loc 1 376 3 view .LVU685
 3021               	.LVL198:
 3022               	.LBB71:
 3023               	.LBI71:
 166:/usr/local/Cellar/avr-gcc/8.3.0/avr/include/util/delay.h **** {
 3024               		.loc 3 166 1 view .LVU686
 3025               	.LBB72:
 168:/usr/local/Cellar/avr-gcc/8.3.0/avr/include/util/delay.h **** #if __HAS_DELAY_CYCLES && defined(__OPTIMIZE__) && \
 3026               		.loc 3 168 2 view .LVU687
 172:/usr/local/Cellar/avr-gcc/8.3.0/avr/include/util/delay.h **** 	extern void __builtin_avr_delay_cycles(unsigned long);
 3027               		.loc 3 172 2 view .LVU688
 173:/usr/local/Cellar/avr-gcc/8.3.0/avr/include/util/delay.h **** 	__tmp = ((F_CPU) / 1e3) * __ms;
 3028               		.loc 3 173 2 view .LVU689
 174:/usr/local/Cellar/avr-gcc/8.3.0/avr/include/util/delay.h **** 
 3029               		.loc 3 174 2 view .LVU690
 184:/usr/local/Cellar/avr-gcc/8.3.0/avr/include/util/delay.h **** 	#endif
 3030               		.loc 3 184 3 view .LVU691
 3031               		.loc 3 187 2 view .LVU692
 3032 000e 2FEF      		ldi r18,lo8(159999)
 3033 0010 80E7      		ldi r24,hi8(159999)
 3034 0012 92E0      		ldi r25,hlo8(159999)
 3035 0014 2150      	1:	subi r18,1
 3036 0016 8040      		sbci r24,0
 3037 0018 9040      		sbci r25,0
 3038 001a 01F4      		brne 1b
 3039 001c 00C0      		rjmp .
 3040 001e 0000      		nop
 3041               	.LVL199:
 3042               		.loc 3 187 2 is_stmt 0 view .LVU693
 3043               	.LBE72:
 3044               	.LBE71:
